Archive member included to satisfy reference by file (symbol)

/usr/lib/arm-linux-gnueabihf/libc_nonshared.a(elf-init.oS)
                              /usr/lib/gcc/arm-linux-gnueabihf/5/../../../arm-linux-gnueabihf/crt1.o (__libc_csu_init)

As-needed library included to satisfy reference by file (symbol)

libarsal.so                   /home/ncs/CAPSTONE/out/arsdk-native/build/JumpingSumoPiloting/obj/JumpingSumoPiloting.c.o (ARSAL_Time_GetLocalTime)
libarcommands.so              /home/ncs/CAPSTONE/out/arsdk-native/build/JumpingSumoPiloting/obj/JumpingSumoPiloting.c.o (ARCOMMANDS_Decoder_DescribeBuffer)
libarnetwork.so               /home/ncs/CAPSTONE/out/arsdk-native/build/JumpingSumoPiloting/obj/JumpingSumoPiloting.c.o (ARNETWORK_Manager_ReceivingThreadRun)
libarnetworkal.so             /home/ncs/CAPSTONE/out/arsdk-native/build/JumpingSumoPiloting/obj/JumpingSumoPiloting.c.o (ARNETWORKAL_Error_ToString)
libardiscovery.so             /home/ncs/CAPSTONE/out/arsdk-native/build/JumpingSumoPiloting/obj/JumpingSumoPiloting.c.o (ARDISCOVERY_Connection_Delete)
libncurses.so.5               /home/ncs/CAPSTONE/out/arsdk-native/build/JumpingSumoPiloting/obj/ihm.c.o (delwin@@NCURSES_5.0.19991023)
libtinfo.so.5                 /home/ncs/CAPSTONE/out/arsdk-native/build/JumpingSumoPiloting/obj/ihm.c.o (wtimeout@@NCURSES_TINFO_5.0.19991023)
libgcc_s.so.1                 /home/ncs/CAPSTONE/out/arsdk-native/build/JumpingSumoPiloting/obj/JumpingSumoPiloting.c.o (__aeabi_idiv@@GCC_3.5)
libc.so.6                     /home/ncs/CAPSTONE/out/arsdk-native/build/JumpingSumoPiloting/obj/JumpingSumoPiloting.c.o (__printf_chk@@GLIBC_2.4)
ld-linux-armhf.so.3           /home/ncs/CAPSTONE/out/arsdk-native/build/JumpingSumoPiloting/obj/JumpingSumoPiloting.c.o (__stack_chk_guard@@GLIBC_2.4)

Allocating common symbols
Common symbol       size              file

gErrorStr           0x800             /home/ncs/CAPSTONE/out/arsdk-native/build/JumpingSumoPiloting/obj/JumpingSumoPiloting.c.o

Discarded input sections

 .rodata.cst4   0x00000000        0x4 /usr/lib/gcc/arm-linux-gnueabihf/5/../../../arm-linux-gnueabihf/crt1.o
 .ARM.extab     0x00000000        0x0 /usr/lib/gcc/arm-linux-gnueabihf/5/../../../arm-linux-gnueabihf/crt1.o
 .data          0x00000000        0x4 /usr/lib/gcc/arm-linux-gnueabihf/5/../../../arm-linux-gnueabihf/crt1.o
 .bss           0x00000000        0x0 /usr/lib/gcc/arm-linux-gnueabihf/5/../../../arm-linux-gnueabihf/crt1.o
 .note.GNU-stack
                0x00000000        0x0 /usr/lib/gcc/arm-linux-gnueabihf/5/../../../arm-linux-gnueabihf/crt1.o
 .data          0x00000000        0x0 /usr/lib/gcc/arm-linux-gnueabihf/5/../../../arm-linux-gnueabihf/crti.o
 .bss           0x00000000        0x0 /usr/lib/gcc/arm-linux-gnueabihf/5/../../../arm-linux-gnueabihf/crti.o
 .note.GNU-stack
                0x00000000        0x0 /usr/lib/gcc/arm-linux-gnueabihf/5/../../../arm-linux-gnueabihf/crti.o
 .data          0x00000000        0x4 /usr/lib/gcc/arm-linux-gnueabihf/5/crtbegin.o
 .note.GNU-stack
                0x00000000        0x0 /usr/lib/gcc/arm-linux-gnueabihf/5/crtbegin.o
 .text          0x00000000        0x0 /home/ncs/CAPSTONE/out/arsdk-native/build/JumpingSumoPiloting/obj/JumpingSumoPiloting.c.o
 .bss           0x00000000        0x0 /home/ncs/CAPSTONE/out/arsdk-native/build/JumpingSumoPiloting/obj/JumpingSumoPiloting.c.o
 .note.GNU-stack
                0x00000000        0x0 /home/ncs/CAPSTONE/out/arsdk-native/build/JumpingSumoPiloting/obj/JumpingSumoPiloting.c.o
 .text          0x00000000        0x0 /home/ncs/CAPSTONE/out/arsdk-native/build/JumpingSumoPiloting/obj/ihm.c.o
 .data          0x00000000        0x0 /home/ncs/CAPSTONE/out/arsdk-native/build/JumpingSumoPiloting/obj/ihm.c.o
 .bss           0x00000000        0x0 /home/ncs/CAPSTONE/out/arsdk-native/build/JumpingSumoPiloting/obj/ihm.c.o
 .note.GNU-stack
                0x00000000        0x0 /home/ncs/CAPSTONE/out/arsdk-native/build/JumpingSumoPiloting/obj/ihm.c.o
 .data          0x00000000        0x0 /usr/lib/arm-linux-gnueabihf/libc_nonshared.a(elf-init.oS)
 .bss           0x00000000        0x0 /usr/lib/arm-linux-gnueabihf/libc_nonshared.a(elf-init.oS)
 .note.GNU-stack
                0x00000000        0x0 /usr/lib/arm-linux-gnueabihf/libc_nonshared.a(elf-init.oS)
 .text          0x00000000        0x0 /usr/lib/gcc/arm-linux-gnueabihf/5/crtend.o
 .data          0x00000000        0x0 /usr/lib/gcc/arm-linux-gnueabihf/5/crtend.o
 .bss           0x00000000        0x0 /usr/lib/gcc/arm-linux-gnueabihf/5/crtend.o
 .note.GNU-stack
                0x00000000        0x0 /usr/lib/gcc/arm-linux-gnueabihf/5/crtend.o
 .text          0x00000000        0x0 /usr/lib/gcc/arm-linux-gnueabihf/5/../../../arm-linux-gnueabihf/crtn.o
 .data          0x00000000        0x0 /usr/lib/gcc/arm-linux-gnueabihf/5/../../../arm-linux-gnueabihf/crtn.o
 .bss           0x00000000        0x0 /usr/lib/gcc/arm-linux-gnueabihf/5/../../../arm-linux-gnueabihf/crtn.o
 .note.GNU-stack
                0x00000000        0x0 /usr/lib/gcc/arm-linux-gnueabihf/5/../../../arm-linux-gnueabihf/crtn.o

Memory Configuration

Name             Origin             Length             Attributes
*default*        0x00000000         0xffffffff

Linker script and memory map

LOAD /usr/lib/gcc/arm-linux-gnueabihf/5/../../../arm-linux-gnueabihf/crt1.o
LOAD /usr/lib/gcc/arm-linux-gnueabihf/5/../../../arm-linux-gnueabihf/crti.o
LOAD /usr/lib/gcc/arm-linux-gnueabihf/5/crtbegin.o
LOAD /home/ncs/CAPSTONE/out/arsdk-native/build/JumpingSumoPiloting/obj/JumpingSumoPiloting.c.o
LOAD /home/ncs/CAPSTONE/out/arsdk-native/build/JumpingSumoPiloting/obj/ihm.c.o
LOAD /home/ncs/CAPSTONE/out/arsdk-native/staging/usr/lib/libarsal.so
LOAD /home/ncs/CAPSTONE/out/arsdk-native/staging/usr/lib/libarcommands.so
LOAD /home/ncs/CAPSTONE/out/arsdk-native/staging/usr/lib/libarnetwork.so
LOAD /home/ncs/CAPSTONE/out/arsdk-native/staging/usr/lib/libarnetworkal.so
LOAD /home/ncs/CAPSTONE/out/arsdk-native/staging/usr/lib/libardiscovery.so
LOAD /usr/lib/gcc/arm-linux-gnueabihf/5/../../../arm-linux-gnueabihf/libncurses.so
LOAD /lib/arm-linux-gnueabihf/libncurses.so.5
LOAD /usr/lib/gcc/arm-linux-gnueabihf/5/../../../arm-linux-gnueabihf/libtinfo.so
LOAD /usr/lib/gcc/arm-linux-gnueabihf/5/../../../arm-linux-gnueabihf/librt.so
LOAD /usr/lib/gcc/arm-linux-gnueabihf/5/libstdc++.so
LOAD /usr/lib/gcc/arm-linux-gnueabihf/5/../../../arm-linux-gnueabihf/libm.so
LOAD /usr/lib/gcc/arm-linux-gnueabihf/5/libgcc_s.so
START GROUP
LOAD /usr/lib/gcc/arm-linux-gnueabihf/5/libgcc_s.so.1
LOAD /usr/lib/gcc/arm-linux-gnueabihf/5/libgcc.a
END GROUP
LOAD /usr/lib/gcc/arm-linux-gnueabihf/5/libgcc.a
LOAD /usr/lib/gcc/arm-linux-gnueabihf/5/../../../arm-linux-gnueabihf/libpthread.so
START GROUP
LOAD /lib/arm-linux-gnueabihf/libpthread.so.0
LOAD /usr/lib/arm-linux-gnueabihf/libpthread_nonshared.a
END GROUP
LOAD /usr/lib/gcc/arm-linux-gnueabihf/5/../../../arm-linux-gnueabihf/libc.so
START GROUP
LOAD /lib/arm-linux-gnueabihf/libc.so.6
LOAD /usr/lib/arm-linux-gnueabihf/libc_nonshared.a
LOAD /lib/arm-linux-gnueabihf/ld-linux-armhf.so.3
END GROUP
LOAD /usr/lib/gcc/arm-linux-gnueabihf/5/libgcc_s.so
START GROUP
LOAD /usr/lib/gcc/arm-linux-gnueabihf/5/libgcc_s.so.1
LOAD /usr/lib/gcc/arm-linux-gnueabihf/5/libgcc.a
END GROUP
LOAD /usr/lib/gcc/arm-linux-gnueabihf/5/libgcc.a
LOAD /usr/lib/gcc/arm-linux-gnueabihf/5/crtend.o
LOAD /usr/lib/gcc/arm-linux-gnueabihf/5/../../../arm-linux-gnueabihf/crtn.o
                [!provide]                PROVIDE (__executable_start, 0x10000)
                0x00010154                . = (0x10000 + SIZEOF_HEADERS)

.interp         0x00010154       0x19
 *(.interp)
 .interp        0x00010154       0x19 /usr/lib/gcc/arm-linux-gnueabihf/5/../../../arm-linux-gnueabihf/crt1.o

.note.ABI-tag   0x00010170       0x20
 .note.ABI-tag  0x00010170       0x20 /usr/lib/gcc/arm-linux-gnueabihf/5/../../../arm-linux-gnueabihf/crt1.o

.note.gnu.build-id
                0x00010190       0x24
 *(.note.gnu.build-id)
 .note.gnu.build-id
                0x00010190       0x24 linker stubs

.hash
 *(.hash)

.gnu.hash       0x000101b4      0x270
 *(.gnu.hash)
 .gnu.hash      0x000101b4      0x270 /usr/lib/gcc/arm-linux-gnueabihf/5/../../../arm-linux-gnueabihf/crt1.o

.dynsym         0x00010424      0x550
 *(.dynsym)
 .dynsym        0x00010424      0x550 /usr/lib/gcc/arm-linux-gnueabihf/5/../../../arm-linux-gnueabihf/crt1.o

.dynstr         0x00010974      0x73b
 *(.dynstr)
 .dynstr        0x00010974      0x73b /usr/lib/gcc/arm-linux-gnueabihf/5/../../../arm-linux-gnueabihf/crt1.o

.gnu.version    0x000110b0       0xaa
 *(.gnu.version)
 .gnu.version   0x000110b0       0xaa /usr/lib/gcc/arm-linux-gnueabihf/5/../../../arm-linux-gnueabihf/crt1.o

.gnu.version_d  0x0001115c        0x0
 *(.gnu.version_d)
 .gnu.version_d
                0x0001115c        0x0 /usr/lib/gcc/arm-linux-gnueabihf/5/../../../arm-linux-gnueabihf/crt1.o

.gnu.version_r  0x0001115c       0xa0
 *(.gnu.version_r)
 .gnu.version_r
                0x0001115c       0xa0 /usr/lib/gcc/arm-linux-gnueabihf/5/../../../arm-linux-gnueabihf/crt1.o

.rel.dyn        0x000111fc       0x28
 *(.rel.init)
 *(.rel.text .rel.text.* .rel.gnu.linkonce.t.*)
 *(.rel.fini)
 *(.rel.rodata .rel.rodata.* .rel.gnu.linkonce.r.*)
 *(.rel.data.rel.ro .rel.data.rel.ro.* .rel.gnu.linkonce.d.rel.ro.*)
 *(.rel.data .rel.data.* .rel.gnu.linkonce.d.*)
 *(.rel.tdata .rel.tdata.* .rel.gnu.linkonce.td.*)
 *(.rel.tbss .rel.tbss.* .rel.gnu.linkonce.tb.*)
 *(.rel.ctors)
 *(.rel.dtors)
 *(.rel.got)
 .rel.got       0x000111fc       0x28 /usr/lib/gcc/arm-linux-gnueabihf/5/../../../arm-linux-gnueabihf/crt1.o
 *(.rel.bss .rel.bss.* .rel.gnu.linkonce.b.*)
 .rel.bss       0x00011224        0x0 /usr/lib/gcc/arm-linux-gnueabihf/5/../../../arm-linux-gnueabihf/crt1.o
                [!provide]                PROVIDE (__rel_iplt_start, .)
 *(.rel.iplt)
 .rel.iplt      0x00011224        0x0 /usr/lib/gcc/arm-linux-gnueabihf/5/../../../arm-linux-gnueabihf/crt1.o
                [!provide]                PROVIDE (__rel_iplt_end, .)

.rela.dyn       0x00011224        0x0
 *(.rela.init)
 *(.rela.text .rela.text.* .rela.gnu.linkonce.t.*)
 *(.rela.fini)
 *(.rela.rodata .rela.rodata.* .rela.gnu.linkonce.r.*)
 *(.rela.data .rela.data.* .rela.gnu.linkonce.d.*)
 *(.rela.tdata .rela.tdata.* .rela.gnu.linkonce.td.*)
 *(.rela.tbss .rela.tbss.* .rela.gnu.linkonce.tb.*)
 *(.rela.ctors)
 *(.rela.dtors)
 *(.rela.got)
 *(.rela.bss .rela.bss.* .rela.gnu.linkonce.b.*)
                [!provide]                PROVIDE (__rela_iplt_start, .)
 *(.rela.iplt)
                [!provide]                PROVIDE (__rela_iplt_end, .)

.rel.plt        0x00011224      0x1c0
 *(.rel.plt)
 .rel.plt       0x00011224      0x1c0 /usr/lib/gcc/arm-linux-gnueabihf/5/../../../arm-linux-gnueabihf/crt1.o

.rela.plt
 *(.rela.plt)

.init           0x000113e4        0xc
 *(SORT(.init))
 .init          0x000113e4        0x8 /usr/lib/gcc/arm-linux-gnueabihf/5/../../../arm-linux-gnueabihf/crti.o
                0x000113e4                _init
 .init          0x000113ec        0x4 /usr/lib/gcc/arm-linux-gnueabihf/5/../../../arm-linux-gnueabihf/crtn.o

.plt            0x000113f0      0x2c0
 *(.plt)
 .plt           0x000113f0      0x2c0 /usr/lib/gcc/arm-linux-gnueabihf/5/../../../arm-linux-gnueabihf/crt1.o
                0x00011404                noecho@@NCURSES_5.0.19991023
                0x00011410                abort@@GLIBC_2.4
                0x0001141c                ARNETWORK_Manager_Delete
                0x00011428                __libc_start_main@@GLIBC_2.4
                0x00011434                ARSAL_Thread_Join
                0x00011440                ARSAL_Thread_Destroy
                0x00011458                strncpy@@GLIBC_2.4
                0x00011464                __printf_chk@@GLIBC_2.4
                0x00011474                ARNETWORKAL_Manager_Delete
                0x00011480                ARCOMMANDS_Generator_GenerateJumpingSumoAnimationsJump
                0x0001148c                delwin@@NCURSES_5.0.19991023
                0x00011498                calloc@@GLIBC_2.4
                0x000114a4                ARNETWORKAL_Manager_New
                0x000114b0                ARSAL_Print_PrintRaw
                0x000114bc                ARNETWORKAL_Manager_InitWifiNetwork
                0x000114c8                keypad@@NCURSES_TINFO_5.0.19991023
                0x000114d4                endwin@@NCURSES_5.0.19991023
                0x000114e0                usleep@@GLIBC_2.4
                0x000114ec                free@@GLIBC_2.4
                0x000114f8                raw@@NCURSES_TINFO_5.0.19991023
                0x00011504                ARNETWORKAL_Manager_Unlock
                0x00011514                ARCOMMANDS_Decoder_SetCommonCommonStateBatteryStateChangedCb
                0x00011520                ARDISCOVERY_Connection_New
                0x0001152c                ARNETWORK_Manager_SendData
                0x00011538                ARNETWORK_Manager_ReadDataWithTimeout
                0x00011544                __vsnprintf_chk@@GLIBC_2.4
                0x00011550                ARSAL_Print_SetCallback
                0x0001155c                ARNETWORKAL_Manager_CloseWifiNetwork
                0x00011568                ARCOMMANDS_Decoder_DecodeCommand
                0x00011574                wmove@@NCURSES_5.0.19991023
                0x00011584                mvprintw@@NCURSES_5.0.19991023
                0x00011590                wclrtoeol@@NCURSES_5.0.19991023
                0x0001159c                ARCOMMANDS_Decoder_NewDecoder
                0x000115a8                ARNETWORKAL_Error_ToString
                0x000115b4                ARDISCOVERY_Connection_Delete
                0x000115c0                wrefresh@@NCURSES_5.0.19991023
                0x000115cc                malloc@@GLIBC_2.4
                0x000115d8                __stack_chk_fail@@GLIBC_2.4
                0x000115e4                wgetch@@NCURSES_5.0.19991023
                0x000115f0                ARNETWORK_Error_ToString
                0x000115fc                ARCOMMANDS_Decoder_DescribeBuffer
                0x00011608                ARNETWORK_Manager_New
                0x00011614                strftime@@GLIBC_2.4
                0x00011620                __aeabi_idiv@@GCC_3.5
                0x0001162c                ARNETWORK_Manager_Stop
                0x00011638                ARSAL_Thread_Create
                0x00011644                __sprintf_chk@@GLIBC_2.4
                0x00011650                ARDISCOVERY_Error_ToString
                0x0001165c                wtimeout@@NCURSES_TINFO_5.0.19991023
                0x00011668                ARSAL_Time_GetLocalTime
                0x00011674                initscr@@NCURSES_5.0.19991023
                0x00011680                strcmp@@GLIBC_2.4
                0x0001168c                ARCOMMANDS_Generator_GenerateJumpingSumoPilotingPCMD
                0x00011698                ARDISCOVERY_Connection_ControllerConnection
                0x000116a4                ARCOMMANDS_Decoder_DeleteDecoder

.iplt           0x000116b0        0x0
 *(.iplt)
 .iplt          0x000116b0        0x0 /usr/lib/gcc/arm-linux-gnueabihf/5/../../../arm-linux-gnueabihf/crt1.o

.text           0x000116b0      0xfe8
 *(.text.unlikely .text.*_unlikely .text.unlikely.*)
 *(.text.exit .text.exit.*)
 *(.text.startup .text.startup.*)
 .text.startup.main
                0x000116b0      0x4a4 /home/ncs/CAPSTONE/out/arsdk-native/build/JumpingSumoPiloting/obj/JumpingSumoPiloting.c.o
                0x000116b0                main
 *(.text.hot .text.hot.*)
 *(.text .stub .text.* .gnu.linkonce.t.*)
 .text          0x00011b54       0x30 /usr/lib/gcc/arm-linux-gnueabihf/5/../../../arm-linux-gnueabihf/crt1.o
                0x00011b54                _start
 .text          0x00011b84       0x24 /usr/lib/gcc/arm-linux-gnueabihf/5/../../../arm-linux-gnueabihf/crti.o
 .text          0x00011ba8       0x8c /usr/lib/gcc/arm-linux-gnueabihf/5/crtbegin.o
 .text.onDisconnectNetwork
                0x00011c34       0x18 /home/ncs/CAPSTONE/out/arsdk-native/build/JumpingSumoPiloting/obj/JumpingSumoPiloting.c.o
                0x00011c34                onDisconnectNetwork
 .text.arnetworkCmdCallback
                0x00011c4c        0x4 /home/ncs/CAPSTONE/out/arsdk-native/build/JumpingSumoPiloting/obj/JumpingSumoPiloting.c.o
                0x00011c4c                arnetworkCmdCallback
 .text.readerRun
                0x00011c50      0x164 /home/ncs/CAPSTONE/out/arsdk-native/build/JumpingSumoPiloting/obj/JumpingSumoPiloting.c.o
                0x00011c50                readerRun
 .text.ARDISCOVERY_Connection_SendJsonCallback
                0x00011db4       0x64 /home/ncs/CAPSTONE/out/arsdk-native/build/JumpingSumoPiloting/obj/JumpingSumoPiloting.c.o
                0x00011db4                ARDISCOVERY_Connection_SendJsonCallback
 .text.ARDISCOVERY_Connection_ReceiveJsonCallback
                0x00011e18       0x2c /home/ncs/CAPSTONE/out/arsdk-native/build/JumpingSumoPiloting/obj/JumpingSumoPiloting.c.o
                0x00011e18                ARDISCOVERY_Connection_ReceiveJsonCallback
 .text.batteryStateChangedCallback
                0x00011e44        0xe /home/ncs/CAPSTONE/out/arsdk-native/build/JumpingSumoPiloting/obj/JumpingSumoPiloting.c.o
                0x00011e44                batteryStateChangedCallback
 *fill*         0x00011e52        0x2 
 .text.customPrintCallback
                0x00011e54       0x50 /home/ncs/CAPSTONE/out/arsdk-native/build/JumpingSumoPiloting/obj/JumpingSumoPiloting.c.o
                0x00011e54                customPrintCallback
 .text.ardiscoveryConnect
                0x00011ea4      0x12c /home/ncs/CAPSTONE/out/arsdk-native/build/JumpingSumoPiloting/obj/JumpingSumoPiloting.c.o
                0x00011ea4                ardiscoveryConnect
 .text.startNetwork
                0x00011fd0      0x244 /home/ncs/CAPSTONE/out/arsdk-native/build/JumpingSumoPiloting/obj/JumpingSumoPiloting.c.o
                0x00011fd0                startNetwork
 .text.stopNetwork
                0x00012214       0x56 /home/ncs/CAPSTONE/out/arsdk-native/build/JumpingSumoPiloting/obj/JumpingSumoPiloting.c.o
                0x00012214                stopNetwork
 *fill*         0x0001226a        0x2 
 .text.registerARCommandsCallbacks
                0x0001226c       0x20 /home/ncs/CAPSTONE/out/arsdk-native/build/JumpingSumoPiloting/obj/JumpingSumoPiloting.c.o
                0x0001226c                registerARCommandsCallbacks
 .text.unregisterARCommandsCallbacks
                0x0001228c        0xa /home/ncs/CAPSTONE/out/arsdk-native/build/JumpingSumoPiloting/obj/JumpingSumoPiloting.c.o
                0x0001228c                unregisterARCommandsCallbacks
 *fill*         0x00012296        0x2 
 .text.sendPCMD
                0x00012298       0x7c /home/ncs/CAPSTONE/out/arsdk-native/build/JumpingSumoPiloting/obj/JumpingSumoPiloting.c.o
                0x00012298                sendPCMD
 .text.looperRun
                0x00012314       0x1e /home/ncs/CAPSTONE/out/arsdk-native/build/JumpingSumoPiloting/obj/JumpingSumoPiloting.c.o
                0x00012314                looperRun
 *fill*         0x00012332        0x2 
 .text.sendJump
                0x00012334       0x6c /home/ncs/CAPSTONE/out/arsdk-native/build/JumpingSumoPiloting/obj/JumpingSumoPiloting.c.o
                0x00012334                sendJump
 .text.onInputEvent
                0x000123a0       0x74 /home/ncs/CAPSTONE/out/arsdk-native/build/JumpingSumoPiloting/obj/JumpingSumoPiloting.c.o
                0x000123a0                onInputEvent
 .text.IHM_InputProcessing
                0x00012414       0x94 /home/ncs/CAPSTONE/out/arsdk-native/build/JumpingSumoPiloting/obj/ihm.c.o
                0x00012414                IHM_InputProcessing
 .text.IHM_Delete
                0x000124a8       0x58 /home/ncs/CAPSTONE/out/arsdk-native/build/JumpingSumoPiloting/obj/ihm.c.o
                0x000124a8                IHM_Delete
 .text.IHM_New  0x00012500       0xa0 /home/ncs/CAPSTONE/out/arsdk-native/build/JumpingSumoPiloting/obj/ihm.c.o
                0x00012500                IHM_New
 .text.IHM_setCustomData
                0x000125a0        0x6 /home/ncs/CAPSTONE/out/arsdk-native/build/JumpingSumoPiloting/obj/ihm.c.o
                0x000125a0                IHM_setCustomData
 *fill*         0x000125a6        0x2 
 .text.IHM_PrintHeader
                0x000125a8       0x38 /home/ncs/CAPSTONE/out/arsdk-native/build/JumpingSumoPiloting/obj/ihm.c.o
                0x000125a8                IHM_PrintHeader
 .text.IHM_PrintInfo
                0x000125e0       0x38 /home/ncs/CAPSTONE/out/arsdk-native/build/JumpingSumoPiloting/obj/ihm.c.o
                0x000125e0                IHM_PrintInfo
 .text.IHM_PrintBattery
                0x00012618       0x40 /home/ncs/CAPSTONE/out/arsdk-native/build/JumpingSumoPiloting/obj/ihm.c.o
                0x00012618                IHM_PrintBattery
 .text          0x00012658       0x40 /usr/lib/arm-linux-gnueabihf/libc_nonshared.a(elf-init.oS)
                0x00012658                __libc_csu_init
                0x00012694                __libc_csu_fini
 *(.gnu.warning)
 *(.glue_7t)
 .glue_7t       0x00012698        0x0 linker stubs
 *(.glue_7)
 .glue_7        0x00012698        0x0 linker stubs
 *(.vfp11_veneer)
 .vfp11_veneer  0x00012698        0x0 linker stubs
 *(.v4_bx)
 .v4_bx         0x00012698        0x0 linker stubs

.fini           0x00012698        0x8
 *(SORT(.fini))
 .fini          0x00012698        0x4 /usr/lib/gcc/arm-linux-gnueabihf/5/../../../arm-linux-gnueabihf/crti.o
                0x00012698                _fini
 .fini          0x0001269c        0x4 /usr/lib/gcc/arm-linux-gnueabihf/5/../../../arm-linux-gnueabihf/crtn.o
                [!provide]                PROVIDE (__etext, .)
                [!provide]                PROVIDE (_etext, .)
                [!provide]                PROVIDE (etext, .)

.rodata         0x000126a0      0x4b2
 *(.rodata .rodata.* .gnu.linkonce.r.*)
 .rodata        0x000126a0       0x38 /home/ncs/CAPSTONE/out/arsdk-native/build/JumpingSumoPiloting/obj/JumpingSumoPiloting.c.o
 .rodata.str1.1
                0x000126d8      0x46e /home/ncs/CAPSTONE/out/arsdk-native/build/JumpingSumoPiloting/obj/JumpingSumoPiloting.c.o
                                0x478 (size before relaxing)
 .rodata.str1.1
                0x00012b46        0xc /home/ncs/CAPSTONE/out/arsdk-native/build/JumpingSumoPiloting/obj/ihm.c.o

.rodata1
 *(.rodata1)

.ARM.extab
 *(.ARM.extab* .gnu.linkonce.armextab.*)
                [!provide]                PROVIDE (__exidx_start, .)

.ARM.exidx      0x00012b54        0x8
 *(.ARM.exidx* .gnu.linkonce.armexidx.*)
 .ARM.exidx     0x00012b54        0x8 /usr/lib/gcc/arm-linux-gnueabihf/5/../../../arm-linux-gnueabihf/crt1.o
                [!provide]                PROVIDE (__exidx_end, .)

.eh_frame_hdr
 *(.eh_frame_hdr)
 *(.eh_frame_entry .eh_frame_entry.*)

.eh_frame       0x00012b5c        0x4
 *(.eh_frame)
 .eh_frame      0x00012b5c        0x4 /usr/lib/gcc/arm-linux-gnueabihf/5/crtend.o
 *(.eh_frame.*)

.gcc_except_table
 *(.gcc_except_table .gcc_except_table.*)

.gnu_extab
 *(.gnu_extab*)

.exception_ranges
 *(.exception_ranges .exception_ranges*)
                0x00022ec4                . = DATA_SEGMENT_ALIGN (0x10000, 0x1000)

.eh_frame
 *(.eh_frame)
 *(.eh_frame.*)

.gnu_extab
 *(.gnu_extab)

.gcc_except_table
 *(.gcc_except_table .gcc_except_table.*)

.exception_ranges
 *(.exception_ranges .exception_ranges*)

.tdata
 *(.tdata .tdata.* .gnu.linkonce.td.*)

.tbss
 *(.tbss .tbss.* .gnu.linkonce.tb.*)
 *(.tcommon)

.preinit_array  0x00022ec4        0x0
                [!provide]                PROVIDE (__preinit_array_start, .)
 *(.preinit_array)
                [!provide]                PROVIDE (__preinit_array_end, .)

.init_array     0x00022ec4        0x4
                0x00022ec4                PROVIDE (__init_array_start, .)
 *(SORT(.init_array.*) SORT(.ctors.*))
 *(.init_array EXCLUDE_FILE(*crtend?.o *crtend.o *crtbegin?.o *crtbegin.o) .ctors)
 .init_array    0x00022ec4        0x4 /usr/lib/gcc/arm-linux-gnueabihf/5/crtbegin.o
                0x00022ec8                PROVIDE (__init_array_end, .)

.fini_array     0x00022ec8        0x4
                [!provide]                PROVIDE (__fini_array_start, .)
 *(SORT(.fini_array.*) SORT(.dtors.*))
 *(.fini_array EXCLUDE_FILE(*crtend?.o *crtend.o *crtbegin?.o *crtbegin.o) .dtors)
 .fini_array    0x00022ec8        0x4 /usr/lib/gcc/arm-linux-gnueabihf/5/crtbegin.o
                [!provide]                PROVIDE (__fini_array_end, .)

.ctors
 *crtbegin.o(.ctors)
 *crtbegin?.o(.ctors)
 *(EXCLUDE_FILE(*crtend?.o *crtend.o) .ctors)
 *(SORT(.ctors.*))
 *(.ctors)

.dtors
 *crtbegin.o(.dtors)
 *crtbegin?.o(.dtors)
 *(EXCLUDE_FILE(*crtend?.o *crtend.o) .dtors)
 *(SORT(.dtors.*))
 *(.dtors)

.jcr            0x00022ecc        0x4
 *(.jcr)
 .jcr           0x00022ecc        0x0 /usr/lib/gcc/arm-linux-gnueabihf/5/crtbegin.o
 .jcr           0x00022ecc        0x4 /usr/lib/gcc/arm-linux-gnueabihf/5/crtend.o

.data.rel.ro
 *(.data.rel.ro.local* .gnu.linkonce.d.rel.ro.local.*)
 *(.data.rel.ro .data.rel.ro.* .gnu.linkonce.d.rel.ro.*)

.dynamic        0x00022ed0      0x130
 *(.dynamic)
 .dynamic       0x00022ed0      0x130 /usr/lib/gcc/arm-linux-gnueabihf/5/../../../arm-linux-gnueabihf/crt1.o
                0x00022ed0                _DYNAMIC
                0x00023000                . = DATA_SEGMENT_RELRO_END (., 0x0)

.got            0x00023000      0x130
 *(.got.plt)
 .got.plt       0x00023000       0xec /usr/lib/gcc/arm-linux-gnueabihf/5/../../../arm-linux-gnueabihf/crt1.o
                0x00023000                _GLOBAL_OFFSET_TABLE_
 *(.igot.plt)
 .igot.plt      0x000230ec        0x0 /usr/lib/gcc/arm-linux-gnueabihf/5/../../../arm-linux-gnueabihf/crt1.o
 *(.got)
 .got           0x000230ec       0x44 /usr/lib/gcc/arm-linux-gnueabihf/5/../../../arm-linux-gnueabihf/crt1.o
 *(.igot)

.data           0x00023130       0x84
                [!provide]                PROVIDE (__data_start, .)
 *(.data .data.* .gnu.linkonce.d.*)
 .data          0x00023130       0x84 /home/ncs/CAPSTONE/out/arsdk-native/build/JumpingSumoPiloting/obj/JumpingSumoPiloting.c.o
                0x000231b0                gIHMRun

.tm_clone_table
                0x000231b4        0x0
 .tm_clone_table
                0x000231b4        0x0 /usr/lib/gcc/arm-linux-gnueabihf/5/crtbegin.o
 .tm_clone_table
                0x000231b4        0x0 /usr/lib/gcc/arm-linux-gnueabihf/5/crtend.o

.data1
 *(.data1)
                0x000231b4                _edata = .
                [!provide]                PROVIDE (edata, .)
                0x000231b4                . = .
                0x000231b4                __bss_start = .
                0x000231b4                __bss_start__ = .

.bss            0x000231b4      0x804
 *(.dynbss)
 .dynbss        0x000231b4        0x0 /usr/lib/gcc/arm-linux-gnueabihf/5/../../../arm-linux-gnueabihf/crt1.o
 *(.bss .bss.* .gnu.linkonce.b.*)
 .bss           0x000231b4        0x1 /usr/lib/gcc/arm-linux-gnueabihf/5/crtbegin.o
 *(COMMON)
 COMMON         0x000231b5      0x800 /home/ncs/CAPSTONE/out/arsdk-native/build/JumpingSumoPiloting/obj/JumpingSumoPiloting.c.o
                0x000231b5                gErrorStr
                0x000239b8                . = ALIGN ((. != 0x0)?0x4:0x1)
 *fill*         0x000239b5        0x3 
                0x000239b8                _bss_end__ = .
                0x000239b8                __bss_end__ = .
                0x000239b8                . = ALIGN (0x4)
                0x000239b8                . = SEGMENT_START ("ldata-segment", .)
                0x000239b8                . = ALIGN (0x4)
                0x000239b8                __end__ = .
                0x000239b8                _end = .
                [!provide]                PROVIDE (end, .)
                0x000239b8                . = DATA_SEGMENT_END (.)

.stab
 *(.stab)

.stabstr
 *(.stabstr)

.stab.excl
 *(.stab.excl)

.stab.exclstr
 *(.stab.exclstr)

.stab.index
 *(.stab.index)

.stab.indexstr
 *(.stab.indexstr)

.comment        0x00000000       0x3b
 *(.comment)
 .comment       0x00000000       0x3b /usr/lib/gcc/arm-linux-gnueabihf/5/crtbegin.o
                                 0x3c (size before relaxing)
 .comment       0x0000003b       0x3c /home/ncs/CAPSTONE/out/arsdk-native/build/JumpingSumoPiloting/obj/JumpingSumoPiloting.c.o
 .comment       0x0000003b       0x3c /home/ncs/CAPSTONE/out/arsdk-native/build/JumpingSumoPiloting/obj/ihm.c.o
 .comment       0x0000003b       0x3c /usr/lib/gcc/arm-linux-gnueabihf/5/crtend.o

.ARM.attributes
                0x00000000       0x33
 .ARM.attributes
                0x00000000       0x33 /usr/lib/gcc/arm-linux-gnueabihf/5/../../../arm-linux-gnueabihf/crt1.o
 .ARM.attributes
                0x00000033       0x27 /usr/lib/gcc/arm-linux-gnueabihf/5/../../../arm-linux-gnueabihf/crti.o
 .ARM.attributes
                0x0000005a       0x33 /usr/lib/gcc/arm-linux-gnueabihf/5/crtbegin.o
 .ARM.attributes
                0x0000008d       0x33 /home/ncs/CAPSTONE/out/arsdk-native/build/JumpingSumoPiloting/obj/JumpingSumoPiloting.c.o
 .ARM.attributes
                0x000000c0       0x33 /home/ncs/CAPSTONE/out/arsdk-native/build/JumpingSumoPiloting/obj/ihm.c.o
 .ARM.attributes
                0x000000f3       0x35 /usr/lib/arm-linux-gnueabihf/libc_nonshared.a(elf-init.oS)
 .ARM.attributes
                0x00000128       0x33 /usr/lib/gcc/arm-linux-gnueabihf/5/crtend.o
 .ARM.attributes
                0x0000015b       0x27 /usr/lib/gcc/arm-linux-gnueabihf/5/../../../arm-linux-gnueabihf/crtn.o

.debug
 *(.debug)

.line
 *(.line)

.debug_srcinfo
 *(.debug_srcinfo)

.debug_sfnames
 *(.debug_sfnames)

.debug_aranges  0x00000000       0xf0
 *(.debug_aranges)
 .debug_aranges
                0x00000000       0xa0 /home/ncs/CAPSTONE/out/arsdk-native/build/JumpingSumoPiloting/obj/JumpingSumoPiloting.c.o
 .debug_aranges
                0x000000a0       0x50 /home/ncs/CAPSTONE/out/arsdk-native/build/JumpingSumoPiloting/obj/ihm.c.o

.debug_pubnames
 *(.debug_pubnames)

.debug_info     0x00000000     0x33c7
 *(.debug_info .gnu.linkonce.wi.*)
 .debug_info    0x00000000     0x2c00 /home/ncs/CAPSTONE/out/arsdk-native/build/JumpingSumoPiloting/obj/JumpingSumoPiloting.c.o
 .debug_info    0x00002c00      0x7c7 /home/ncs/CAPSTONE/out/arsdk-native/build/JumpingSumoPiloting/obj/ihm.c.o

.debug_abbrev   0x00000000      0x6bf
 *(.debug_abbrev)
 .debug_abbrev  0x00000000      0x412 /home/ncs/CAPSTONE/out/arsdk-native/build/JumpingSumoPiloting/obj/JumpingSumoPiloting.c.o
 .debug_abbrev  0x00000412      0x2ad /home/ncs/CAPSTONE/out/arsdk-native/build/JumpingSumoPiloting/obj/ihm.c.o

.debug_line     0x00000000      0x8f2
 *(.debug_line .debug_line.* .debug_line_end)
 .debug_line    0x00000000      0x713 /home/ncs/CAPSTONE/out/arsdk-native/build/JumpingSumoPiloting/obj/JumpingSumoPiloting.c.o
 .debug_line    0x00000713      0x1df /home/ncs/CAPSTONE/out/arsdk-native/build/JumpingSumoPiloting/obj/ihm.c.o

.debug_frame    0x00000000      0x308
 *(.debug_frame)
 .debug_frame   0x00000000      0x20c /home/ncs/CAPSTONE/out/arsdk-native/build/JumpingSumoPiloting/obj/JumpingSumoPiloting.c.o
 .debug_frame   0x0000020c       0xfc /home/ncs/CAPSTONE/out/arsdk-native/build/JumpingSumoPiloting/obj/ihm.c.o

.debug_str      0x00000000     0x24c6
 *(.debug_str)
 .debug_str     0x00000000     0x2413 /home/ncs/CAPSTONE/out/arsdk-native/build/JumpingSumoPiloting/obj/JumpingSumoPiloting.c.o
                               0x2526 (size before relaxing)
 .debug_str     0x00002413       0xb3 /home/ncs/CAPSTONE/out/arsdk-native/build/JumpingSumoPiloting/obj/ihm.c.o
                                0x58a (size before relaxing)

.debug_loc      0x00000000      0xce3
 *(.debug_loc)
 .debug_loc     0x00000000      0xa8a /home/ncs/CAPSTONE/out/arsdk-native/build/JumpingSumoPiloting/obj/JumpingSumoPiloting.c.o
 .debug_loc     0x00000a8a      0x259 /home/ncs/CAPSTONE/out/arsdk-native/build/JumpingSumoPiloting/obj/ihm.c.o

.debug_macinfo
 *(.debug_macinfo)

.debug_weaknames
 *(.debug_weaknames)

.debug_funcnames
 *(.debug_funcnames)

.debug_typenames
 *(.debug_typenames)

.debug_varnames
 *(.debug_varnames)

.debug_pubtypes
 *(.debug_pubtypes)

.debug_ranges   0x00000000      0x1e8
 *(.debug_ranges)
 .debug_ranges  0x00000000      0x1a8 /home/ncs/CAPSTONE/out/arsdk-native/build/JumpingSumoPiloting/obj/JumpingSumoPiloting.c.o
 .debug_ranges  0x000001a8       0x40 /home/ncs/CAPSTONE/out/arsdk-native/build/JumpingSumoPiloting/obj/ihm.c.o

.debug_macro
 *(.debug_macro)

.gnu.attributes
 *(.gnu.attributes)

.note.gnu.arm.ident
 *(.note.gnu.arm.ident)

/DISCARD/
 *(.note.GNU-stack)
 *(.gnu_debuglink)
 *(.gnu.lto_*)
OUTPUT(out/arsdk-native/build/JumpingSumoPiloting/JumpingSumoPiloting elf32-littlearm)
