
As-needed library included to satisfy reference by file (symbol)

libarsal.so                   /home/ncs/CAPSTONE/out/arsdk-native/build/libARCommands/obj/gen/Sources/ARCOMMANDS_Decoder.c.o (ARSAL_Mutex_Destroy)
libc.so.6                     /home/ncs/CAPSTONE/out/arsdk-native/build/libARCommands/obj/gen/Sources/ARCOMMANDS_ReadWrite.c.o (strcpy@@GLIBC_2.4)
ld-linux-armhf.so.3           /home/ncs/CAPSTONE/out/arsdk-native/build/libARCommands/obj/Sources/ARCOMMANDS_Version.c.o (__stack_chk_guard@@GLIBC_2.4)

Discarded input sections

 .data          0x00000000        0x0 /usr/lib/gcc/arm-linux-gnueabihf/5/../../../arm-linux-gnueabihf/crti.o
 .bss           0x00000000        0x0 /usr/lib/gcc/arm-linux-gnueabihf/5/../../../arm-linux-gnueabihf/crti.o
 .note.GNU-stack
                0x00000000        0x0 /usr/lib/gcc/arm-linux-gnueabihf/5/../../../arm-linux-gnueabihf/crti.o
 .data          0x00000000        0x0 /usr/lib/gcc/arm-linux-gnueabihf/5/crtbeginS.o
 .note.GNU-stack
                0x00000000        0x0 /usr/lib/gcc/arm-linux-gnueabihf/5/crtbeginS.o
 .text          0x00000000        0x0 /home/ncs/CAPSTONE/out/arsdk-native/build/libARCommands/obj/Sources/ARCOMMANDS_Version.c.o
 .data          0x00000000        0x0 /home/ncs/CAPSTONE/out/arsdk-native/build/libARCommands/obj/Sources/ARCOMMANDS_Version.c.o
 .bss           0x00000000        0x0 /home/ncs/CAPSTONE/out/arsdk-native/build/libARCommands/obj/Sources/ARCOMMANDS_Version.c.o
 .note.GNU-stack
                0x00000000        0x0 /home/ncs/CAPSTONE/out/arsdk-native/build/libARCommands/obj/Sources/ARCOMMANDS_Version.c.o
 .text          0x00000000        0x0 /home/ncs/CAPSTONE/out/arsdk-native/build/libARCommands/obj/gen/Sources/ARCOMMANDS_Generator.c.o
 .data          0x00000000        0x0 /home/ncs/CAPSTONE/out/arsdk-native/build/libARCommands/obj/gen/Sources/ARCOMMANDS_Generator.c.o
 .bss           0x00000000        0x0 /home/ncs/CAPSTONE/out/arsdk-native/build/libARCommands/obj/gen/Sources/ARCOMMANDS_Generator.c.o
 .note.GNU-stack
                0x00000000        0x0 /home/ncs/CAPSTONE/out/arsdk-native/build/libARCommands/obj/gen/Sources/ARCOMMANDS_Generator.c.o
 .text          0x00000000        0x0 /home/ncs/CAPSTONE/out/arsdk-native/build/libARCommands/obj/gen/Sources/ARCOMMANDS_Decoder.c.o
 .data          0x00000000        0x0 /home/ncs/CAPSTONE/out/arsdk-native/build/libARCommands/obj/gen/Sources/ARCOMMANDS_Decoder.c.o
 .note.GNU-stack
                0x00000000        0x0 /home/ncs/CAPSTONE/out/arsdk-native/build/libARCommands/obj/gen/Sources/ARCOMMANDS_Decoder.c.o
 .text          0x00000000        0x0 /home/ncs/CAPSTONE/out/arsdk-native/build/libARCommands/obj/gen/Sources/ARCOMMANDS_Filter.c.o
 .data          0x00000000        0x0 /home/ncs/CAPSTONE/out/arsdk-native/build/libARCommands/obj/gen/Sources/ARCOMMANDS_Filter.c.o
 .bss           0x00000000        0x0 /home/ncs/CAPSTONE/out/arsdk-native/build/libARCommands/obj/gen/Sources/ARCOMMANDS_Filter.c.o
 .note.GNU-stack
                0x00000000        0x0 /home/ncs/CAPSTONE/out/arsdk-native/build/libARCommands/obj/gen/Sources/ARCOMMANDS_Filter.c.o
 .text          0x00000000        0x0 /home/ncs/CAPSTONE/out/arsdk-native/build/libARCommands/obj/gen/Sources/ARCOMMANDS_ReadWrite.c.o
 .data          0x00000000        0x0 /home/ncs/CAPSTONE/out/arsdk-native/build/libARCommands/obj/gen/Sources/ARCOMMANDS_ReadWrite.c.o
 .bss           0x00000000        0x0 /home/ncs/CAPSTONE/out/arsdk-native/build/libARCommands/obj/gen/Sources/ARCOMMANDS_ReadWrite.c.o
 .note.GNU-stack
                0x00000000        0x0 /home/ncs/CAPSTONE/out/arsdk-native/build/libARCommands/obj/gen/Sources/ARCOMMANDS_ReadWrite.c.o
 .text          0x00000000        0x0 /usr/lib/gcc/arm-linux-gnueabihf/5/crtendS.o
 .data          0x00000000        0x0 /usr/lib/gcc/arm-linux-gnueabihf/5/crtendS.o
 .bss           0x00000000        0x0 /usr/lib/gcc/arm-linux-gnueabihf/5/crtendS.o
 .note.GNU-stack
                0x00000000        0x0 /usr/lib/gcc/arm-linux-gnueabihf/5/crtendS.o
 .text          0x00000000        0x0 /usr/lib/gcc/arm-linux-gnueabihf/5/../../../arm-linux-gnueabihf/crtn.o
 .data          0x00000000        0x0 /usr/lib/gcc/arm-linux-gnueabihf/5/../../../arm-linux-gnueabihf/crtn.o
 .bss           0x00000000        0x0 /usr/lib/gcc/arm-linux-gnueabihf/5/../../../arm-linux-gnueabihf/crtn.o
 .note.GNU-stack
                0x00000000        0x0 /usr/lib/gcc/arm-linux-gnueabihf/5/../../../arm-linux-gnueabihf/crtn.o

Memory Configuration

Name             Origin             Length             Attributes
*default*        0x00000000         0xffffffff

Linker script and memory map

LOAD /usr/lib/gcc/arm-linux-gnueabihf/5/../../../arm-linux-gnueabihf/crti.o
LOAD /usr/lib/gcc/arm-linux-gnueabihf/5/crtbeginS.o
LOAD /home/ncs/CAPSTONE/out/arsdk-native/build/libARCommands/obj/Sources/ARCOMMANDS_Version.c.o
LOAD /home/ncs/CAPSTONE/out/arsdk-native/build/libARCommands/obj/gen/Sources/ARCOMMANDS_Generator.c.o
LOAD /home/ncs/CAPSTONE/out/arsdk-native/build/libARCommands/obj/gen/Sources/ARCOMMANDS_Decoder.c.o
LOAD /home/ncs/CAPSTONE/out/arsdk-native/build/libARCommands/obj/gen/Sources/ARCOMMANDS_Filter.c.o
LOAD /home/ncs/CAPSTONE/out/arsdk-native/build/libARCommands/obj/gen/Sources/ARCOMMANDS_ReadWrite.c.o
LOAD /home/ncs/CAPSTONE/out/arsdk-native/staging/usr/lib/libarsal.so
LOAD /usr/lib/gcc/arm-linux-gnueabihf/5/../../../arm-linux-gnueabihf/librt.so
LOAD /usr/lib/gcc/arm-linux-gnueabihf/5/libstdc++.so
LOAD /usr/lib/gcc/arm-linux-gnueabihf/5/../../../arm-linux-gnueabihf/libm.so
LOAD /usr/lib/gcc/arm-linux-gnueabihf/5/libgcc_s.so
START GROUP
LOAD /usr/lib/gcc/arm-linux-gnueabihf/5/libgcc_s.so.1
LOAD /usr/lib/gcc/arm-linux-gnueabihf/5/libgcc.a
END GROUP
LOAD /usr/lib/gcc/arm-linux-gnueabihf/5/../../../arm-linux-gnueabihf/libpthread.so
START GROUP
LOAD /lib/arm-linux-gnueabihf/libpthread.so.0
LOAD /usr/lib/arm-linux-gnueabihf/libpthread_nonshared.a
END GROUP
LOAD /usr/lib/gcc/arm-linux-gnueabihf/5/../../../arm-linux-gnueabihf/libc.so
START GROUP
LOAD /lib/arm-linux-gnueabihf/libc.so.6
LOAD /usr/lib/arm-linux-gnueabihf/libc_nonshared.a
LOAD /lib/arm-linux-gnueabihf/ld-linux-armhf.so.3
END GROUP
LOAD /usr/lib/gcc/arm-linux-gnueabihf/5/libgcc_s.so
START GROUP
LOAD /usr/lib/gcc/arm-linux-gnueabihf/5/libgcc_s.so.1
LOAD /usr/lib/gcc/arm-linux-gnueabihf/5/libgcc.a
END GROUP
LOAD /usr/lib/gcc/arm-linux-gnueabihf/5/crtendS.o
LOAD /usr/lib/gcc/arm-linux-gnueabihf/5/../../../arm-linux-gnueabihf/crtn.o
                0x000000f4                . = (0x0 + SIZEOF_HEADERS)

.note.gnu.build-id
                0x000000f4       0x24
 *(.note.gnu.build-id)
 .note.gnu.build-id
                0x000000f4       0x24 linker stubs

.hash
 *(.hash)

.gnu.hash       0x00000118     0x4b3c
 *(.gnu.hash)
 .gnu.hash      0x00000118     0x4b3c /usr/lib/gcc/arm-linux-gnueabihf/5/../../../arm-linux-gnueabihf/crti.o

.dynsym         0x00004c54     0x8e30
 *(.dynsym)
 .dynsym        0x00004c54     0x8e30 /usr/lib/gcc/arm-linux-gnueabihf/5/../../../arm-linux-gnueabihf/crti.o

.dynstr         0x0000da84    0x233a6
 *(.dynstr)
 .dynstr        0x0000da84    0x233a6 /usr/lib/gcc/arm-linux-gnueabihf/5/../../../arm-linux-gnueabihf/crti.o

.gnu.version    0x00030e2a     0x11c6
 *(.gnu.version)
 .gnu.version   0x00030e2a     0x11c6 /usr/lib/gcc/arm-linux-gnueabihf/5/../../../arm-linux-gnueabihf/crti.o

.gnu.version_d  0x00031ff0        0x0
 *(.gnu.version_d)
 .gnu.version_d
                0x00031ff0        0x0 /usr/lib/gcc/arm-linux-gnueabihf/5/../../../arm-linux-gnueabihf/crti.o

.gnu.version_r  0x00031ff0       0x50
 *(.gnu.version_r)
 .gnu.version_r
                0x00031ff0       0x50 /usr/lib/gcc/arm-linux-gnueabihf/5/../../../arm-linux-gnueabihf/crti.o

.rel.dyn        0x00032040       0x48
 *(.rel.init)
 *(.rel.text .rel.text.* .rel.gnu.linkonce.t.*)
 .rel.text      0x00032040        0x0 /usr/lib/gcc/arm-linux-gnueabihf/5/../../../arm-linux-gnueabihf/crti.o
 *(.rel.fini)
 *(.rel.rodata .rel.rodata.* .rel.gnu.linkonce.r.*)
 *(.rel.data.rel.ro .rel.data.rel.ro.* .rel.gnu.linkonce.d.rel.ro.*)
 *(.rel.data .rel.data.* .rel.gnu.linkonce.d.*)
 .rel.data.rel.local
                0x00032040        0x8 /usr/lib/gcc/arm-linux-gnueabihf/5/../../../arm-linux-gnueabihf/crti.o
 *(.rel.tdata .rel.tdata.* .rel.gnu.linkonce.td.*)
 *(.rel.tbss .rel.tbss.* .rel.gnu.linkonce.tb.*)
 *(.rel.ctors)
 *(.rel.dtors)
 *(.rel.got)
 .rel.got       0x00032048       0x30 /usr/lib/gcc/arm-linux-gnueabihf/5/../../../arm-linux-gnueabihf/crti.o
 *(.rel.bss .rel.bss.* .rel.gnu.linkonce.b.*)
 *(.rel.iplt)
 .rel.iplt      0x00032078        0x0 /usr/lib/gcc/arm-linux-gnueabihf/5/../../../arm-linux-gnueabihf/crti.o
 .rel.fini_array
                0x00032078        0x8 /usr/lib/gcc/arm-linux-gnueabihf/5/../../../arm-linux-gnueabihf/crti.o
 .rel.init_array
                0x00032080        0x8 /usr/lib/gcc/arm-linux-gnueabihf/5/../../../arm-linux-gnueabihf/crti.o

.rela.dyn
 *(.rela.init)
 *(.rela.text .rela.text.* .rela.gnu.linkonce.t.*)
 *(.rela.fini)
 *(.rela.rodata .rela.rodata.* .rela.gnu.linkonce.r.*)
 *(.rela.data .rela.data.* .rela.gnu.linkonce.d.*)
 *(.rela.tdata .rela.tdata.* .rela.gnu.linkonce.td.*)
 *(.rela.tbss .rela.tbss.* .rela.gnu.linkonce.tb.*)
 *(.rela.ctors)
 *(.rela.dtors)
 *(.rela.got)
 *(.rela.bss .rela.bss.* .rela.gnu.linkonce.b.*)
 *(.rela.iplt)

.rel.plt        0x00032088      0x150
 *(.rel.plt)
 .rel.plt       0x00032088      0x150 /usr/lib/gcc/arm-linux-gnueabihf/5/../../../arm-linux-gnueabihf/crti.o

.rela.plt
 *(.rela.plt)

.init           0x000321d8        0xc
 *(SORT(.init))
 .init          0x000321d8        0x8 /usr/lib/gcc/arm-linux-gnueabihf/5/../../../arm-linux-gnueabihf/crti.o
                0x000321d8                _init
 .init          0x000321e0        0x4 /usr/lib/gcc/arm-linux-gnueabihf/5/../../../arm-linux-gnueabihf/crtn.o

.plt            0x000321e4      0x21c
 *(.plt)
 .plt           0x000321e4      0x21c /usr/lib/gcc/arm-linux-gnueabihf/5/../../../arm-linux-gnueabihf/crti.o

.iplt           0x00032400        0x0
 *(.iplt)
 .iplt          0x00032400        0x0 /usr/lib/gcc/arm-linux-gnueabihf/5/../../../arm-linux-gnueabihf/crti.o

.text           0x00032400    0x46d84
 *(.text.unlikely .text.*_unlikely .text.unlikely.*)
 *(.text.exit .text.exit.*)
 *(.text.startup .text.startup.*)
 *(.text.hot .text.hot.*)
 *(.text .stub .text.* .gnu.linkonce.t.*)
 .text          0x00032400       0x24 /usr/lib/gcc/arm-linux-gnueabihf/5/../../../arm-linux-gnueabihf/crti.o
 .text          0x00032424       0xd0 /usr/lib/gcc/arm-linux-gnueabihf/5/crtbeginS.o
 .text.ARCOMMANDS_Version_CompareVersions
                0x000324f4       0x1a /home/ncs/CAPSTONE/out/arsdk-native/build/libARCommands/obj/Sources/ARCOMMANDS_Version.c.o
                0x000324f4                ARCOMMANDS_Version_CompareVersions
 *fill*         0x0003250e        0x2 
 .text.ARCOMMANDS_Version_CompareVersionCodes
                0x00032510       0x84 /home/ncs/CAPSTONE/out/arsdk-native/build/libARCommands/obj/Sources/ARCOMMANDS_Version.c.o
                0x00032510                ARCOMMANDS_Version_CompareVersionCodes
 .text.ARCOMMANDS_Generator_GenerateGenericDefault
                0x00032594       0x4a /home/ncs/CAPSTONE/out/arsdk-native/build/libARCommands/obj/gen/Sources/ARCOMMANDS_Generator.c.o
                0x00032594                ARCOMMANDS_Generator_GenerateGenericDefault
 .text.ARCOMMANDS_Generator_GenerateARDrone3PilotingFlatTrim
                0x000325de       0x4a /home/ncs/CAPSTONE/out/arsdk-native/build/libARCommands/obj/gen/Sources/ARCOMMANDS_Generator.c.o
                0x000325de                ARCOMMANDS_Generator_GenerateARDrone3PilotingFlatTrim
 .text.ARCOMMANDS_Generator_GenerateARDrone3PilotingTakeOff
                0x00032628       0x4a /home/ncs/CAPSTONE/out/arsdk-native/build/libARCommands/obj/gen/Sources/ARCOMMANDS_Generator.c.o
                0x00032628                ARCOMMANDS_Generator_GenerateARDrone3PilotingTakeOff
 .text.ARCOMMANDS_Generator_GenerateARDrone3PilotingPCMD
                0x00032672       0xb4 /home/ncs/CAPSTONE/out/arsdk-native/build/libARCommands/obj/gen/Sources/ARCOMMANDS_Generator.c.o
                0x00032672                ARCOMMANDS_Generator_GenerateARDrone3PilotingPCMD
 .text.ARCOMMANDS_Generator_GenerateARDrone3PilotingLanding
                0x00032726       0x4a /home/ncs/CAPSTONE/out/arsdk-native/build/libARCommands/obj/gen/Sources/ARCOMMANDS_Generator.c.o
                0x00032726                ARCOMMANDS_Generator_GenerateARDrone3PilotingLanding
 .text.ARCOMMANDS_Generator_GenerateARDrone3PilotingEmergency
                0x00032770       0x4a /home/ncs/CAPSTONE/out/arsdk-native/build/libARCommands/obj/gen/Sources/ARCOMMANDS_Generator.c.o
                0x00032770                ARCOMMANDS_Generator_GenerateARDrone3PilotingEmergency
 .text.ARCOMMANDS_Generator_GenerateARDrone3PilotingNavigateHome
                0x000327ba       0x5c /home/ncs/CAPSTONE/out/arsdk-native/build/libARCommands/obj/gen/Sources/ARCOMMANDS_Generator.c.o
                0x000327ba                ARCOMMANDS_Generator_GenerateARDrone3PilotingNavigateHome
 .text.ARCOMMANDS_Generator_GenerateARDrone3PilotingAutoTakeOffMode
                0x00032816       0x5c /home/ncs/CAPSTONE/out/arsdk-native/build/libARCommands/obj/gen/Sources/ARCOMMANDS_Generator.c.o
                0x00032816                ARCOMMANDS_Generator_GenerateARDrone3PilotingAutoTakeOffMode
 .text.ARCOMMANDS_Generator_GenerateARDrone3PilotingMoveBy
                0x00032872       0xaa /home/ncs/CAPSTONE/out/arsdk-native/build/libARCommands/obj/gen/Sources/ARCOMMANDS_Generator.c.o
                0x00032872                ARCOMMANDS_Generator_GenerateARDrone3PilotingMoveBy
 .text.ARCOMMANDS_Generator_GenerateARDrone3PilotingUserTakeOff
                0x0003291c       0x5c /home/ncs/CAPSTONE/out/arsdk-native/build/libARCommands/obj/gen/Sources/ARCOMMANDS_Generator.c.o
                0x0003291c                ARCOMMANDS_Generator_GenerateARDrone3PilotingUserTakeOff
 .text.ARCOMMANDS_Generator_GenerateARDrone3PilotingCircle
                0x00032978       0x5c /home/ncs/CAPSTONE/out/arsdk-native/build/libARCommands/obj/gen/Sources/ARCOMMANDS_Generator.c.o
                0x00032978                ARCOMMANDS_Generator_GenerateARDrone3PilotingCircle
 .text.ARCOMMANDS_Generator_GenerateARDrone3AnimationsFlip
                0x000329d4       0x5c /home/ncs/CAPSTONE/out/arsdk-native/build/libARCommands/obj/gen/Sources/ARCOMMANDS_Generator.c.o
                0x000329d4                ARCOMMANDS_Generator_GenerateARDrone3AnimationsFlip
 .text.ARCOMMANDS_Generator_GenerateARDrone3CameraOrientation
                0x00032a30       0x6e /home/ncs/CAPSTONE/out/arsdk-native/build/libARCommands/obj/gen/Sources/ARCOMMANDS_Generator.c.o
                0x00032a30                ARCOMMANDS_Generator_GenerateARDrone3CameraOrientation
 .text.ARCOMMANDS_Generator_GenerateARDrone3MediaRecordPicture
                0x00032a9e       0x5c /home/ncs/CAPSTONE/out/arsdk-native/build/libARCommands/obj/gen/Sources/ARCOMMANDS_Generator.c.o
                0x00032a9e                ARCOMMANDS_Generator_GenerateARDrone3MediaRecordPicture
 .text.ARCOMMANDS_Generator_GenerateARDrone3MediaRecordVideo
                0x00032afa       0x6e /home/ncs/CAPSTONE/out/arsdk-native/build/libARCommands/obj/gen/Sources/ARCOMMANDS_Generator.c.o
                0x00032afa                ARCOMMANDS_Generator_GenerateARDrone3MediaRecordVideo
 .text.ARCOMMANDS_Generator_GenerateARDrone3MediaRecordPictureV2
                0x00032b68       0x4a /home/ncs/CAPSTONE/out/arsdk-native/build/libARCommands/obj/gen/Sources/ARCOMMANDS_Generator.c.o
                0x00032b68                ARCOMMANDS_Generator_GenerateARDrone3MediaRecordPictureV2
 .text.ARCOMMANDS_Generator_GenerateARDrone3MediaRecordVideoV2
                0x00032bb2       0x5c /home/ncs/CAPSTONE/out/arsdk-native/build/libARCommands/obj/gen/Sources/ARCOMMANDS_Generator.c.o
                0x00032bb2                ARCOMMANDS_Generator_GenerateARDrone3MediaRecordVideoV2
 .text.ARCOMMANDS_Generator_GenerateARDrone3NetworkWifiScan
                0x00032c0e       0x5c /home/ncs/CAPSTONE/out/arsdk-native/build/libARCommands/obj/gen/Sources/ARCOMMANDS_Generator.c.o
                0x00032c0e                ARCOMMANDS_Generator_GenerateARDrone3NetworkWifiScan
 .text.ARCOMMANDS_Generator_GenerateARDrone3NetworkWifiAuthChannel
                0x00032c6a       0x4a /home/ncs/CAPSTONE/out/arsdk-native/build/libARCommands/obj/gen/Sources/ARCOMMANDS_Generator.c.o
                0x00032c6a                ARCOMMANDS_Generator_GenerateARDrone3NetworkWifiAuthChannel
 .text.ARCOMMANDS_Generator_GenerateARDrone3PilotingSettingsMaxAltitude
                0x00032cb4       0x68 /home/ncs/CAPSTONE/out/arsdk-native/build/libARCommands/obj/gen/Sources/ARCOMMANDS_Generator.c.o
                0x00032cb4                ARCOMMANDS_Generator_GenerateARDrone3PilotingSettingsMaxAltitude
 .text.ARCOMMANDS_Generator_GenerateARDrone3PilotingSettingsMaxTilt
                0x00032d1c       0x68 /home/ncs/CAPSTONE/out/arsdk-native/build/libARCommands/obj/gen/Sources/ARCOMMANDS_Generator.c.o
                0x00032d1c                ARCOMMANDS_Generator_GenerateARDrone3PilotingSettingsMaxTilt
 .text.ARCOMMANDS_Generator_GenerateARDrone3PilotingSettingsAbsolutControl
                0x00032d84       0x5c /home/ncs/CAPSTONE/out/arsdk-native/build/libARCommands/obj/gen/Sources/ARCOMMANDS_Generator.c.o
                0x00032d84                ARCOMMANDS_Generator_GenerateARDrone3PilotingSettingsAbsolutControl
 .text.ARCOMMANDS_Generator_GenerateARDrone3PilotingSettingsMaxDistance
                0x00032de0       0x68 /home/ncs/CAPSTONE/out/arsdk-native/build/libARCommands/obj/gen/Sources/ARCOMMANDS_Generator.c.o
                0x00032de0                ARCOMMANDS_Generator_GenerateARDrone3PilotingSettingsMaxDistance
 .text.ARCOMMANDS_Generator_GenerateARDrone3PilotingSettingsNoFlyOverMaxDistance
                0x00032e48       0x5c /home/ncs/CAPSTONE/out/arsdk-native/build/libARCommands/obj/gen/Sources/ARCOMMANDS_Generator.c.o
                0x00032e48                ARCOMMANDS_Generator_GenerateARDrone3PilotingSettingsNoFlyOverMaxDistance
 .text.ARCOMMANDS_Generator_GenerateARDrone3PilotingSettingsSetAutonomousFlightMaxHorizontalSpeed
                0x00032ea4       0x68 /home/ncs/CAPSTONE/out/arsdk-native/build/libARCommands/obj/gen/Sources/ARCOMMANDS_Generator.c.o
                0x00032ea4                ARCOMMANDS_Generator_GenerateARDrone3PilotingSettingsSetAutonomousFlightMaxHorizontalSpeed
 .text.ARCOMMANDS_Generator_GenerateARDrone3PilotingSettingsSetAutonomousFlightMaxVerticalSpeed
                0x00032f0c       0x68 /home/ncs/CAPSTONE/out/arsdk-native/build/libARCommands/obj/gen/Sources/ARCOMMANDS_Generator.c.o
                0x00032f0c                ARCOMMANDS_Generator_GenerateARDrone3PilotingSettingsSetAutonomousFlightMaxVerticalSpeed
 .text.ARCOMMANDS_Generator_GenerateARDrone3PilotingSettingsSetAutonomousFlightMaxHorizontalAcceleration
                0x00032f74       0x68 /home/ncs/CAPSTONE/out/arsdk-native/build/libARCommands/obj/gen/Sources/ARCOMMANDS_Generator.c.o
                0x00032f74                ARCOMMANDS_Generator_GenerateARDrone3PilotingSettingsSetAutonomousFlightMaxHorizontalAcceleration
 .text.ARCOMMANDS_Generator_GenerateARDrone3PilotingSettingsSetAutonomousFlightMaxVerticalAcceleration
                0x00032fdc       0x68 /home/ncs/CAPSTONE/out/arsdk-native/build/libARCommands/obj/gen/Sources/ARCOMMANDS_Generator.c.o
                0x00032fdc                ARCOMMANDS_Generator_GenerateARDrone3PilotingSettingsSetAutonomousFlightMaxVerticalAcceleration
 .text.ARCOMMANDS_Generator_GenerateARDrone3PilotingSettingsSetAutonomousFlightMaxRotationSpeed
                0x00033044       0x68 /home/ncs/CAPSTONE/out/arsdk-native/build/libARCommands/obj/gen/Sources/ARCOMMANDS_Generator.c.o
                0x00033044                ARCOMMANDS_Generator_GenerateARDrone3PilotingSettingsSetAutonomousFlightMaxRotationSpeed
 .text.ARCOMMANDS_Generator_GenerateARDrone3PilotingSettingsBankedTurn
                0x000330ac       0x5c /home/ncs/CAPSTONE/out/arsdk-native/build/libARCommands/obj/gen/Sources/ARCOMMANDS_Generator.c.o
                0x000330ac                ARCOMMANDS_Generator_GenerateARDrone3PilotingSettingsBankedTurn
 .text.ARCOMMANDS_Generator_GenerateARDrone3PilotingSettingsMinAltitude
                0x00033108       0x68 /home/ncs/CAPSTONE/out/arsdk-native/build/libARCommands/obj/gen/Sources/ARCOMMANDS_Generator.c.o
                0x00033108                ARCOMMANDS_Generator_GenerateARDrone3PilotingSettingsMinAltitude
 .text.ARCOMMANDS_Generator_GenerateARDrone3PilotingSettingsCirclingDirection
                0x00033170       0x5c /home/ncs/CAPSTONE/out/arsdk-native/build/libARCommands/obj/gen/Sources/ARCOMMANDS_Generator.c.o
                0x00033170                ARCOMMANDS_Generator_GenerateARDrone3PilotingSettingsCirclingDirection
 .text.ARCOMMANDS_Generator_GenerateARDrone3PilotingSettingsCirclingRadius
                0x000331cc       0x5c /home/ncs/CAPSTONE/out/arsdk-native/build/libARCommands/obj/gen/Sources/ARCOMMANDS_Generator.c.o
                0x000331cc                ARCOMMANDS_Generator_GenerateARDrone3PilotingSettingsCirclingRadius
 .text.ARCOMMANDS_Generator_GenerateARDrone3PilotingSettingsCirclingAltitude
                0x00033228       0x5c /home/ncs/CAPSTONE/out/arsdk-native/build/libARCommands/obj/gen/Sources/ARCOMMANDS_Generator.c.o
                0x00033228                ARCOMMANDS_Generator_GenerateARDrone3PilotingSettingsCirclingAltitude
 .text.ARCOMMANDS_Generator_GenerateARDrone3PilotingSettingsPitchMode
                0x00033284       0x5c /home/ncs/CAPSTONE/out/arsdk-native/build/libARCommands/obj/gen/Sources/ARCOMMANDS_Generator.c.o
                0x00033284                ARCOMMANDS_Generator_GenerateARDrone3PilotingSettingsPitchMode
 .text.ARCOMMANDS_Generator_GenerateARDrone3SpeedSettingsMaxVerticalSpeed
                0x000332e0       0x68 /home/ncs/CAPSTONE/out/arsdk-native/build/libARCommands/obj/gen/Sources/ARCOMMANDS_Generator.c.o
                0x000332e0                ARCOMMANDS_Generator_GenerateARDrone3SpeedSettingsMaxVerticalSpeed
 .text.ARCOMMANDS_Generator_GenerateARDrone3SpeedSettingsMaxRotationSpeed
                0x00033348       0x68 /home/ncs/CAPSTONE/out/arsdk-native/build/libARCommands/obj/gen/Sources/ARCOMMANDS_Generator.c.o
                0x00033348                ARCOMMANDS_Generator_GenerateARDrone3SpeedSettingsMaxRotationSpeed
 .text.ARCOMMANDS_Generator_GenerateARDrone3SpeedSettingsHullProtection
                0x000333b0       0x5c /home/ncs/CAPSTONE/out/arsdk-native/build/libARCommands/obj/gen/Sources/ARCOMMANDS_Generator.c.o
                0x000333b0                ARCOMMANDS_Generator_GenerateARDrone3SpeedSettingsHullProtection
 .text.ARCOMMANDS_Generator_GenerateARDrone3SpeedSettingsOutdoor
                0x0003340c       0x5c /home/ncs/CAPSTONE/out/arsdk-native/build/libARCommands/obj/gen/Sources/ARCOMMANDS_Generator.c.o
                0x0003340c                ARCOMMANDS_Generator_GenerateARDrone3SpeedSettingsOutdoor
 .text.ARCOMMANDS_Generator_GenerateARDrone3SpeedSettingsMaxPitchRollRotationSpeed
                0x00033468       0x68 /home/ncs/CAPSTONE/out/arsdk-native/build/libARCommands/obj/gen/Sources/ARCOMMANDS_Generator.c.o
                0x00033468                ARCOMMANDS_Generator_GenerateARDrone3SpeedSettingsMaxPitchRollRotationSpeed
 .text.ARCOMMANDS_Generator_GenerateARDrone3NetworkSettingsWifiSelection
                0x000334d0       0x7e /home/ncs/CAPSTONE/out/arsdk-native/build/libARCommands/obj/gen/Sources/ARCOMMANDS_Generator.c.o
                0x000334d0                ARCOMMANDS_Generator_GenerateARDrone3NetworkSettingsWifiSelection
 .text.ARCOMMANDS_Generator_GenerateARDrone3NetworkSettingsWifiSecurity
                0x0003354e       0x88 /home/ncs/CAPSTONE/out/arsdk-native/build/libARCommands/obj/gen/Sources/ARCOMMANDS_Generator.c.o
                0x0003354e                ARCOMMANDS_Generator_GenerateARDrone3NetworkSettingsWifiSecurity
 .text.ARCOMMANDS_Generator_GenerateARDrone3PictureSettingsPictureFormatSelection
                0x000335d6       0x5c /home/ncs/CAPSTONE/out/arsdk-native/build/libARCommands/obj/gen/Sources/ARCOMMANDS_Generator.c.o
                0x000335d6                ARCOMMANDS_Generator_GenerateARDrone3PictureSettingsPictureFormatSelection
 .text.ARCOMMANDS_Generator_GenerateARDrone3PictureSettingsAutoWhiteBalanceSelection
                0x00033632       0x5c /home/ncs/CAPSTONE/out/arsdk-native/build/libARCommands/obj/gen/Sources/ARCOMMANDS_Generator.c.o
                0x00033632                ARCOMMANDS_Generator_GenerateARDrone3PictureSettingsAutoWhiteBalanceSelection
 .text.ARCOMMANDS_Generator_GenerateARDrone3PictureSettingsExpositionSelection
                0x0003368e       0x68 /home/ncs/CAPSTONE/out/arsdk-native/build/libARCommands/obj/gen/Sources/ARCOMMANDS_Generator.c.o
                0x0003368e                ARCOMMANDS_Generator_GenerateARDrone3PictureSettingsExpositionSelection
 .text.ARCOMMANDS_Generator_GenerateARDrone3PictureSettingsSaturationSelection
                0x000336f6       0x68 /home/ncs/CAPSTONE/out/arsdk-native/build/libARCommands/obj/gen/Sources/ARCOMMANDS_Generator.c.o
                0x000336f6                ARCOMMANDS_Generator_GenerateARDrone3PictureSettingsSaturationSelection
 .text.ARCOMMANDS_Generator_GenerateARDrone3PictureSettingsTimelapseSelection
                0x0003375e       0x7a /home/ncs/CAPSTONE/out/arsdk-native/build/libARCommands/obj/gen/Sources/ARCOMMANDS_Generator.c.o
                0x0003375e                ARCOMMANDS_Generator_GenerateARDrone3PictureSettingsTimelapseSelection
 .text.ARCOMMANDS_Generator_GenerateARDrone3PictureSettingsVideoAutorecordSelection
                0x000337d8       0x6e /home/ncs/CAPSTONE/out/arsdk-native/build/libARCommands/obj/gen/Sources/ARCOMMANDS_Generator.c.o
                0x000337d8                ARCOMMANDS_Generator_GenerateARDrone3PictureSettingsVideoAutorecordSelection
 .text.ARCOMMANDS_Generator_GenerateARDrone3PictureSettingsVideoStabilizationMode
                0x00033846       0x5c /home/ncs/CAPSTONE/out/arsdk-native/build/libARCommands/obj/gen/Sources/ARCOMMANDS_Generator.c.o
                0x00033846                ARCOMMANDS_Generator_GenerateARDrone3PictureSettingsVideoStabilizationMode
 .text.ARCOMMANDS_Generator_GenerateARDrone3PictureSettingsVideoRecordingMode
                0x000338a2       0x5c /home/ncs/CAPSTONE/out/arsdk-native/build/libARCommands/obj/gen/Sources/ARCOMMANDS_Generator.c.o
                0x000338a2                ARCOMMANDS_Generator_GenerateARDrone3PictureSettingsVideoRecordingMode
 .text.ARCOMMANDS_Generator_GenerateARDrone3PictureSettingsVideoFramerate
                0x000338fe       0x5c /home/ncs/CAPSTONE/out/arsdk-native/build/libARCommands/obj/gen/Sources/ARCOMMANDS_Generator.c.o
                0x000338fe                ARCOMMANDS_Generator_GenerateARDrone3PictureSettingsVideoFramerate
 .text.ARCOMMANDS_Generator_GenerateARDrone3PictureSettingsVideoResolutions
                0x0003395a       0x5c /home/ncs/CAPSTONE/out/arsdk-native/build/libARCommands/obj/gen/Sources/ARCOMMANDS_Generator.c.o
                0x0003395a                ARCOMMANDS_Generator_GenerateARDrone3PictureSettingsVideoResolutions
 .text.ARCOMMANDS_Generator_GenerateARDrone3MediaStreamingVideoEnable
                0x000339b6       0x5c /home/ncs/CAPSTONE/out/arsdk-native/build/libARCommands/obj/gen/Sources/ARCOMMANDS_Generator.c.o
                0x000339b6                ARCOMMANDS_Generator_GenerateARDrone3MediaStreamingVideoEnable
 .text.ARCOMMANDS_Generator_GenerateARDrone3MediaStreamingVideoStreamMode
                0x00033a12       0x5c /home/ncs/CAPSTONE/out/arsdk-native/build/libARCommands/obj/gen/Sources/ARCOMMANDS_Generator.c.o
                0x00033a12                ARCOMMANDS_Generator_GenerateARDrone3MediaStreamingVideoStreamMode
 .text.ARCOMMANDS_Generator_GenerateARDrone3GPSSettingsSetHome
                0x00033a6e       0x94 /home/ncs/CAPSTONE/out/arsdk-native/build/libARCommands/obj/gen/Sources/ARCOMMANDS_Generator.c.o
                0x00033a6e                ARCOMMANDS_Generator_GenerateARDrone3GPSSettingsSetHome
 .text.ARCOMMANDS_Generator_GenerateARDrone3GPSSettingsResetHome
                0x00033b02       0x4a /home/ncs/CAPSTONE/out/arsdk-native/build/libARCommands/obj/gen/Sources/ARCOMMANDS_Generator.c.o
                0x00033b02                ARCOMMANDS_Generator_GenerateARDrone3GPSSettingsResetHome
 .text.ARCOMMANDS_Generator_GenerateARDrone3GPSSettingsSendControllerGPS
                0x00033b4c       0xc0 /home/ncs/CAPSTONE/out/arsdk-native/build/libARCommands/obj/gen/Sources/ARCOMMANDS_Generator.c.o
                0x00033b4c                ARCOMMANDS_Generator_GenerateARDrone3GPSSettingsSendControllerGPS
 .text.ARCOMMANDS_Generator_GenerateARDrone3GPSSettingsHomeType
                0x00033c0c       0x5c /home/ncs/CAPSTONE/out/arsdk-native/build/libARCommands/obj/gen/Sources/ARCOMMANDS_Generator.c.o
                0x00033c0c                ARCOMMANDS_Generator_GenerateARDrone3GPSSettingsHomeType
 .text.ARCOMMANDS_Generator_GenerateARDrone3GPSSettingsReturnHomeDelay
                0x00033c68       0x5c /home/ncs/CAPSTONE/out/arsdk-native/build/libARCommands/obj/gen/Sources/ARCOMMANDS_Generator.c.o
                0x00033c68                ARCOMMANDS_Generator_GenerateARDrone3GPSSettingsReturnHomeDelay
 .text.ARCOMMANDS_Generator_GenerateARDrone3AntiflickeringElectricFrequency
                0x00033cc4       0x5c /home/ncs/CAPSTONE/out/arsdk-native/build/libARCommands/obj/gen/Sources/ARCOMMANDS_Generator.c.o
                0x00033cc4                ARCOMMANDS_Generator_GenerateARDrone3AntiflickeringElectricFrequency
 .text.ARCOMMANDS_Generator_GenerateARDrone3AntiflickeringSetMode
                0x00033d20       0x5c /home/ncs/CAPSTONE/out/arsdk-native/build/libARCommands/obj/gen/Sources/ARCOMMANDS_Generator.c.o
                0x00033d20                ARCOMMANDS_Generator_GenerateARDrone3AntiflickeringSetMode
 .text.ARCOMMANDS_Generator_GenerateARDrone3MediaRecordStatePictureStateChanged
                0x00033d7c       0x6e /home/ncs/CAPSTONE/out/arsdk-native/build/libARCommands/obj/gen/Sources/ARCOMMANDS_Generator.c.o
                0x00033d7c                ARCOMMANDS_Generator_GenerateARDrone3MediaRecordStatePictureStateChanged
 .text.ARCOMMANDS_Generator_GenerateARDrone3MediaRecordStateVideoStateChanged
                0x00033dea       0x6e /home/ncs/CAPSTONE/out/arsdk-native/build/libARCommands/obj/gen/Sources/ARCOMMANDS_Generator.c.o
                0x00033dea                ARCOMMANDS_Generator_GenerateARDrone3MediaRecordStateVideoStateChanged
 .text.ARCOMMANDS_Generator_GenerateARDrone3MediaRecordStatePictureStateChangedV2
                0x00033e58       0x6c /home/ncs/CAPSTONE/out/arsdk-native/build/libARCommands/obj/gen/Sources/ARCOMMANDS_Generator.c.o
                0x00033e58                ARCOMMANDS_Generator_GenerateARDrone3MediaRecordStatePictureStateChangedV2
 .text.ARCOMMANDS_Generator_GenerateARDrone3MediaRecordStateVideoStateChangedV2
                0x00033ec4       0x6c /home/ncs/CAPSTONE/out/arsdk-native/build/libARCommands/obj/gen/Sources/ARCOMMANDS_Generator.c.o
                0x00033ec4                ARCOMMANDS_Generator_GenerateARDrone3MediaRecordStateVideoStateChangedV2
 .text.ARCOMMANDS_Generator_GenerateARDrone3MediaRecordStateVideoResolutionState
                0x00033f30       0x6c /home/ncs/CAPSTONE/out/arsdk-native/build/libARCommands/obj/gen/Sources/ARCOMMANDS_Generator.c.o
                0x00033f30                ARCOMMANDS_Generator_GenerateARDrone3MediaRecordStateVideoResolutionState
 .text.ARCOMMANDS_Generator_GenerateARDrone3MediaRecordEventPictureEventChanged
                0x00033f9c       0x6c /home/ncs/CAPSTONE/out/arsdk-native/build/libARCommands/obj/gen/Sources/ARCOMMANDS_Generator.c.o
                0x00033f9c                ARCOMMANDS_Generator_GenerateARDrone3MediaRecordEventPictureEventChanged
 .text.ARCOMMANDS_Generator_GenerateARDrone3MediaRecordEventVideoEventChanged
                0x00034008       0x6c /home/ncs/CAPSTONE/out/arsdk-native/build/libARCommands/obj/gen/Sources/ARCOMMANDS_Generator.c.o
                0x00034008                ARCOMMANDS_Generator_GenerateARDrone3MediaRecordEventVideoEventChanged
 .text.ARCOMMANDS_Generator_GenerateARDrone3PilotingStateFlatTrimChanged
                0x00034074       0x4a /home/ncs/CAPSTONE/out/arsdk-native/build/libARCommands/obj/gen/Sources/ARCOMMANDS_Generator.c.o
                0x00034074                ARCOMMANDS_Generator_GenerateARDrone3PilotingStateFlatTrimChanged
 .text.ARCOMMANDS_Generator_GenerateARDrone3PilotingStateFlyingStateChanged
                0x000340be       0x5c /home/ncs/CAPSTONE/out/arsdk-native/build/libARCommands/obj/gen/Sources/ARCOMMANDS_Generator.c.o
                0x000340be                ARCOMMANDS_Generator_GenerateARDrone3PilotingStateFlyingStateChanged
 .text.ARCOMMANDS_Generator_GenerateARDrone3PilotingStateAlertStateChanged
                0x0003411a       0x5c /home/ncs/CAPSTONE/out/arsdk-native/build/libARCommands/obj/gen/Sources/ARCOMMANDS_Generator.c.o
                0x0003411a                ARCOMMANDS_Generator_GenerateARDrone3PilotingStateAlertStateChanged
 .text.ARCOMMANDS_Generator_GenerateARDrone3PilotingStateNavigateHomeStateChanged
                0x00034176       0x6c /home/ncs/CAPSTONE/out/arsdk-native/build/libARCommands/obj/gen/Sources/ARCOMMANDS_Generator.c.o
                0x00034176                ARCOMMANDS_Generator_GenerateARDrone3PilotingStateNavigateHomeStateChanged
 .text.ARCOMMANDS_Generator_GenerateARDrone3PilotingStatePositionChanged
                0x000341e2       0x94 /home/ncs/CAPSTONE/out/arsdk-native/build/libARCommands/obj/gen/Sources/ARCOMMANDS_Generator.c.o
                0x000341e2                ARCOMMANDS_Generator_GenerateARDrone3PilotingStatePositionChanged
 .text.ARCOMMANDS_Generator_GenerateARDrone3PilotingStateSpeedChanged
                0x00034276       0x94 /home/ncs/CAPSTONE/out/arsdk-native/build/libARCommands/obj/gen/Sources/ARCOMMANDS_Generator.c.o
                0x00034276                ARCOMMANDS_Generator_GenerateARDrone3PilotingStateSpeedChanged
 .text.ARCOMMANDS_Generator_GenerateARDrone3PilotingStateAttitudeChanged
                0x0003430a       0x94 /home/ncs/CAPSTONE/out/arsdk-native/build/libARCommands/obj/gen/Sources/ARCOMMANDS_Generator.c.o
                0x0003430a                ARCOMMANDS_Generator_GenerateARDrone3PilotingStateAttitudeChanged
 .text.ARCOMMANDS_Generator_GenerateARDrone3PilotingStateAutoTakeOffModeChanged
                0x0003439e       0x5c /home/ncs/CAPSTONE/out/arsdk-native/build/libARCommands/obj/gen/Sources/ARCOMMANDS_Generator.c.o
                0x0003439e                ARCOMMANDS_Generator_GenerateARDrone3PilotingStateAutoTakeOffModeChanged
 .text.ARCOMMANDS_Generator_GenerateARDrone3PilotingStateAltitudeChanged
                0x000343fa       0x68 /home/ncs/CAPSTONE/out/arsdk-native/build/libARCommands/obj/gen/Sources/ARCOMMANDS_Generator.c.o
                0x000343fa                ARCOMMANDS_Generator_GenerateARDrone3PilotingStateAltitudeChanged
 .text.ARCOMMANDS_Generator_GenerateARDrone3PilotingStateGpsLocationChanged
                0x00034462       0xca /home/ncs/CAPSTONE/out/arsdk-native/build/libARCommands/obj/gen/Sources/ARCOMMANDS_Generator.c.o
                0x00034462                ARCOMMANDS_Generator_GenerateARDrone3PilotingStateGpsLocationChanged
 .text.ARCOMMANDS_Generator_GenerateARDrone3PilotingStateLandingStateChanged
                0x0003452c       0x5c /home/ncs/CAPSTONE/out/arsdk-native/build/libARCommands/obj/gen/Sources/ARCOMMANDS_Generator.c.o
                0x0003452c                ARCOMMANDS_Generator_GenerateARDrone3PilotingStateLandingStateChanged
 .text.ARCOMMANDS_Generator_GenerateARDrone3PilotingEventMoveByEnd
                0x00034588       0xbc /home/ncs/CAPSTONE/out/arsdk-native/build/libARCommands/obj/gen/Sources/ARCOMMANDS_Generator.c.o
                0x00034588                ARCOMMANDS_Generator_GenerateARDrone3PilotingEventMoveByEnd
 .text.ARCOMMANDS_Generator_GenerateARDrone3NetworkStateWifiScanListChanged
                0x00034644       0x92 /home/ncs/CAPSTONE/out/arsdk-native/build/libARCommands/obj/gen/Sources/ARCOMMANDS_Generator.c.o
                0x00034644                ARCOMMANDS_Generator_GenerateARDrone3NetworkStateWifiScanListChanged
 .text.ARCOMMANDS_Generator_GenerateARDrone3NetworkStateAllWifiScanChanged
                0x000346d6       0x4a /home/ncs/CAPSTONE/out/arsdk-native/build/libARCommands/obj/gen/Sources/ARCOMMANDS_Generator.c.o
                0x000346d6                ARCOMMANDS_Generator_GenerateARDrone3NetworkStateAllWifiScanChanged
 .text.ARCOMMANDS_Generator_GenerateARDrone3NetworkStateWifiAuthChannelListChanged
                0x00034720       0x80 /home/ncs/CAPSTONE/out/arsdk-native/build/libARCommands/obj/gen/Sources/ARCOMMANDS_Generator.c.o
                0x00034720                ARCOMMANDS_Generator_GenerateARDrone3NetworkStateWifiAuthChannelListChanged
 .text.ARCOMMANDS_Generator_GenerateARDrone3NetworkStateAllWifiAuthChannelChanged
                0x000347a0       0x4a /home/ncs/CAPSTONE/out/arsdk-native/build/libARCommands/obj/gen/Sources/ARCOMMANDS_Generator.c.o
                0x000347a0                ARCOMMANDS_Generator_GenerateARDrone3NetworkStateAllWifiAuthChannelChanged
 .text.ARCOMMANDS_Generator_GenerateARDrone3PilotingSettingsStateMaxAltitudeChanged
                0x000347ea       0x94 /home/ncs/CAPSTONE/out/arsdk-native/build/libARCommands/obj/gen/Sources/ARCOMMANDS_Generator.c.o
                0x000347ea                ARCOMMANDS_Generator_GenerateARDrone3PilotingSettingsStateMaxAltitudeChanged
 .text.ARCOMMANDS_Generator_GenerateARDrone3PilotingSettingsStateMaxTiltChanged
                0x0003487e       0x94 /home/ncs/CAPSTONE/out/arsdk-native/build/libARCommands/obj/gen/Sources/ARCOMMANDS_Generator.c.o
                0x0003487e                ARCOMMANDS_Generator_GenerateARDrone3PilotingSettingsStateMaxTiltChanged
 .text.ARCOMMANDS_Generator_GenerateARDrone3PilotingSettingsStateAbsolutControlChanged
                0x00034912       0x5c /home/ncs/CAPSTONE/out/arsdk-native/build/libARCommands/obj/gen/Sources/ARCOMMANDS_Generator.c.o
                0x00034912                ARCOMMANDS_Generator_GenerateARDrone3PilotingSettingsStateAbsolutControlChanged
 .text.ARCOMMANDS_Generator_GenerateARDrone3PilotingSettingsStateMaxDistanceChanged
                0x0003496e       0x94 /home/ncs/CAPSTONE/out/arsdk-native/build/libARCommands/obj/gen/Sources/ARCOMMANDS_Generator.c.o
                0x0003496e                ARCOMMANDS_Generator_GenerateARDrone3PilotingSettingsStateMaxDistanceChanged
 .text.ARCOMMANDS_Generator_GenerateARDrone3PilotingSettingsStateNoFlyOverMaxDistanceChanged
                0x00034a02       0x5c /home/ncs/CAPSTONE/out/arsdk-native/build/libARCommands/obj/gen/Sources/ARCOMMANDS_Generator.c.o
                0x00034a02                ARCOMMANDS_Generator_GenerateARDrone3PilotingSettingsStateNoFlyOverMaxDistanceChanged
 .text.ARCOMMANDS_Generator_GenerateARDrone3PilotingSettingsStateAutonomousFlightMaxHorizontalSpeed
                0x00034a5e       0x68 /home/ncs/CAPSTONE/out/arsdk-native/build/libARCommands/obj/gen/Sources/ARCOMMANDS_Generator.c.o
                0x00034a5e                ARCOMMANDS_Generator_GenerateARDrone3PilotingSettingsStateAutonomousFlightMaxHorizontalSpeed
 .text.ARCOMMANDS_Generator_GenerateARDrone3PilotingSettingsStateAutonomousFlightMaxVerticalSpeed
                0x00034ac6       0x68 /home/ncs/CAPSTONE/out/arsdk-native/build/libARCommands/obj/gen/Sources/ARCOMMANDS_Generator.c.o
                0x00034ac6                ARCOMMANDS_Generator_GenerateARDrone3PilotingSettingsStateAutonomousFlightMaxVerticalSpeed
 .text.ARCOMMANDS_Generator_GenerateARDrone3PilotingSettingsStateAutonomousFlightMaxHorizontalAcceleration
                0x00034b2e       0x68 /home/ncs/CAPSTONE/out/arsdk-native/build/libARCommands/obj/gen/Sources/ARCOMMANDS_Generator.c.o
                0x00034b2e                ARCOMMANDS_Generator_GenerateARDrone3PilotingSettingsStateAutonomousFlightMaxHorizontalAcceleration
 .text.ARCOMMANDS_Generator_GenerateARDrone3PilotingSettingsStateAutonomousFlightMaxVerticalAcceleration
                0x00034b96       0x68 /home/ncs/CAPSTONE/out/arsdk-native/build/libARCommands/obj/gen/Sources/ARCOMMANDS_Generator.c.o
                0x00034b96                ARCOMMANDS_Generator_GenerateARDrone3PilotingSettingsStateAutonomousFlightMaxVerticalAcceleration
 .text.ARCOMMANDS_Generator_GenerateARDrone3PilotingSettingsStateAutonomousFlightMaxRotationSpeed
                0x00034bfe       0x68 /home/ncs/CAPSTONE/out/arsdk-native/build/libARCommands/obj/gen/Sources/ARCOMMANDS_Generator.c.o
                0x00034bfe                ARCOMMANDS_Generator_GenerateARDrone3PilotingSettingsStateAutonomousFlightMaxRotationSpeed
 .text.ARCOMMANDS_Generator_GenerateARDrone3PilotingSettingsStateBankedTurnChanged
                0x00034c66       0x5c /home/ncs/CAPSTONE/out/arsdk-native/build/libARCommands/obj/gen/Sources/ARCOMMANDS_Generator.c.o
                0x00034c66                ARCOMMANDS_Generator_GenerateARDrone3PilotingSettingsStateBankedTurnChanged
 .text.ARCOMMANDS_Generator_GenerateARDrone3PilotingSettingsStateMinAltitudeChanged
                0x00034cc2       0x94 /home/ncs/CAPSTONE/out/arsdk-native/build/libARCommands/obj/gen/Sources/ARCOMMANDS_Generator.c.o
                0x00034cc2                ARCOMMANDS_Generator_GenerateARDrone3PilotingSettingsStateMinAltitudeChanged
 .text.ARCOMMANDS_Generator_GenerateARDrone3PilotingSettingsStateCirclingDirectionChanged
                0x00034d56       0x5c /home/ncs/CAPSTONE/out/arsdk-native/build/libARCommands/obj/gen/Sources/ARCOMMANDS_Generator.c.o
                0x00034d56                ARCOMMANDS_Generator_GenerateARDrone3PilotingSettingsStateCirclingDirectionChanged
 .text.ARCOMMANDS_Generator_GenerateARDrone3PilotingSettingsStateCirclingRadiusChanged
                0x00034db2       0x80 /home/ncs/CAPSTONE/out/arsdk-native/build/libARCommands/obj/gen/Sources/ARCOMMANDS_Generator.c.o
                0x00034db2                ARCOMMANDS_Generator_GenerateARDrone3PilotingSettingsStateCirclingRadiusChanged
 .text.ARCOMMANDS_Generator_GenerateARDrone3PilotingSettingsStateCirclingAltitudeChanged
                0x00034e32       0x80 /home/ncs/CAPSTONE/out/arsdk-native/build/libARCommands/obj/gen/Sources/ARCOMMANDS_Generator.c.o
                0x00034e32                ARCOMMANDS_Generator_GenerateARDrone3PilotingSettingsStateCirclingAltitudeChanged
 .text.ARCOMMANDS_Generator_GenerateARDrone3PilotingSettingsStatePitchModeChanged
                0x00034eb2       0x5c /home/ncs/CAPSTONE/out/arsdk-native/build/libARCommands/obj/gen/Sources/ARCOMMANDS_Generator.c.o
                0x00034eb2                ARCOMMANDS_Generator_GenerateARDrone3PilotingSettingsStatePitchModeChanged
 .text.ARCOMMANDS_Generator_GenerateARDrone3SpeedSettingsStateMaxVerticalSpeedChanged
                0x00034f0e       0x94 /home/ncs/CAPSTONE/out/arsdk-native/build/libARCommands/obj/gen/Sources/ARCOMMANDS_Generator.c.o
                0x00034f0e                ARCOMMANDS_Generator_GenerateARDrone3SpeedSettingsStateMaxVerticalSpeedChanged
 .text.ARCOMMANDS_Generator_GenerateARDrone3SpeedSettingsStateMaxRotationSpeedChanged
                0x00034fa2       0x94 /home/ncs/CAPSTONE/out/arsdk-native/build/libARCommands/obj/gen/Sources/ARCOMMANDS_Generator.c.o
                0x00034fa2                ARCOMMANDS_Generator_GenerateARDrone3SpeedSettingsStateMaxRotationSpeedChanged
 .text.ARCOMMANDS_Generator_GenerateARDrone3SpeedSettingsStateHullProtectionChanged
                0x00035036       0x5c /home/ncs/CAPSTONE/out/arsdk-native/build/libARCommands/obj/gen/Sources/ARCOMMANDS_Generator.c.o
                0x00035036                ARCOMMANDS_Generator_GenerateARDrone3SpeedSettingsStateHullProtectionChanged
 .text.ARCOMMANDS_Generator_GenerateARDrone3SpeedSettingsStateOutdoorChanged
                0x00035092       0x5c /home/ncs/CAPSTONE/out/arsdk-native/build/libARCommands/obj/gen/Sources/ARCOMMANDS_Generator.c.o
                0x00035092                ARCOMMANDS_Generator_GenerateARDrone3SpeedSettingsStateOutdoorChanged
 .text.ARCOMMANDS_Generator_GenerateARDrone3SpeedSettingsStateMaxPitchRollRotationSpeedChanged
                0x000350ee       0x94 /home/ncs/CAPSTONE/out/arsdk-native/build/libARCommands/obj/gen/Sources/ARCOMMANDS_Generator.c.o
                0x000350ee                ARCOMMANDS_Generator_GenerateARDrone3SpeedSettingsStateMaxPitchRollRotationSpeedChanged
 .text.ARCOMMANDS_Generator_GenerateARDrone3NetworkSettingsStateWifiSelectionChanged
                0x00035182       0x7e /home/ncs/CAPSTONE/out/arsdk-native/build/libARCommands/obj/gen/Sources/ARCOMMANDS_Generator.c.o
                0x00035182                ARCOMMANDS_Generator_GenerateARDrone3NetworkSettingsStateWifiSelectionChanged
 .text.ARCOMMANDS_Generator_GenerateARDrone3NetworkSettingsStateWifiSecurityChanged
                0x00035200       0x5c /home/ncs/CAPSTONE/out/arsdk-native/build/libARCommands/obj/gen/Sources/ARCOMMANDS_Generator.c.o
                0x00035200                ARCOMMANDS_Generator_GenerateARDrone3NetworkSettingsStateWifiSecurityChanged
 .text.ARCOMMANDS_Generator_GenerateARDrone3NetworkSettingsStateWifiSecurity
                0x0003525c       0x88 /home/ncs/CAPSTONE/out/arsdk-native/build/libARCommands/obj/gen/Sources/ARCOMMANDS_Generator.c.o
                0x0003525c                ARCOMMANDS_Generator_GenerateARDrone3NetworkSettingsStateWifiSecurity
 .text.ARCOMMANDS_Generator_GenerateARDrone3SettingsStateProductMotorVersionListChanged
                0x000352e4       0xac /home/ncs/CAPSTONE/out/arsdk-native/build/libARCommands/obj/gen/Sources/ARCOMMANDS_Generator.c.o
                0x000352e4                ARCOMMANDS_Generator_GenerateARDrone3SettingsStateProductMotorVersionListChanged
 .text.ARCOMMANDS_Generator_GenerateARDrone3SettingsStateProductGPSVersionChanged
                0x00035390       0x7a /home/ncs/CAPSTONE/out/arsdk-native/build/libARCommands/obj/gen/Sources/ARCOMMANDS_Generator.c.o
                0x00035390                ARCOMMANDS_Generator_GenerateARDrone3SettingsStateProductGPSVersionChanged
 .text.ARCOMMANDS_Generator_GenerateARDrone3SettingsStateMotorErrorStateChanged
                0x0003540a       0x6c /home/ncs/CAPSTONE/out/arsdk-native/build/libARCommands/obj/gen/Sources/ARCOMMANDS_Generator.c.o
                0x0003540a                ARCOMMANDS_Generator_GenerateARDrone3SettingsStateMotorErrorStateChanged
 .text.ARCOMMANDS_Generator_GenerateARDrone3SettingsStateMotorSoftwareVersionChanged
                0x00035476       0x5e /home/ncs/CAPSTONE/out/arsdk-native/build/libARCommands/obj/gen/Sources/ARCOMMANDS_Generator.c.o
                0x00035476                ARCOMMANDS_Generator_GenerateARDrone3SettingsStateMotorSoftwareVersionChanged
 .text.ARCOMMANDS_Generator_GenerateARDrone3SettingsStateMotorFlightsStatusChanged
                0x000354d4       0x7e /home/ncs/CAPSTONE/out/arsdk-native/build/libARCommands/obj/gen/Sources/ARCOMMANDS_Generator.c.o
                0x000354d4                ARCOMMANDS_Generator_GenerateARDrone3SettingsStateMotorFlightsStatusChanged
 .text.ARCOMMANDS_Generator_GenerateARDrone3SettingsStateMotorErrorLastErrorChanged
                0x00035552       0x5c /home/ncs/CAPSTONE/out/arsdk-native/build/libARCommands/obj/gen/Sources/ARCOMMANDS_Generator.c.o
                0x00035552                ARCOMMANDS_Generator_GenerateARDrone3SettingsStateMotorErrorLastErrorChanged
 .text.ARCOMMANDS_Generator_GenerateARDrone3SettingsStateP7ID
                0x000355ae       0x5e /home/ncs/CAPSTONE/out/arsdk-native/build/libARCommands/obj/gen/Sources/ARCOMMANDS_Generator.c.o
                0x000355ae                ARCOMMANDS_Generator_GenerateARDrone3SettingsStateP7ID
 .text.ARCOMMANDS_Generator_GenerateARDrone3SettingsStateCPUID
                0x0003560c       0x5e /home/ncs/CAPSTONE/out/arsdk-native/build/libARCommands/obj/gen/Sources/ARCOMMANDS_Generator.c.o
                0x0003560c                ARCOMMANDS_Generator_GenerateARDrone3SettingsStateCPUID
 .text.ARCOMMANDS_Generator_GenerateARDrone3PictureSettingsStatePictureFormatChanged
                0x0003566a       0x5c /home/ncs/CAPSTONE/out/arsdk-native/build/libARCommands/obj/gen/Sources/ARCOMMANDS_Generator.c.o
                0x0003566a                ARCOMMANDS_Generator_GenerateARDrone3PictureSettingsStatePictureFormatChanged
 .text.ARCOMMANDS_Generator_GenerateARDrone3PictureSettingsStateAutoWhiteBalanceChanged
                0x000356c6       0x5c /home/ncs/CAPSTONE/out/arsdk-native/build/libARCommands/obj/gen/Sources/ARCOMMANDS_Generator.c.o
                0x000356c6                ARCOMMANDS_Generator_GenerateARDrone3PictureSettingsStateAutoWhiteBalanceChanged
 .text.ARCOMMANDS_Generator_GenerateARDrone3PictureSettingsStateExpositionChanged
                0x00035722       0x94 /home/ncs/CAPSTONE/out/arsdk-native/build/libARCommands/obj/gen/Sources/ARCOMMANDS_Generator.c.o
                0x00035722                ARCOMMANDS_Generator_GenerateARDrone3PictureSettingsStateExpositionChanged
 .text.ARCOMMANDS_Generator_GenerateARDrone3PictureSettingsStateSaturationChanged
                0x000357b6       0x94 /home/ncs/CAPSTONE/out/arsdk-native/build/libARCommands/obj/gen/Sources/ARCOMMANDS_Generator.c.o
                0x000357b6                ARCOMMANDS_Generator_GenerateARDrone3PictureSettingsStateSaturationChanged
 .text.ARCOMMANDS_Generator_GenerateARDrone3PictureSettingsStateTimelapseChanged
                0x0003584a       0xa6 /home/ncs/CAPSTONE/out/arsdk-native/build/libARCommands/obj/gen/Sources/ARCOMMANDS_Generator.c.o
                0x0003584a                ARCOMMANDS_Generator_GenerateARDrone3PictureSettingsStateTimelapseChanged
 .text.ARCOMMANDS_Generator_GenerateARDrone3PictureSettingsStateVideoAutorecordChanged
                0x000358f0       0x6e /home/ncs/CAPSTONE/out/arsdk-native/build/libARCommands/obj/gen/Sources/ARCOMMANDS_Generator.c.o
                0x000358f0                ARCOMMANDS_Generator_GenerateARDrone3PictureSettingsStateVideoAutorecordChanged
 .text.ARCOMMANDS_Generator_GenerateARDrone3PictureSettingsStateVideoStabilizationModeChanged
                0x0003595e       0x5c /home/ncs/CAPSTONE/out/arsdk-native/build/libARCommands/obj/gen/Sources/ARCOMMANDS_Generator.c.o
                0x0003595e                ARCOMMANDS_Generator_GenerateARDrone3PictureSettingsStateVideoStabilizationModeChanged
 .text.ARCOMMANDS_Generator_GenerateARDrone3PictureSettingsStateVideoRecordingModeChanged
                0x000359ba       0x5c /home/ncs/CAPSTONE/out/arsdk-native/build/libARCommands/obj/gen/Sources/ARCOMMANDS_Generator.c.o
                0x000359ba                ARCOMMANDS_Generator_GenerateARDrone3PictureSettingsStateVideoRecordingModeChanged
 .text.ARCOMMANDS_Generator_GenerateARDrone3PictureSettingsStateVideoFramerateChanged
                0x00035a16       0x5c /home/ncs/CAPSTONE/out/arsdk-native/build/libARCommands/obj/gen/Sources/ARCOMMANDS_Generator.c.o
                0x00035a16                ARCOMMANDS_Generator_GenerateARDrone3PictureSettingsStateVideoFramerateChanged
 .text.ARCOMMANDS_Generator_GenerateARDrone3PictureSettingsStateVideoResolutionsChanged
                0x00035a72       0x5c /home/ncs/CAPSTONE/out/arsdk-native/build/libARCommands/obj/gen/Sources/ARCOMMANDS_Generator.c.o
                0x00035a72                ARCOMMANDS_Generator_GenerateARDrone3PictureSettingsStateVideoResolutionsChanged
 .text.ARCOMMANDS_Generator_GenerateARDrone3MediaStreamingStateVideoEnableChanged
                0x00035ace       0x5c /home/ncs/CAPSTONE/out/arsdk-native/build/libARCommands/obj/gen/Sources/ARCOMMANDS_Generator.c.o
                0x00035ace                ARCOMMANDS_Generator_GenerateARDrone3MediaStreamingStateVideoEnableChanged
 .text.ARCOMMANDS_Generator_GenerateARDrone3MediaStreamingStateVideoStreamModeChanged
                0x00035b2a       0x5c /home/ncs/CAPSTONE/out/arsdk-native/build/libARCommands/obj/gen/Sources/ARCOMMANDS_Generator.c.o
                0x00035b2a                ARCOMMANDS_Generator_GenerateARDrone3MediaStreamingStateVideoStreamModeChanged
 .text.ARCOMMANDS_Generator_GenerateARDrone3GPSSettingsStateHomeChanged
                0x00035b86       0x94 /home/ncs/CAPSTONE/out/arsdk-native/build/libARCommands/obj/gen/Sources/ARCOMMANDS_Generator.c.o
                0x00035b86                ARCOMMANDS_Generator_GenerateARDrone3GPSSettingsStateHomeChanged
 .text.ARCOMMANDS_Generator_GenerateARDrone3GPSSettingsStateResetHomeChanged
                0x00035c1a       0x94 /home/ncs/CAPSTONE/out/arsdk-native/build/libARCommands/obj/gen/Sources/ARCOMMANDS_Generator.c.o
                0x00035c1a                ARCOMMANDS_Generator_GenerateARDrone3GPSSettingsStateResetHomeChanged
 .text.ARCOMMANDS_Generator_GenerateARDrone3GPSSettingsStateGPSFixStateChanged
                0x00035cae       0x5c /home/ncs/CAPSTONE/out/arsdk-native/build/libARCommands/obj/gen/Sources/ARCOMMANDS_Generator.c.o
                0x00035cae                ARCOMMANDS_Generator_GenerateARDrone3GPSSettingsStateGPSFixStateChanged
 .text.ARCOMMANDS_Generator_GenerateARDrone3GPSSettingsStateGPSUpdateStateChanged
                0x00035d0a       0x5c /home/ncs/CAPSTONE/out/arsdk-native/build/libARCommands/obj/gen/Sources/ARCOMMANDS_Generator.c.o
                0x00035d0a                ARCOMMANDS_Generator_GenerateARDrone3GPSSettingsStateGPSUpdateStateChanged
 .text.ARCOMMANDS_Generator_GenerateARDrone3GPSSettingsStateHomeTypeChanged
                0x00035d66       0x5c /home/ncs/CAPSTONE/out/arsdk-native/build/libARCommands/obj/gen/Sources/ARCOMMANDS_Generator.c.o
                0x00035d66                ARCOMMANDS_Generator_GenerateARDrone3GPSSettingsStateHomeTypeChanged
 .text.ARCOMMANDS_Generator_GenerateARDrone3GPSSettingsStateReturnHomeDelayChanged
                0x00035dc2       0x5c /home/ncs/CAPSTONE/out/arsdk-native/build/libARCommands/obj/gen/Sources/ARCOMMANDS_Generator.c.o
                0x00035dc2                ARCOMMANDS_Generator_GenerateARDrone3GPSSettingsStateReturnHomeDelayChanged
 .text.ARCOMMANDS_Generator_GenerateARDrone3CameraStateOrientation
                0x00035e1e       0x6e /home/ncs/CAPSTONE/out/arsdk-native/build/libARCommands/obj/gen/Sources/ARCOMMANDS_Generator.c.o
                0x00035e1e                ARCOMMANDS_Generator_GenerateARDrone3CameraStateOrientation
 .text.ARCOMMANDS_Generator_GenerateARDrone3CameraStateDefaultCameraOrientation
                0x00035e8c       0x6e /home/ncs/CAPSTONE/out/arsdk-native/build/libARCommands/obj/gen/Sources/ARCOMMANDS_Generator.c.o
                0x00035e8c                ARCOMMANDS_Generator_GenerateARDrone3CameraStateDefaultCameraOrientation
 .text.ARCOMMANDS_Generator_GenerateARDrone3AntiflickeringStateElectricFrequencyChanged
                0x00035efa       0x5c /home/ncs/CAPSTONE/out/arsdk-native/build/libARCommands/obj/gen/Sources/ARCOMMANDS_Generator.c.o
                0x00035efa                ARCOMMANDS_Generator_GenerateARDrone3AntiflickeringStateElectricFrequencyChanged
 .text.ARCOMMANDS_Generator_GenerateARDrone3AntiflickeringStateModeChanged
                0x00035f56       0x5c /home/ncs/CAPSTONE/out/arsdk-native/build/libARCommands/obj/gen/Sources/ARCOMMANDS_Generator.c.o
                0x00035f56                ARCOMMANDS_Generator_GenerateARDrone3AntiflickeringStateModeChanged
 .text.ARCOMMANDS_Generator_GenerateARDrone3GPSStateNumberOfSatelliteChanged
                0x00035fb2       0x5c /home/ncs/CAPSTONE/out/arsdk-native/build/libARCommands/obj/gen/Sources/ARCOMMANDS_Generator.c.o
                0x00035fb2                ARCOMMANDS_Generator_GenerateARDrone3GPSStateNumberOfSatelliteChanged
 .text.ARCOMMANDS_Generator_GenerateARDrone3GPSStateHomeTypeAvailabilityChanged
                0x0003600e       0x6e /home/ncs/CAPSTONE/out/arsdk-native/build/libARCommands/obj/gen/Sources/ARCOMMANDS_Generator.c.o
                0x0003600e                ARCOMMANDS_Generator_GenerateARDrone3GPSStateHomeTypeAvailabilityChanged
 .text.ARCOMMANDS_Generator_GenerateARDrone3GPSStateHomeTypeChosenChanged
                0x0003607c       0x5c /home/ncs/CAPSTONE/out/arsdk-native/build/libARCommands/obj/gen/Sources/ARCOMMANDS_Generator.c.o
                0x0003607c                ARCOMMANDS_Generator_GenerateARDrone3GPSStateHomeTypeChosenChanged
 .text.ARCOMMANDS_Generator_GenerateARDrone3PROStateFeatures
                0x000360d8       0x5e /home/ncs/CAPSTONE/out/arsdk-native/build/libARCommands/obj/gen/Sources/ARCOMMANDS_Generator.c.o
                0x000360d8                ARCOMMANDS_Generator_GenerateARDrone3PROStateFeatures
 .text.ARCOMMANDS_Generator_GenerateCommonNetworkDisconnect
                0x00036136       0x4a /home/ncs/CAPSTONE/out/arsdk-native/build/libARCommands/obj/gen/Sources/ARCOMMANDS_Generator.c.o
                0x00036136                ARCOMMANDS_Generator_GenerateCommonNetworkDisconnect
 .text.ARCOMMANDS_Generator_GenerateCommonSettingsAllSettings
                0x00036180       0x4a /home/ncs/CAPSTONE/out/arsdk-native/build/libARCommands/obj/gen/Sources/ARCOMMANDS_Generator.c.o
                0x00036180                ARCOMMANDS_Generator_GenerateCommonSettingsAllSettings
 .text.ARCOMMANDS_Generator_GenerateCommonSettingsReset
                0x000361ca       0x4a /home/ncs/CAPSTONE/out/arsdk-native/build/libARCommands/obj/gen/Sources/ARCOMMANDS_Generator.c.o
                0x000361ca                ARCOMMANDS_Generator_GenerateCommonSettingsReset
 .text.ARCOMMANDS_Generator_GenerateCommonSettingsProductName
                0x00036214       0x5e /home/ncs/CAPSTONE/out/arsdk-native/build/libARCommands/obj/gen/Sources/ARCOMMANDS_Generator.c.o
                0x00036214                ARCOMMANDS_Generator_GenerateCommonSettingsProductName
 .text.ARCOMMANDS_Generator_GenerateCommonSettingsCountry
                0x00036272       0x5e /home/ncs/CAPSTONE/out/arsdk-native/build/libARCommands/obj/gen/Sources/ARCOMMANDS_Generator.c.o
                0x00036272                ARCOMMANDS_Generator_GenerateCommonSettingsCountry
 .text.ARCOMMANDS_Generator_GenerateCommonSettingsAutoCountry
                0x000362d0       0x5c /home/ncs/CAPSTONE/out/arsdk-native/build/libARCommands/obj/gen/Sources/ARCOMMANDS_Generator.c.o
                0x000362d0                ARCOMMANDS_Generator_GenerateCommonSettingsAutoCountry
 .text.ARCOMMANDS_Generator_GenerateCommonCommonAllStates
                0x0003632c       0x4a /home/ncs/CAPSTONE/out/arsdk-native/build/libARCommands/obj/gen/Sources/ARCOMMANDS_Generator.c.o
                0x0003632c                ARCOMMANDS_Generator_GenerateCommonCommonAllStates
 .text.ARCOMMANDS_Generator_GenerateCommonCommonCurrentDate
                0x00036376       0x5e /home/ncs/CAPSTONE/out/arsdk-native/build/libARCommands/obj/gen/Sources/ARCOMMANDS_Generator.c.o
                0x00036376                ARCOMMANDS_Generator_GenerateCommonCommonCurrentDate
 .text.ARCOMMANDS_Generator_GenerateCommonCommonCurrentTime
                0x000363d4       0x5e /home/ncs/CAPSTONE/out/arsdk-native/build/libARCommands/obj/gen/Sources/ARCOMMANDS_Generator.c.o
                0x000363d4                ARCOMMANDS_Generator_GenerateCommonCommonCurrentTime
 .text.ARCOMMANDS_Generator_GenerateCommonCommonReboot
                0x00036432       0x4a /home/ncs/CAPSTONE/out/arsdk-native/build/libARCommands/obj/gen/Sources/ARCOMMANDS_Generator.c.o
                0x00036432                ARCOMMANDS_Generator_GenerateCommonCommonReboot
 .text.ARCOMMANDS_Generator_GenerateCommonOverHeatSwitchOff
                0x0003647c       0x4a /home/ncs/CAPSTONE/out/arsdk-native/build/libARCommands/obj/gen/Sources/ARCOMMANDS_Generator.c.o
                0x0003647c                ARCOMMANDS_Generator_GenerateCommonOverHeatSwitchOff
 .text.ARCOMMANDS_Generator_GenerateCommonOverHeatVentilate
                0x000364c6       0x4a /home/ncs/CAPSTONE/out/arsdk-native/build/libARCommands/obj/gen/Sources/ARCOMMANDS_Generator.c.o
                0x000364c6                ARCOMMANDS_Generator_GenerateCommonOverHeatVentilate
 .text.ARCOMMANDS_Generator_GenerateCommonControllerIsPiloting
                0x00036510       0x5c /home/ncs/CAPSTONE/out/arsdk-native/build/libARCommands/obj/gen/Sources/ARCOMMANDS_Generator.c.o
                0x00036510                ARCOMMANDS_Generator_GenerateCommonControllerIsPiloting
 .text.ARCOMMANDS_Generator_GenerateCommonWifiSettingsOutdoorSetting
                0x0003656c       0x5c /home/ncs/CAPSTONE/out/arsdk-native/build/libARCommands/obj/gen/Sources/ARCOMMANDS_Generator.c.o
                0x0003656c                ARCOMMANDS_Generator_GenerateCommonWifiSettingsOutdoorSetting
 .text.ARCOMMANDS_Generator_GenerateCommonMavlinkStart
                0x000365c8       0x6e /home/ncs/CAPSTONE/out/arsdk-native/build/libARCommands/obj/gen/Sources/ARCOMMANDS_Generator.c.o
                0x000365c8                ARCOMMANDS_Generator_GenerateCommonMavlinkStart
 .text.ARCOMMANDS_Generator_GenerateCommonMavlinkPause
                0x00036636       0x4a /home/ncs/CAPSTONE/out/arsdk-native/build/libARCommands/obj/gen/Sources/ARCOMMANDS_Generator.c.o
                0x00036636                ARCOMMANDS_Generator_GenerateCommonMavlinkPause
 .text.ARCOMMANDS_Generator_GenerateCommonMavlinkStop
                0x00036680       0x4a /home/ncs/CAPSTONE/out/arsdk-native/build/libARCommands/obj/gen/Sources/ARCOMMANDS_Generator.c.o
                0x00036680                ARCOMMANDS_Generator_GenerateCommonMavlinkStop
 .text.ARCOMMANDS_Generator_GenerateCommonCalibrationMagnetoCalibration
                0x000366ca       0x5c /home/ncs/CAPSTONE/out/arsdk-native/build/libARCommands/obj/gen/Sources/ARCOMMANDS_Generator.c.o
                0x000366ca                ARCOMMANDS_Generator_GenerateCommonCalibrationMagnetoCalibration
 .text.ARCOMMANDS_Generator_GenerateCommonCalibrationPitotCalibration
                0x00036726       0x5c /home/ncs/CAPSTONE/out/arsdk-native/build/libARCommands/obj/gen/Sources/ARCOMMANDS_Generator.c.o
                0x00036726                ARCOMMANDS_Generator_GenerateCommonCalibrationPitotCalibration
 .text.ARCOMMANDS_Generator_GenerateCommonGPSControllerPositionForRun
                0x00036782       0x7e /home/ncs/CAPSTONE/out/arsdk-native/build/libARCommands/obj/gen/Sources/ARCOMMANDS_Generator.c.o
                0x00036782                ARCOMMANDS_Generator_GenerateCommonGPSControllerPositionForRun
 .text.ARCOMMANDS_Generator_GenerateCommonAudioControllerReadyForStreaming
                0x00036800       0x5c /home/ncs/CAPSTONE/out/arsdk-native/build/libARCommands/obj/gen/Sources/ARCOMMANDS_Generator.c.o
                0x00036800                ARCOMMANDS_Generator_GenerateCommonAudioControllerReadyForStreaming
 .text.ARCOMMANDS_Generator_GenerateCommonHeadlightsIntensity
                0x0003685c       0x6e /home/ncs/CAPSTONE/out/arsdk-native/build/libARCommands/obj/gen/Sources/ARCOMMANDS_Generator.c.o
                0x0003685c                ARCOMMANDS_Generator_GenerateCommonHeadlightsIntensity
 .text.ARCOMMANDS_Generator_GenerateCommonAnimationsStartAnimation
                0x000368ca       0x5c /home/ncs/CAPSTONE/out/arsdk-native/build/libARCommands/obj/gen/Sources/ARCOMMANDS_Generator.c.o
                0x000368ca                ARCOMMANDS_Generator_GenerateCommonAnimationsStartAnimation
 .text.ARCOMMANDS_Generator_GenerateCommonAnimationsStopAnimation
                0x00036926       0x5c /home/ncs/CAPSTONE/out/arsdk-native/build/libARCommands/obj/gen/Sources/ARCOMMANDS_Generator.c.o
                0x00036926                ARCOMMANDS_Generator_GenerateCommonAnimationsStopAnimation
 .text.ARCOMMANDS_Generator_GenerateCommonAnimationsStopAllAnimations
                0x00036982       0x4a /home/ncs/CAPSTONE/out/arsdk-native/build/libARCommands/obj/gen/Sources/ARCOMMANDS_Generator.c.o
                0x00036982                ARCOMMANDS_Generator_GenerateCommonAnimationsStopAllAnimations
 .text.ARCOMMANDS_Generator_GenerateCommonAccessoryConfig
                0x000369cc       0x5c /home/ncs/CAPSTONE/out/arsdk-native/build/libARCommands/obj/gen/Sources/ARCOMMANDS_Generator.c.o
                0x000369cc                ARCOMMANDS_Generator_GenerateCommonAccessoryConfig
 .text.ARCOMMANDS_Generator_GenerateCommonChargerSetMaxChargeRate
                0x00036a28       0x5c /home/ncs/CAPSTONE/out/arsdk-native/build/libARCommands/obj/gen/Sources/ARCOMMANDS_Generator.c.o
                0x00036a28                ARCOMMANDS_Generator_GenerateCommonChargerSetMaxChargeRate
 .text.ARCOMMANDS_Generator_GenerateCommonNetworkEventDisconnection
                0x00036a84       0x5c /home/ncs/CAPSTONE/out/arsdk-native/build/libARCommands/obj/gen/Sources/ARCOMMANDS_Generator.c.o
                0x00036a84                ARCOMMANDS_Generator_GenerateCommonNetworkEventDisconnection
 .text.ARCOMMANDS_Generator_GenerateCommonSettingsStateAllSettingsChanged
                0x00036ae0       0x4a /home/ncs/CAPSTONE/out/arsdk-native/build/libARCommands/obj/gen/Sources/ARCOMMANDS_Generator.c.o
                0x00036ae0                ARCOMMANDS_Generator_GenerateCommonSettingsStateAllSettingsChanged
 .text.ARCOMMANDS_Generator_GenerateCommonSettingsStateResetChanged
                0x00036b2a       0x4a /home/ncs/CAPSTONE/out/arsdk-native/build/libARCommands/obj/gen/Sources/ARCOMMANDS_Generator.c.o
                0x00036b2a                ARCOMMANDS_Generator_GenerateCommonSettingsStateResetChanged
 .text.ARCOMMANDS_Generator_GenerateCommonSettingsStateProductNameChanged
                0x00036b74       0x5e /home/ncs/CAPSTONE/out/arsdk-native/build/libARCommands/obj/gen/Sources/ARCOMMANDS_Generator.c.o
                0x00036b74                ARCOMMANDS_Generator_GenerateCommonSettingsStateProductNameChanged
 .text.ARCOMMANDS_Generator_GenerateCommonSettingsStateProductVersionChanged
                0x00036bd2       0x7a /home/ncs/CAPSTONE/out/arsdk-native/build/libARCommands/obj/gen/Sources/ARCOMMANDS_Generator.c.o
                0x00036bd2                ARCOMMANDS_Generator_GenerateCommonSettingsStateProductVersionChanged
 .text.ARCOMMANDS_Generator_GenerateCommonSettingsStateProductSerialHighChanged
                0x00036c4c       0x5e /home/ncs/CAPSTONE/out/arsdk-native/build/libARCommands/obj/gen/Sources/ARCOMMANDS_Generator.c.o
                0x00036c4c                ARCOMMANDS_Generator_GenerateCommonSettingsStateProductSerialHighChanged
 .text.ARCOMMANDS_Generator_GenerateCommonSettingsStateProductSerialLowChanged
                0x00036caa       0x5e /home/ncs/CAPSTONE/out/arsdk-native/build/libARCommands/obj/gen/Sources/ARCOMMANDS_Generator.c.o
                0x00036caa                ARCOMMANDS_Generator_GenerateCommonSettingsStateProductSerialLowChanged
 .text.ARCOMMANDS_Generator_GenerateCommonSettingsStateCountryChanged
                0x00036d08       0x5e /home/ncs/CAPSTONE/out/arsdk-native/build/libARCommands/obj/gen/Sources/ARCOMMANDS_Generator.c.o
                0x00036d08                ARCOMMANDS_Generator_GenerateCommonSettingsStateCountryChanged
 .text.ARCOMMANDS_Generator_GenerateCommonSettingsStateAutoCountryChanged
                0x00036d66       0x5c /home/ncs/CAPSTONE/out/arsdk-native/build/libARCommands/obj/gen/Sources/ARCOMMANDS_Generator.c.o
                0x00036d66                ARCOMMANDS_Generator_GenerateCommonSettingsStateAutoCountryChanged
 .text.ARCOMMANDS_Generator_GenerateCommonCommonStateAllStatesChanged
                0x00036dc2       0x4a /home/ncs/CAPSTONE/out/arsdk-native/build/libARCommands/obj/gen/Sources/ARCOMMANDS_Generator.c.o
                0x00036dc2                ARCOMMANDS_Generator_GenerateCommonCommonStateAllStatesChanged
 .text.ARCOMMANDS_Generator_GenerateCommonCommonStateBatteryStateChanged
                0x00036e0c       0x5c /home/ncs/CAPSTONE/out/arsdk-native/build/libARCommands/obj/gen/Sources/ARCOMMANDS_Generator.c.o
                0x00036e0c                ARCOMMANDS_Generator_GenerateCommonCommonStateBatteryStateChanged
 .text.ARCOMMANDS_Generator_GenerateCommonCommonStateMassStorageStateListChanged
                0x00036e68       0x78 /home/ncs/CAPSTONE/out/arsdk-native/build/libARCommands/obj/gen/Sources/ARCOMMANDS_Generator.c.o
                0x00036e68                ARCOMMANDS_Generator_GenerateCommonCommonStateMassStorageStateListChanged
 .text.ARCOMMANDS_Generator_GenerateCommonCommonStateMassStorageInfoStateListChanged
                0x00036ee0       0xb2 /home/ncs/CAPSTONE/out/arsdk-native/build/libARCommands/obj/gen/Sources/ARCOMMANDS_Generator.c.o
                0x00036ee0                ARCOMMANDS_Generator_GenerateCommonCommonStateMassStorageInfoStateListChanged
 .text.ARCOMMANDS_Generator_GenerateCommonCommonStateCurrentDateChanged
                0x00036f92       0x5e /home/ncs/CAPSTONE/out/arsdk-native/build/libARCommands/obj/gen/Sources/ARCOMMANDS_Generator.c.o
                0x00036f92                ARCOMMANDS_Generator_GenerateCommonCommonStateCurrentDateChanged
 .text.ARCOMMANDS_Generator_GenerateCommonCommonStateCurrentTimeChanged
                0x00036ff0       0x5e /home/ncs/CAPSTONE/out/arsdk-native/build/libARCommands/obj/gen/Sources/ARCOMMANDS_Generator.c.o
                0x00036ff0                ARCOMMANDS_Generator_GenerateCommonCommonStateCurrentTimeChanged
 .text.ARCOMMANDS_Generator_GenerateCommonCommonStateMassStorageInfoRemainingListChanged
                0x0003704e       0x7e /home/ncs/CAPSTONE/out/arsdk-native/build/libARCommands/obj/gen/Sources/ARCOMMANDS_Generator.c.o
                0x0003704e                ARCOMMANDS_Generator_GenerateCommonCommonStateMassStorageInfoRemainingListChanged
 .text.ARCOMMANDS_Generator_GenerateCommonCommonStateWifiSignalChanged
                0x000370cc       0x5c /home/ncs/CAPSTONE/out/arsdk-native/build/libARCommands/obj/gen/Sources/ARCOMMANDS_Generator.c.o
                0x000370cc                ARCOMMANDS_Generator_GenerateCommonCommonStateWifiSignalChanged
 .text.ARCOMMANDS_Generator_GenerateCommonCommonStateSensorsStatesListChanged
                0x00037128       0x6e /home/ncs/CAPSTONE/out/arsdk-native/build/libARCommands/obj/gen/Sources/ARCOMMANDS_Generator.c.o
                0x00037128                ARCOMMANDS_Generator_GenerateCommonCommonStateSensorsStatesListChanged
 .text.ARCOMMANDS_Generator_GenerateCommonCommonStateProductModel
                0x00037196       0x5c /home/ncs/CAPSTONE/out/arsdk-native/build/libARCommands/obj/gen/Sources/ARCOMMANDS_Generator.c.o
                0x00037196                ARCOMMANDS_Generator_GenerateCommonCommonStateProductModel
 .text.ARCOMMANDS_Generator_GenerateCommonCommonStateCountryListKnown
                0x000371f2       0x78 /home/ncs/CAPSTONE/out/arsdk-native/build/libARCommands/obj/gen/Sources/ARCOMMANDS_Generator.c.o
                0x000371f2                ARCOMMANDS_Generator_GenerateCommonCommonStateCountryListKnown
 .text.ARCOMMANDS_Generator_GenerateCommonCommonStateDeprecatedMassStorageContentChanged
                0x0003726a       0xa4 /home/ncs/CAPSTONE/out/arsdk-native/build/libARCommands/obj/gen/Sources/ARCOMMANDS_Generator.c.o
                0x0003726a                ARCOMMANDS_Generator_GenerateCommonCommonStateDeprecatedMassStorageContentChanged
 .text.ARCOMMANDS_Generator_GenerateCommonCommonStateMassStorageContent
                0x0003730e       0xb6 /home/ncs/CAPSTONE/out/arsdk-native/build/libARCommands/obj/gen/Sources/ARCOMMANDS_Generator.c.o
                0x0003730e                ARCOMMANDS_Generator_GenerateCommonCommonStateMassStorageContent
 .text.ARCOMMANDS_Generator_GenerateCommonCommonStateMassStorageContentForCurrentRun
                0x000373c4       0x92 /home/ncs/CAPSTONE/out/arsdk-native/build/libARCommands/obj/gen/Sources/ARCOMMANDS_Generator.c.o
                0x000373c4                ARCOMMANDS_Generator_GenerateCommonCommonStateMassStorageContentForCurrentRun
 .text.ARCOMMANDS_Generator_GenerateCommonOverHeatStateOverHeatChanged
                0x00037456       0x4a /home/ncs/CAPSTONE/out/arsdk-native/build/libARCommands/obj/gen/Sources/ARCOMMANDS_Generator.c.o
                0x00037456                ARCOMMANDS_Generator_GenerateCommonOverHeatStateOverHeatChanged
 .text.ARCOMMANDS_Generator_GenerateCommonOverHeatStateOverHeatRegulationChanged
                0x000374a0       0x5c /home/ncs/CAPSTONE/out/arsdk-native/build/libARCommands/obj/gen/Sources/ARCOMMANDS_Generator.c.o
                0x000374a0                ARCOMMANDS_Generator_GenerateCommonOverHeatStateOverHeatRegulationChanged
 .text.ARCOMMANDS_Generator_GenerateCommonWifiSettingsStateOutdoorSettingsChanged
                0x000374fc       0x5c /home/ncs/CAPSTONE/out/arsdk-native/build/libARCommands/obj/gen/Sources/ARCOMMANDS_Generator.c.o
                0x000374fc                ARCOMMANDS_Generator_GenerateCommonWifiSettingsStateOutdoorSettingsChanged
 .text.ARCOMMANDS_Generator_GenerateCommonMavlinkStateMavlinkFilePlayingStateChanged
                0x00037558       0x88 /home/ncs/CAPSTONE/out/arsdk-native/build/libARCommands/obj/gen/Sources/ARCOMMANDS_Generator.c.o
                0x00037558                ARCOMMANDS_Generator_GenerateCommonMavlinkStateMavlinkFilePlayingStateChanged
 .text.ARCOMMANDS_Generator_GenerateCommonMavlinkStateMavlinkPlayErrorStateChanged
                0x000375e0       0x5c /home/ncs/CAPSTONE/out/arsdk-native/build/libARCommands/obj/gen/Sources/ARCOMMANDS_Generator.c.o
                0x000375e0                ARCOMMANDS_Generator_GenerateCommonMavlinkStateMavlinkPlayErrorStateChanged
 .text.ARCOMMANDS_Generator_GenerateCommonCalibrationStateMagnetoCalibrationStateChanged
                0x0003763c       0x92 /home/ncs/CAPSTONE/out/arsdk-native/build/libARCommands/obj/gen/Sources/ARCOMMANDS_Generator.c.o
                0x0003763c                ARCOMMANDS_Generator_GenerateCommonCalibrationStateMagnetoCalibrationStateChanged
 .text.ARCOMMANDS_Generator_GenerateCommonCalibrationStateMagnetoCalibrationRequiredState
                0x000376ce       0x5c /home/ncs/CAPSTONE/out/arsdk-native/build/libARCommands/obj/gen/Sources/ARCOMMANDS_Generator.c.o
                0x000376ce                ARCOMMANDS_Generator_GenerateCommonCalibrationStateMagnetoCalibrationRequiredState
 .text.ARCOMMANDS_Generator_GenerateCommonCalibrationStateMagnetoCalibrationAxisToCalibrateChanged
                0x0003772a       0x5c /home/ncs/CAPSTONE/out/arsdk-native/build/libARCommands/obj/gen/Sources/ARCOMMANDS_Generator.c.o
                0x0003772a                ARCOMMANDS_Generator_GenerateCommonCalibrationStateMagnetoCalibrationAxisToCalibrateChanged
 .text.ARCOMMANDS_Generator_GenerateCommonCalibrationStateMagnetoCalibrationStartedChanged
                0x00037786       0x5c /home/ncs/CAPSTONE/out/arsdk-native/build/libARCommands/obj/gen/Sources/ARCOMMANDS_Generator.c.o
                0x00037786                ARCOMMANDS_Generator_GenerateCommonCalibrationStateMagnetoCalibrationStartedChanged
 .text.ARCOMMANDS_Generator_GenerateCommonCalibrationStatePitotCalibrationStateChanged
                0x000377e2       0x6e /home/ncs/CAPSTONE/out/arsdk-native/build/libARCommands/obj/gen/Sources/ARCOMMANDS_Generator.c.o
                0x000377e2                ARCOMMANDS_Generator_GenerateCommonCalibrationStatePitotCalibrationStateChanged
 .text.ARCOMMANDS_Generator_GenerateCommonCameraSettingsStateCameraSettingsChanged
                0x00037850       0xc0 /home/ncs/CAPSTONE/out/arsdk-native/build/libARCommands/obj/gen/Sources/ARCOMMANDS_Generator.c.o
                0x00037850                ARCOMMANDS_Generator_GenerateCommonCameraSettingsStateCameraSettingsChanged
 .text.ARCOMMANDS_Generator_GenerateCommonFlightPlanStateAvailabilityStateChanged
                0x00037910       0x5c /home/ncs/CAPSTONE/out/arsdk-native/build/libARCommands/obj/gen/Sources/ARCOMMANDS_Generator.c.o
                0x00037910                ARCOMMANDS_Generator_GenerateCommonFlightPlanStateAvailabilityStateChanged
 .text.ARCOMMANDS_Generator_GenerateCommonFlightPlanStateComponentStateListChanged
                0x0003796c       0x6e /home/ncs/CAPSTONE/out/arsdk-native/build/libARCommands/obj/gen/Sources/ARCOMMANDS_Generator.c.o
                0x0003796c                ARCOMMANDS_Generator_GenerateCommonFlightPlanStateComponentStateListChanged
 .text.ARCOMMANDS_Generator_GenerateCommonFlightPlanStateLockStateChanged
                0x000379da       0x5c /home/ncs/CAPSTONE/out/arsdk-native/build/libARCommands/obj/gen/Sources/ARCOMMANDS_Generator.c.o
                0x000379da                ARCOMMANDS_Generator_GenerateCommonFlightPlanStateLockStateChanged
 .text.ARCOMMANDS_Generator_GenerateCommonFlightPlanEventStartingErrorEvent
                0x00037a36       0x4a /home/ncs/CAPSTONE/out/arsdk-native/build/libARCommands/obj/gen/Sources/ARCOMMANDS_Generator.c.o
                0x00037a36                ARCOMMANDS_Generator_GenerateCommonFlightPlanEventStartingErrorEvent
 .text.ARCOMMANDS_Generator_GenerateCommonFlightPlanEventSpeedBridleEvent
                0x00037a80       0x4a /home/ncs/CAPSTONE/out/arsdk-native/build/libARCommands/obj/gen/Sources/ARCOMMANDS_Generator.c.o
                0x00037a80                ARCOMMANDS_Generator_GenerateCommonFlightPlanEventSpeedBridleEvent
 .text.ARCOMMANDS_Generator_GenerateCommonARLibsVersionsStateControllerLibARCommandsVersion
                0x00037aca       0x5e /home/ncs/CAPSTONE/out/arsdk-native/build/libARCommands/obj/gen/Sources/ARCOMMANDS_Generator.c.o
                0x00037aca                ARCOMMANDS_Generator_GenerateCommonARLibsVersionsStateControllerLibARCommandsVersion
 .text.ARCOMMANDS_Generator_GenerateCommonARLibsVersionsStateSkyControllerLibARCommandsVersion
                0x00037b28       0x5e /home/ncs/CAPSTONE/out/arsdk-native/build/libARCommands/obj/gen/Sources/ARCOMMANDS_Generator.c.o
                0x00037b28                ARCOMMANDS_Generator_GenerateCommonARLibsVersionsStateSkyControllerLibARCommandsVersion
 .text.ARCOMMANDS_Generator_GenerateCommonARLibsVersionsStateDeviceLibARCommandsVersion
                0x00037b86       0x5e /home/ncs/CAPSTONE/out/arsdk-native/build/libARCommands/obj/gen/Sources/ARCOMMANDS_Generator.c.o
                0x00037b86                ARCOMMANDS_Generator_GenerateCommonARLibsVersionsStateDeviceLibARCommandsVersion
 .text.ARCOMMANDS_Generator_GenerateCommonAudioStateAudioStreamingRunning
                0x00037be4       0x5c /home/ncs/CAPSTONE/out/arsdk-native/build/libARCommands/obj/gen/Sources/ARCOMMANDS_Generator.c.o
                0x00037be4                ARCOMMANDS_Generator_GenerateCommonAudioStateAudioStreamingRunning
 .text.ARCOMMANDS_Generator_GenerateCommonHeadlightsStateIntensityChanged
                0x00037c40       0x6e /home/ncs/CAPSTONE/out/arsdk-native/build/libARCommands/obj/gen/Sources/ARCOMMANDS_Generator.c.o
                0x00037c40                ARCOMMANDS_Generator_GenerateCommonHeadlightsStateIntensityChanged
 .text.ARCOMMANDS_Generator_GenerateCommonAnimationsStateList
                0x00037cae       0x7c /home/ncs/CAPSTONE/out/arsdk-native/build/libARCommands/obj/gen/Sources/ARCOMMANDS_Generator.c.o
                0x00037cae                ARCOMMANDS_Generator_GenerateCommonAnimationsStateList
 .text.ARCOMMANDS_Generator_GenerateCommonAccessoryStateSupportedAccessoriesListChanged
                0x00037d2a       0x5c /home/ncs/CAPSTONE/out/arsdk-native/build/libARCommands/obj/gen/Sources/ARCOMMANDS_Generator.c.o
                0x00037d2a                ARCOMMANDS_Generator_GenerateCommonAccessoryStateSupportedAccessoriesListChanged
 .text.ARCOMMANDS_Generator_GenerateCommonAccessoryStateAccessoryConfigChanged
                0x00037d86       0x6c /home/ncs/CAPSTONE/out/arsdk-native/build/libARCommands/obj/gen/Sources/ARCOMMANDS_Generator.c.o
                0x00037d86                ARCOMMANDS_Generator_GenerateCommonAccessoryStateAccessoryConfigChanged
 .text.ARCOMMANDS_Generator_GenerateCommonAccessoryStateAccessoryConfigModificationEnabled
                0x00037df2       0x5c /home/ncs/CAPSTONE/out/arsdk-native/build/libARCommands/obj/gen/Sources/ARCOMMANDS_Generator.c.o
                0x00037df2                ARCOMMANDS_Generator_GenerateCommonAccessoryStateAccessoryConfigModificationEnabled
 .text.ARCOMMANDS_Generator_GenerateCommonChargerStateMaxChargeRateChanged
                0x00037e4e       0x5c /home/ncs/CAPSTONE/out/arsdk-native/build/libARCommands/obj/gen/Sources/ARCOMMANDS_Generator.c.o
                0x00037e4e                ARCOMMANDS_Generator_GenerateCommonChargerStateMaxChargeRateChanged
 .text.ARCOMMANDS_Generator_GenerateCommonChargerStateCurrentChargeStateChanged
                0x00037eaa       0x6c /home/ncs/CAPSTONE/out/arsdk-native/build/libARCommands/obj/gen/Sources/ARCOMMANDS_Generator.c.o
                0x00037eaa                ARCOMMANDS_Generator_GenerateCommonChargerStateCurrentChargeStateChanged
 .text.ARCOMMANDS_Generator_GenerateCommonChargerStateLastChargeRateChanged
                0x00037f16       0x5c /home/ncs/CAPSTONE/out/arsdk-native/build/libARCommands/obj/gen/Sources/ARCOMMANDS_Generator.c.o
                0x00037f16                ARCOMMANDS_Generator_GenerateCommonChargerStateLastChargeRateChanged
 .text.ARCOMMANDS_Generator_GenerateCommonChargerStateChargingInfo
                0x00037f72       0x90 /home/ncs/CAPSTONE/out/arsdk-native/build/libARCommands/obj/gen/Sources/ARCOMMANDS_Generator.c.o
                0x00037f72                ARCOMMANDS_Generator_GenerateCommonChargerStateChargingInfo
 .text.ARCOMMANDS_Generator_GenerateCommonRunStateRunIdChanged
                0x00038002       0x5e /home/ncs/CAPSTONE/out/arsdk-native/build/libARCommands/obj/gen/Sources/ARCOMMANDS_Generator.c.o
                0x00038002                ARCOMMANDS_Generator_GenerateCommonRunStateRunIdChanged
 .text.ARCOMMANDS_Generator_GenerateControllerInfoGps
                0x00038060      0x118 /home/ncs/CAPSTONE/out/arsdk-native/build/libARCommands/obj/gen/Sources/ARCOMMANDS_Generator.c.o
                0x00038060                ARCOMMANDS_Generator_GenerateControllerInfoGps
 .text.ARCOMMANDS_Generator_GenerateControllerInfoBarometer
                0x00038178       0x7e /home/ncs/CAPSTONE/out/arsdk-native/build/libARCommands/obj/gen/Sources/ARCOMMANDS_Generator.c.o
                0x00038178                ARCOMMANDS_Generator_GenerateControllerInfoBarometer
 .text.ARCOMMANDS_Generator_GenerateDebugGetAllSettings
                0x000381f6       0x4a /home/ncs/CAPSTONE/out/arsdk-native/build/libARCommands/obj/gen/Sources/ARCOMMANDS_Generator.c.o
                0x000381f6                ARCOMMANDS_Generator_GenerateDebugGetAllSettings
 .text.ARCOMMANDS_Generator_GenerateDebugSetSetting
                0x00038240       0x78 /home/ncs/CAPSTONE/out/arsdk-native/build/libARCommands/obj/gen/Sources/ARCOMMANDS_Generator.c.o
                0x00038240                ARCOMMANDS_Generator_GenerateDebugSetSetting
 .text.ARCOMMANDS_Generator_GenerateDebugSettingsInfo
                0x000382b8      0x10c /home/ncs/CAPSTONE/out/arsdk-native/build/libARCommands/obj/gen/Sources/ARCOMMANDS_Generator.c.o
                0x000382b8                ARCOMMANDS_Generator_GenerateDebugSettingsInfo
 .text.ARCOMMANDS_Generator_GenerateDebugSettingsList
                0x000383c4       0x78 /home/ncs/CAPSTONE/out/arsdk-native/build/libARCommands/obj/gen/Sources/ARCOMMANDS_Generator.c.o
                0x000383c4                ARCOMMANDS_Generator_GenerateDebugSettingsList
 .text.ARCOMMANDS_Generator_GenerateDroneManagerDiscoverDrones
                0x0003843c       0x4a /home/ncs/CAPSTONE/out/arsdk-native/build/libARCommands/obj/gen/Sources/ARCOMMANDS_Generator.c.o
                0x0003843c                ARCOMMANDS_Generator_GenerateDroneManagerDiscoverDrones
 .text.ARCOMMANDS_Generator_GenerateDroneManagerConnect
                0x00038486       0x7a /home/ncs/CAPSTONE/out/arsdk-native/build/libARCommands/obj/gen/Sources/ARCOMMANDS_Generator.c.o
                0x00038486                ARCOMMANDS_Generator_GenerateDroneManagerConnect
 .text.ARCOMMANDS_Generator_GenerateDroneManagerForget
                0x00038500       0x5e /home/ncs/CAPSTONE/out/arsdk-native/build/libARCommands/obj/gen/Sources/ARCOMMANDS_Generator.c.o
                0x00038500                ARCOMMANDS_Generator_GenerateDroneManagerForget
 .text.ARCOMMANDS_Generator_GenerateDroneManagerDroneListItem
                0x0003855e      0x108 /home/ncs/CAPSTONE/out/arsdk-native/build/libARCommands/obj/gen/Sources/ARCOMMANDS_Generator.c.o
                0x0003855e                ARCOMMANDS_Generator_GenerateDroneManagerDroneListItem
 .text.ARCOMMANDS_Generator_GenerateDroneManagerConnectionState
                0x00038666       0xa4 /home/ncs/CAPSTONE/out/arsdk-native/build/libARCommands/obj/gen/Sources/ARCOMMANDS_Generator.c.o
                0x00038666                ARCOMMANDS_Generator_GenerateDroneManagerConnectionState
 .text.ARCOMMANDS_Generator_GenerateDroneManagerAuthenticationFailed
                0x0003870a       0x8c /home/ncs/CAPSTONE/out/arsdk-native/build/libARCommands/obj/gen/Sources/ARCOMMANDS_Generator.c.o
                0x0003870a                ARCOMMANDS_Generator_GenerateDroneManagerAuthenticationFailed
 .text.ARCOMMANDS_Generator_GenerateDroneManagerConnectionRefused
                0x00038796       0x8c /home/ncs/CAPSTONE/out/arsdk-native/build/libARCommands/obj/gen/Sources/ARCOMMANDS_Generator.c.o
                0x00038796                ARCOMMANDS_Generator_GenerateDroneManagerConnectionRefused
 .text.ARCOMMANDS_Generator_GenerateJumpingSumoPilotingPCMD
                0x00038822       0x80 /home/ncs/CAPSTONE/out/arsdk-native/build/libARCommands/obj/gen/Sources/ARCOMMANDS_Generator.c.o
                0x00038822                ARCOMMANDS_Generator_GenerateJumpingSumoPilotingPCMD
 .text.ARCOMMANDS_Generator_GenerateJumpingSumoPilotingPosture
                0x000388a2       0x5c /home/ncs/CAPSTONE/out/arsdk-native/build/libARCommands/obj/gen/Sources/ARCOMMANDS_Generator.c.o
                0x000388a2                ARCOMMANDS_Generator_GenerateJumpingSumoPilotingPosture
 .text.ARCOMMANDS_Generator_GenerateJumpingSumoPilotingAddCapOffset
                0x000388fe       0x68 /home/ncs/CAPSTONE/out/arsdk-native/build/libARCommands/obj/gen/Sources/ARCOMMANDS_Generator.c.o
                0x000388fe                ARCOMMANDS_Generator_GenerateJumpingSumoPilotingAddCapOffset
 .text.ARCOMMANDS_Generator_GenerateJumpingSumoAnimationsJumpStop
                0x00038966       0x4a /home/ncs/CAPSTONE/out/arsdk-native/build/libARCommands/obj/gen/Sources/ARCOMMANDS_Generator.c.o
                0x00038966                ARCOMMANDS_Generator_GenerateJumpingSumoAnimationsJumpStop
 .text.ARCOMMANDS_Generator_GenerateJumpingSumoAnimationsJumpCancel
                0x000389b0       0x4a /home/ncs/CAPSTONE/out/arsdk-native/build/libARCommands/obj/gen/Sources/ARCOMMANDS_Generator.c.o
                0x000389b0                ARCOMMANDS_Generator_GenerateJumpingSumoAnimationsJumpCancel
 .text.ARCOMMANDS_Generator_GenerateJumpingSumoAnimationsJumpLoad
                0x000389fa       0x4a /home/ncs/CAPSTONE/out/arsdk-native/build/libARCommands/obj/gen/Sources/ARCOMMANDS_Generator.c.o
                0x000389fa                ARCOMMANDS_Generator_GenerateJumpingSumoAnimationsJumpLoad
 .text.ARCOMMANDS_Generator_GenerateJumpingSumoAnimationsJump
                0x00038a44       0x5c /home/ncs/CAPSTONE/out/arsdk-native/build/libARCommands/obj/gen/Sources/ARCOMMANDS_Generator.c.o
                0x00038a44                ARCOMMANDS_Generator_GenerateJumpingSumoAnimationsJump
 .text.ARCOMMANDS_Generator_GenerateJumpingSumoAnimationsSimpleAnimation
                0x00038aa0       0x5c /home/ncs/CAPSTONE/out/arsdk-native/build/libARCommands/obj/gen/Sources/ARCOMMANDS_Generator.c.o
                0x00038aa0                ARCOMMANDS_Generator_GenerateJumpingSumoAnimationsSimpleAnimation
 .text.ARCOMMANDS_Generator_GenerateJumpingSumoMediaRecordPicture
                0x00038afc       0x5c /home/ncs/CAPSTONE/out/arsdk-native/build/libARCommands/obj/gen/Sources/ARCOMMANDS_Generator.c.o
                0x00038afc                ARCOMMANDS_Generator_GenerateJumpingSumoMediaRecordPicture
 .text.ARCOMMANDS_Generator_GenerateJumpingSumoMediaRecordVideo
                0x00038b58       0x6e /home/ncs/CAPSTONE/out/arsdk-native/build/libARCommands/obj/gen/Sources/ARCOMMANDS_Generator.c.o
                0x00038b58                ARCOMMANDS_Generator_GenerateJumpingSumoMediaRecordVideo
 .text.ARCOMMANDS_Generator_GenerateJumpingSumoMediaRecordPictureV2
                0x00038bc6       0x4a /home/ncs/CAPSTONE/out/arsdk-native/build/libARCommands/obj/gen/Sources/ARCOMMANDS_Generator.c.o
                0x00038bc6                ARCOMMANDS_Generator_GenerateJumpingSumoMediaRecordPictureV2
 .text.ARCOMMANDS_Generator_GenerateJumpingSumoMediaRecordVideoV2
                0x00038c10       0x5c /home/ncs/CAPSTONE/out/arsdk-native/build/libARCommands/obj/gen/Sources/ARCOMMANDS_Generator.c.o
                0x00038c10                ARCOMMANDS_Generator_GenerateJumpingSumoMediaRecordVideoV2
 .text.ARCOMMANDS_Generator_GenerateJumpingSumoNetworkSettingsWifiSelection
                0x00038c6c       0x7e /home/ncs/CAPSTONE/out/arsdk-native/build/libARCommands/obj/gen/Sources/ARCOMMANDS_Generator.c.o
                0x00038c6c                ARCOMMANDS_Generator_GenerateJumpingSumoNetworkSettingsWifiSelection
 .text.ARCOMMANDS_Generator_GenerateJumpingSumoNetworkWifiScan
                0x00038cea       0x5c /home/ncs/CAPSTONE/out/arsdk-native/build/libARCommands/obj/gen/Sources/ARCOMMANDS_Generator.c.o
                0x00038cea                ARCOMMANDS_Generator_GenerateJumpingSumoNetworkWifiScan
 .text.ARCOMMANDS_Generator_GenerateJumpingSumoNetworkWifiAuthChannel
                0x00038d46       0x4a /home/ncs/CAPSTONE/out/arsdk-native/build/libARCommands/obj/gen/Sources/ARCOMMANDS_Generator.c.o
                0x00038d46                ARCOMMANDS_Generator_GenerateJumpingSumoNetworkWifiAuthChannel
 .text.ARCOMMANDS_Generator_GenerateJumpingSumoAudioSettingsMasterVolume
                0x00038d90       0x5c /home/ncs/CAPSTONE/out/arsdk-native/build/libARCommands/obj/gen/Sources/ARCOMMANDS_Generator.c.o
                0x00038d90                ARCOMMANDS_Generator_GenerateJumpingSumoAudioSettingsMasterVolume
 .text.ARCOMMANDS_Generator_GenerateJumpingSumoAudioSettingsTheme
                0x00038dec       0x5c /home/ncs/CAPSTONE/out/arsdk-native/build/libARCommands/obj/gen/Sources/ARCOMMANDS_Generator.c.o
                0x00038dec                ARCOMMANDS_Generator_GenerateJumpingSumoAudioSettingsTheme
 .text.ARCOMMANDS_Generator_GenerateJumpingSumoRoadPlanAllScriptsMetadata
                0x00038e48       0x4a /home/ncs/CAPSTONE/out/arsdk-native/build/libARCommands/obj/gen/Sources/ARCOMMANDS_Generator.c.o
                0x00038e48                ARCOMMANDS_Generator_GenerateJumpingSumoRoadPlanAllScriptsMetadata
 .text.ARCOMMANDS_Generator_GenerateJumpingSumoRoadPlanScriptUploaded
                0x00038e92       0x7a /home/ncs/CAPSTONE/out/arsdk-native/build/libARCommands/obj/gen/Sources/ARCOMMANDS_Generator.c.o
                0x00038e92                ARCOMMANDS_Generator_GenerateJumpingSumoRoadPlanScriptUploaded
 .text.ARCOMMANDS_Generator_GenerateJumpingSumoRoadPlanScriptDelete
                0x00038f0c       0x5e /home/ncs/CAPSTONE/out/arsdk-native/build/libARCommands/obj/gen/Sources/ARCOMMANDS_Generator.c.o
                0x00038f0c                ARCOMMANDS_Generator_GenerateJumpingSumoRoadPlanScriptDelete
 .text.ARCOMMANDS_Generator_GenerateJumpingSumoRoadPlanPlayScript
                0x00038f6a       0x5e /home/ncs/CAPSTONE/out/arsdk-native/build/libARCommands/obj/gen/Sources/ARCOMMANDS_Generator.c.o
                0x00038f6a                ARCOMMANDS_Generator_GenerateJumpingSumoRoadPlanPlayScript
 .text.ARCOMMANDS_Generator_GenerateJumpingSumoSpeedSettingsOutdoor
                0x00038fc8       0x5c /home/ncs/CAPSTONE/out/arsdk-native/build/libARCommands/obj/gen/Sources/ARCOMMANDS_Generator.c.o
                0x00038fc8                ARCOMMANDS_Generator_GenerateJumpingSumoSpeedSettingsOutdoor
 .text.ARCOMMANDS_Generator_GenerateJumpingSumoMediaStreamingVideoEnable
                0x00039024       0x5c /home/ncs/CAPSTONE/out/arsdk-native/build/libARCommands/obj/gen/Sources/ARCOMMANDS_Generator.c.o
                0x00039024                ARCOMMANDS_Generator_GenerateJumpingSumoMediaStreamingVideoEnable
 .text.ARCOMMANDS_Generator_GenerateJumpingSumoVideoSettingsAutorecord
                0x00039080       0x5c /home/ncs/CAPSTONE/out/arsdk-native/build/libARCommands/obj/gen/Sources/ARCOMMANDS_Generator.c.o
                0x00039080                ARCOMMANDS_Generator_GenerateJumpingSumoVideoSettingsAutorecord
 .text.ARCOMMANDS_Generator_GenerateJumpingSumoPilotingStatePostureChanged
                0x000390dc       0x5c /home/ncs/CAPSTONE/out/arsdk-native/build/libARCommands/obj/gen/Sources/ARCOMMANDS_Generator.c.o
                0x000390dc                ARCOMMANDS_Generator_GenerateJumpingSumoPilotingStatePostureChanged
 .text.ARCOMMANDS_Generator_GenerateJumpingSumoPilotingStateAlertStateChanged
                0x00039138       0x5c /home/ncs/CAPSTONE/out/arsdk-native/build/libARCommands/obj/gen/Sources/ARCOMMANDS_Generator.c.o
                0x00039138                ARCOMMANDS_Generator_GenerateJumpingSumoPilotingStateAlertStateChanged
 .text.ARCOMMANDS_Generator_GenerateJumpingSumoPilotingStateSpeedChanged
                0x00039194       0x6e /home/ncs/CAPSTONE/out/arsdk-native/build/libARCommands/obj/gen/Sources/ARCOMMANDS_Generator.c.o
                0x00039194                ARCOMMANDS_Generator_GenerateJumpingSumoPilotingStateSpeedChanged
 .text.ARCOMMANDS_Generator_GenerateJumpingSumoAnimationsStateJumpLoadChanged
                0x00039202       0x5c /home/ncs/CAPSTONE/out/arsdk-native/build/libARCommands/obj/gen/Sources/ARCOMMANDS_Generator.c.o
                0x00039202                ARCOMMANDS_Generator_GenerateJumpingSumoAnimationsStateJumpLoadChanged
 .text.ARCOMMANDS_Generator_GenerateJumpingSumoAnimationsStateJumpTypeChanged
                0x0003925e       0x5c /home/ncs/CAPSTONE/out/arsdk-native/build/libARCommands/obj/gen/Sources/ARCOMMANDS_Generator.c.o
                0x0003925e                ARCOMMANDS_Generator_GenerateJumpingSumoAnimationsStateJumpTypeChanged
 .text.ARCOMMANDS_Generator_GenerateJumpingSumoAnimationsStateJumpMotorProblemChanged
                0x000392ba       0x5c /home/ncs/CAPSTONE/out/arsdk-native/build/libARCommands/obj/gen/Sources/ARCOMMANDS_Generator.c.o
                0x000392ba                ARCOMMANDS_Generator_GenerateJumpingSumoAnimationsStateJumpMotorProblemChanged
 .text.ARCOMMANDS_Generator_GenerateJumpingSumoSettingsStateProductGPSVersionChanged
                0x00039316       0x7a /home/ncs/CAPSTONE/out/arsdk-native/build/libARCommands/obj/gen/Sources/ARCOMMANDS_Generator.c.o
                0x00039316                ARCOMMANDS_Generator_GenerateJumpingSumoSettingsStateProductGPSVersionChanged
 .text.ARCOMMANDS_Generator_GenerateJumpingSumoMediaRecordStatePictureStateChanged
                0x00039390       0x6e /home/ncs/CAPSTONE/out/arsdk-native/build/libARCommands/obj/gen/Sources/ARCOMMANDS_Generator.c.o
                0x00039390                ARCOMMANDS_Generator_GenerateJumpingSumoMediaRecordStatePictureStateChanged
 .text.ARCOMMANDS_Generator_GenerateJumpingSumoMediaRecordStateVideoStateChanged
                0x000393fe       0x6e /home/ncs/CAPSTONE/out/arsdk-native/build/libARCommands/obj/gen/Sources/ARCOMMANDS_Generator.c.o
                0x000393fe                ARCOMMANDS_Generator_GenerateJumpingSumoMediaRecordStateVideoStateChanged
 .text.ARCOMMANDS_Generator_GenerateJumpingSumoMediaRecordStatePictureStateChangedV2
                0x0003946c       0x6c /home/ncs/CAPSTONE/out/arsdk-native/build/libARCommands/obj/gen/Sources/ARCOMMANDS_Generator.c.o
                0x0003946c                ARCOMMANDS_Generator_GenerateJumpingSumoMediaRecordStatePictureStateChangedV2
 .text.ARCOMMANDS_Generator_GenerateJumpingSumoMediaRecordStateVideoStateChangedV2
                0x000394d8       0x6c /home/ncs/CAPSTONE/out/arsdk-native/build/libARCommands/obj/gen/Sources/ARCOMMANDS_Generator.c.o
                0x000394d8                ARCOMMANDS_Generator_GenerateJumpingSumoMediaRecordStateVideoStateChangedV2
 .text.ARCOMMANDS_Generator_GenerateJumpingSumoMediaRecordEventPictureEventChanged
                0x00039544       0x6c /home/ncs/CAPSTONE/out/arsdk-native/build/libARCommands/obj/gen/Sources/ARCOMMANDS_Generator.c.o
                0x00039544                ARCOMMANDS_Generator_GenerateJumpingSumoMediaRecordEventPictureEventChanged
 .text.ARCOMMANDS_Generator_GenerateJumpingSumoMediaRecordEventVideoEventChanged
                0x000395b0       0x6c /home/ncs/CAPSTONE/out/arsdk-native/build/libARCommands/obj/gen/Sources/ARCOMMANDS_Generator.c.o
                0x000395b0                ARCOMMANDS_Generator_GenerateJumpingSumoMediaRecordEventVideoEventChanged
 .text.ARCOMMANDS_Generator_GenerateJumpingSumoNetworkSettingsStateWifiSelectionChanged
                0x0003961c       0x7e /home/ncs/CAPSTONE/out/arsdk-native/build/libARCommands/obj/gen/Sources/ARCOMMANDS_Generator.c.o
                0x0003961c                ARCOMMANDS_Generator_GenerateJumpingSumoNetworkSettingsStateWifiSelectionChanged
 .text.ARCOMMANDS_Generator_GenerateJumpingSumoNetworkStateWifiScanListChanged
                0x0003969a       0x92 /home/ncs/CAPSTONE/out/arsdk-native/build/libARCommands/obj/gen/Sources/ARCOMMANDS_Generator.c.o
                0x0003969a                ARCOMMANDS_Generator_GenerateJumpingSumoNetworkStateWifiScanListChanged
 .text.ARCOMMANDS_Generator_GenerateJumpingSumoNetworkStateAllWifiScanChanged
                0x0003972c       0x4a /home/ncs/CAPSTONE/out/arsdk-native/build/libARCommands/obj/gen/Sources/ARCOMMANDS_Generator.c.o
                0x0003972c                ARCOMMANDS_Generator_GenerateJumpingSumoNetworkStateAllWifiScanChanged
 .text.ARCOMMANDS_Generator_GenerateJumpingSumoNetworkStateWifiAuthChannelListChanged
                0x00039776       0x80 /home/ncs/CAPSTONE/out/arsdk-native/build/libARCommands/obj/gen/Sources/ARCOMMANDS_Generator.c.o
                0x00039776                ARCOMMANDS_Generator_GenerateJumpingSumoNetworkStateWifiAuthChannelListChanged
 .text.ARCOMMANDS_Generator_GenerateJumpingSumoNetworkStateAllWifiAuthChannelChanged
                0x000397f6       0x4a /home/ncs/CAPSTONE/out/arsdk-native/build/libARCommands/obj/gen/Sources/ARCOMMANDS_Generator.c.o
                0x000397f6                ARCOMMANDS_Generator_GenerateJumpingSumoNetworkStateAllWifiAuthChannelChanged
 .text.ARCOMMANDS_Generator_GenerateJumpingSumoNetworkStateLinkQualityChanged
                0x00039840       0x5c /home/ncs/CAPSTONE/out/arsdk-native/build/libARCommands/obj/gen/Sources/ARCOMMANDS_Generator.c.o
                0x00039840                ARCOMMANDS_Generator_GenerateJumpingSumoNetworkStateLinkQualityChanged
 .text.ARCOMMANDS_Generator_GenerateJumpingSumoAudioSettingsStateMasterVolumeChanged
                0x0003989c       0x5c /home/ncs/CAPSTONE/out/arsdk-native/build/libARCommands/obj/gen/Sources/ARCOMMANDS_Generator.c.o
                0x0003989c                ARCOMMANDS_Generator_GenerateJumpingSumoAudioSettingsStateMasterVolumeChanged
 .text.ARCOMMANDS_Generator_GenerateJumpingSumoAudioSettingsStateThemeChanged
                0x000398f8       0x5c /home/ncs/CAPSTONE/out/arsdk-native/build/libARCommands/obj/gen/Sources/ARCOMMANDS_Generator.c.o
                0x000398f8                ARCOMMANDS_Generator_GenerateJumpingSumoAudioSettingsStateThemeChanged
 .text.ARCOMMANDS_Generator_GenerateJumpingSumoRoadPlanStateScriptMetadataListChanged
                0x00039954       0xb6 /home/ncs/CAPSTONE/out/arsdk-native/build/libARCommands/obj/gen/Sources/ARCOMMANDS_Generator.c.o
                0x00039954                ARCOMMANDS_Generator_GenerateJumpingSumoRoadPlanStateScriptMetadataListChanged
 .text.ARCOMMANDS_Generator_GenerateJumpingSumoRoadPlanStateAllScriptsMetadataChanged
                0x00039a0a       0x4a /home/ncs/CAPSTONE/out/arsdk-native/build/libARCommands/obj/gen/Sources/ARCOMMANDS_Generator.c.o
                0x00039a0a                ARCOMMANDS_Generator_GenerateJumpingSumoRoadPlanStateAllScriptsMetadataChanged
 .text.ARCOMMANDS_Generator_GenerateJumpingSumoRoadPlanStateScriptUploadChanged
                0x00039a54       0x5c /home/ncs/CAPSTONE/out/arsdk-native/build/libARCommands/obj/gen/Sources/ARCOMMANDS_Generator.c.o
                0x00039a54                ARCOMMANDS_Generator_GenerateJumpingSumoRoadPlanStateScriptUploadChanged
 .text.ARCOMMANDS_Generator_GenerateJumpingSumoRoadPlanStateScriptDeleteChanged
                0x00039ab0       0x5c /home/ncs/CAPSTONE/out/arsdk-native/build/libARCommands/obj/gen/Sources/ARCOMMANDS_Generator.c.o
                0x00039ab0                ARCOMMANDS_Generator_GenerateJumpingSumoRoadPlanStateScriptDeleteChanged
 .text.ARCOMMANDS_Generator_GenerateJumpingSumoRoadPlanStatePlayScriptChanged
                0x00039b0c       0x5c /home/ncs/CAPSTONE/out/arsdk-native/build/libARCommands/obj/gen/Sources/ARCOMMANDS_Generator.c.o
                0x00039b0c                ARCOMMANDS_Generator_GenerateJumpingSumoRoadPlanStatePlayScriptChanged
 .text.ARCOMMANDS_Generator_GenerateJumpingSumoSpeedSettingsStateOutdoorChanged
                0x00039b68       0x5c /home/ncs/CAPSTONE/out/arsdk-native/build/libARCommands/obj/gen/Sources/ARCOMMANDS_Generator.c.o
                0x00039b68                ARCOMMANDS_Generator_GenerateJumpingSumoSpeedSettingsStateOutdoorChanged
 .text.ARCOMMANDS_Generator_GenerateJumpingSumoMediaStreamingStateVideoEnableChanged
                0x00039bc4       0x5c /home/ncs/CAPSTONE/out/arsdk-native/build/libARCommands/obj/gen/Sources/ARCOMMANDS_Generator.c.o
                0x00039bc4                ARCOMMANDS_Generator_GenerateJumpingSumoMediaStreamingStateVideoEnableChanged
 .text.ARCOMMANDS_Generator_GenerateJumpingSumoVideoSettingsStateAutorecordChanged
                0x00039c20       0x5c /home/ncs/CAPSTONE/out/arsdk-native/build/libARCommands/obj/gen/Sources/ARCOMMANDS_Generator.c.o
                0x00039c20                ARCOMMANDS_Generator_GenerateJumpingSumoVideoSettingsStateAutorecordChanged
 .text.ARCOMMANDS_Generator_GenerateMapperGrab
                0x00039c7c       0x6c /home/ncs/CAPSTONE/out/arsdk-native/build/libARCommands/obj/gen/Sources/ARCOMMANDS_Generator.c.o
                0x00039c7c                ARCOMMANDS_Generator_GenerateMapperGrab
 .text.ARCOMMANDS_Generator_GenerateMapperMapButtonAction
                0x00039ce8       0x7c /home/ncs/CAPSTONE/out/arsdk-native/build/libARCommands/obj/gen/Sources/ARCOMMANDS_Generator.c.o
                0x00039ce8                ARCOMMANDS_Generator_GenerateMapperMapButtonAction
 .text.ARCOMMANDS_Generator_GenerateMapperMapAxisAction
                0x00039d64       0x8c /home/ncs/CAPSTONE/out/arsdk-native/build/libARCommands/obj/gen/Sources/ARCOMMANDS_Generator.c.o
                0x00039d64                ARCOMMANDS_Generator_GenerateMapperMapAxisAction
 .text.ARCOMMANDS_Generator_GenerateMapperResetMapping
                0x00039df0       0x5c /home/ncs/CAPSTONE/out/arsdk-native/build/libARCommands/obj/gen/Sources/ARCOMMANDS_Generator.c.o
                0x00039df0                ARCOMMANDS_Generator_GenerateMapperResetMapping
 .text.ARCOMMANDS_Generator_GenerateMapperSetExpo
                0x00039e4c       0x7c /home/ncs/CAPSTONE/out/arsdk-native/build/libARCommands/obj/gen/Sources/ARCOMMANDS_Generator.c.o
                0x00039e4c                ARCOMMANDS_Generator_GenerateMapperSetExpo
 .text.ARCOMMANDS_Generator_GenerateMapperSetInverted
                0x00039ec8       0x7e /home/ncs/CAPSTONE/out/arsdk-native/build/libARCommands/obj/gen/Sources/ARCOMMANDS_Generator.c.o
                0x00039ec8                ARCOMMANDS_Generator_GenerateMapperSetInverted
 .text.ARCOMMANDS_Generator_GenerateMapperGrabState
                0x00039f46       0x7c /home/ncs/CAPSTONE/out/arsdk-native/build/libARCommands/obj/gen/Sources/ARCOMMANDS_Generator.c.o
                0x00039f46                ARCOMMANDS_Generator_GenerateMapperGrabState
 .text.ARCOMMANDS_Generator_GenerateMapperGrabButtonEvent
                0x00039fc2       0x6c /home/ncs/CAPSTONE/out/arsdk-native/build/libARCommands/obj/gen/Sources/ARCOMMANDS_Generator.c.o
                0x00039fc2                ARCOMMANDS_Generator_GenerateMapperGrabButtonEvent
 .text.ARCOMMANDS_Generator_GenerateMapperGrabAxisEvent
                0x0003a02e       0x6e /home/ncs/CAPSTONE/out/arsdk-native/build/libARCommands/obj/gen/Sources/ARCOMMANDS_Generator.c.o
                0x0003a02e                ARCOMMANDS_Generator_GenerateMapperGrabAxisEvent
 .text.ARCOMMANDS_Generator_GenerateMapperButtonMappingItem
                0x0003a09c       0xa0 /home/ncs/CAPSTONE/out/arsdk-native/build/libARCommands/obj/gen/Sources/ARCOMMANDS_Generator.c.o
                0x0003a09c                ARCOMMANDS_Generator_GenerateMapperButtonMappingItem
 .text.ARCOMMANDS_Generator_GenerateMapperAxisMappingItem
                0x0003a13c       0xb0 /home/ncs/CAPSTONE/out/arsdk-native/build/libARCommands/obj/gen/Sources/ARCOMMANDS_Generator.c.o
                0x0003a13c                ARCOMMANDS_Generator_GenerateMapperAxisMappingItem
 .text.ARCOMMANDS_Generator_GenerateMapperApplicationAxisEvent
                0x0003a1ec       0x6e /home/ncs/CAPSTONE/out/arsdk-native/build/libARCommands/obj/gen/Sources/ARCOMMANDS_Generator.c.o
                0x0003a1ec                ARCOMMANDS_Generator_GenerateMapperApplicationAxisEvent
 .text.ARCOMMANDS_Generator_GenerateMapperApplicationButtonEvent
                0x0003a25a       0x5c /home/ncs/CAPSTONE/out/arsdk-native/build/libARCommands/obj/gen/Sources/ARCOMMANDS_Generator.c.o
                0x0003a25a                ARCOMMANDS_Generator_GenerateMapperApplicationButtonEvent
 .text.ARCOMMANDS_Generator_GenerateMapperExpoMapItem
                0x0003a2b6       0xa0 /home/ncs/CAPSTONE/out/arsdk-native/build/libARCommands/obj/gen/Sources/ARCOMMANDS_Generator.c.o
                0x0003a2b6                ARCOMMANDS_Generator_GenerateMapperExpoMapItem
 .text.ARCOMMANDS_Generator_GenerateMapperInvertedMapItem
                0x0003a356       0xa2 /home/ncs/CAPSTONE/out/arsdk-native/build/libARCommands/obj/gen/Sources/ARCOMMANDS_Generator.c.o
                0x0003a356                ARCOMMANDS_Generator_GenerateMapperInvertedMapItem
 .text.ARCOMMANDS_Generator_GenerateMiniDronePilotingFlatTrim
                0x0003a3f8       0x4a /home/ncs/CAPSTONE/out/arsdk-native/build/libARCommands/obj/gen/Sources/ARCOMMANDS_Generator.c.o
                0x0003a3f8                ARCOMMANDS_Generator_GenerateMiniDronePilotingFlatTrim
 .text.ARCOMMANDS_Generator_GenerateMiniDronePilotingTakeOff
                0x0003a442       0x4a /home/ncs/CAPSTONE/out/arsdk-native/build/libARCommands/obj/gen/Sources/ARCOMMANDS_Generator.c.o
                0x0003a442                ARCOMMANDS_Generator_GenerateMiniDronePilotingTakeOff
 .text.ARCOMMANDS_Generator_GenerateMiniDronePilotingPCMD
                0x0003a48c       0xb4 /home/ncs/CAPSTONE/out/arsdk-native/build/libARCommands/obj/gen/Sources/ARCOMMANDS_Generator.c.o
                0x0003a48c                ARCOMMANDS_Generator_GenerateMiniDronePilotingPCMD
 .text.ARCOMMANDS_Generator_GenerateMiniDronePilotingLanding
                0x0003a540       0x4a /home/ncs/CAPSTONE/out/arsdk-native/build/libARCommands/obj/gen/Sources/ARCOMMANDS_Generator.c.o
                0x0003a540                ARCOMMANDS_Generator_GenerateMiniDronePilotingLanding
 .text.ARCOMMANDS_Generator_GenerateMiniDronePilotingEmergency
                0x0003a58a       0x4a /home/ncs/CAPSTONE/out/arsdk-native/build/libARCommands/obj/gen/Sources/ARCOMMANDS_Generator.c.o
                0x0003a58a                ARCOMMANDS_Generator_GenerateMiniDronePilotingEmergency
 .text.ARCOMMANDS_Generator_GenerateMiniDronePilotingAutoTakeOffMode
                0x0003a5d4       0x5c /home/ncs/CAPSTONE/out/arsdk-native/build/libARCommands/obj/gen/Sources/ARCOMMANDS_Generator.c.o
                0x0003a5d4                ARCOMMANDS_Generator_GenerateMiniDronePilotingAutoTakeOffMode
 .text.ARCOMMANDS_Generator_GenerateMiniDronePilotingFlyingMode
                0x0003a630       0x5c /home/ncs/CAPSTONE/out/arsdk-native/build/libARCommands/obj/gen/Sources/ARCOMMANDS_Generator.c.o
                0x0003a630                ARCOMMANDS_Generator_GenerateMiniDronePilotingFlyingMode
 .text.ARCOMMANDS_Generator_GenerateMiniDronePilotingPlaneGearBox
                0x0003a68c       0x5c /home/ncs/CAPSTONE/out/arsdk-native/build/libARCommands/obj/gen/Sources/ARCOMMANDS_Generator.c.o
                0x0003a68c                ARCOMMANDS_Generator_GenerateMiniDronePilotingPlaneGearBox
 .text.ARCOMMANDS_Generator_GenerateMiniDroneAnimationsFlip
                0x0003a6e8       0x5c /home/ncs/CAPSTONE/out/arsdk-native/build/libARCommands/obj/gen/Sources/ARCOMMANDS_Generator.c.o
                0x0003a6e8                ARCOMMANDS_Generator_GenerateMiniDroneAnimationsFlip
 .text.ARCOMMANDS_Generator_GenerateMiniDroneAnimationsCap
                0x0003a744       0x5c /home/ncs/CAPSTONE/out/arsdk-native/build/libARCommands/obj/gen/Sources/ARCOMMANDS_Generator.c.o
                0x0003a744                ARCOMMANDS_Generator_GenerateMiniDroneAnimationsCap
 .text.ARCOMMANDS_Generator_GenerateMiniDroneMediaRecordPicture
                0x0003a7a0       0x5c /home/ncs/CAPSTONE/out/arsdk-native/build/libARCommands/obj/gen/Sources/ARCOMMANDS_Generator.c.o
                0x0003a7a0                ARCOMMANDS_Generator_GenerateMiniDroneMediaRecordPicture
 .text.ARCOMMANDS_Generator_GenerateMiniDroneMediaRecordPictureV2
                0x0003a7fc       0x4a /home/ncs/CAPSTONE/out/arsdk-native/build/libARCommands/obj/gen/Sources/ARCOMMANDS_Generator.c.o
                0x0003a7fc                ARCOMMANDS_Generator_GenerateMiniDroneMediaRecordPictureV2
 .text.ARCOMMANDS_Generator_GenerateMiniDronePilotingSettingsMaxAltitude
                0x0003a846       0x68 /home/ncs/CAPSTONE/out/arsdk-native/build/libARCommands/obj/gen/Sources/ARCOMMANDS_Generator.c.o
                0x0003a846                ARCOMMANDS_Generator_GenerateMiniDronePilotingSettingsMaxAltitude
 .text.ARCOMMANDS_Generator_GenerateMiniDronePilotingSettingsMaxTilt
                0x0003a8ae       0x68 /home/ncs/CAPSTONE/out/arsdk-native/build/libARCommands/obj/gen/Sources/ARCOMMANDS_Generator.c.o
                0x0003a8ae                ARCOMMANDS_Generator_GenerateMiniDronePilotingSettingsMaxTilt
 .text.ARCOMMANDS_Generator_GenerateMiniDronePilotingSettingsPlaneModePitch
                0x0003a916       0x68 /home/ncs/CAPSTONE/out/arsdk-native/build/libARCommands/obj/gen/Sources/ARCOMMANDS_Generator.c.o
                0x0003a916                ARCOMMANDS_Generator_GenerateMiniDronePilotingSettingsPlaneModePitch
 .text.ARCOMMANDS_Generator_GenerateMiniDroneSpeedSettingsMaxVerticalSpeed
                0x0003a97e       0x68 /home/ncs/CAPSTONE/out/arsdk-native/build/libARCommands/obj/gen/Sources/ARCOMMANDS_Generator.c.o
                0x0003a97e                ARCOMMANDS_Generator_GenerateMiniDroneSpeedSettingsMaxVerticalSpeed
 .text.ARCOMMANDS_Generator_GenerateMiniDroneSpeedSettingsMaxRotationSpeed
                0x0003a9e6       0x68 /home/ncs/CAPSTONE/out/arsdk-native/build/libARCommands/obj/gen/Sources/ARCOMMANDS_Generator.c.o
                0x0003a9e6                ARCOMMANDS_Generator_GenerateMiniDroneSpeedSettingsMaxRotationSpeed
 .text.ARCOMMANDS_Generator_GenerateMiniDroneSpeedSettingsWheels
                0x0003aa4e       0x5c /home/ncs/CAPSTONE/out/arsdk-native/build/libARCommands/obj/gen/Sources/ARCOMMANDS_Generator.c.o
                0x0003aa4e                ARCOMMANDS_Generator_GenerateMiniDroneSpeedSettingsWheels
 .text.ARCOMMANDS_Generator_GenerateMiniDroneSpeedSettingsMaxHorizontalSpeed
                0x0003aaaa       0x68 /home/ncs/CAPSTONE/out/arsdk-native/build/libARCommands/obj/gen/Sources/ARCOMMANDS_Generator.c.o
                0x0003aaaa                ARCOMMANDS_Generator_GenerateMiniDroneSpeedSettingsMaxHorizontalSpeed
 .text.ARCOMMANDS_Generator_GenerateMiniDroneSpeedSettingsMaxPlaneModeRotationSpeed
                0x0003ab12       0x68 /home/ncs/CAPSTONE/out/arsdk-native/build/libARCommands/obj/gen/Sources/ARCOMMANDS_Generator.c.o
                0x0003ab12                ARCOMMANDS_Generator_GenerateMiniDroneSpeedSettingsMaxPlaneModeRotationSpeed
 .text.ARCOMMANDS_Generator_GenerateMiniDroneSettingsCutOutMode
                0x0003ab7a       0x5c /home/ncs/CAPSTONE/out/arsdk-native/build/libARCommands/obj/gen/Sources/ARCOMMANDS_Generator.c.o
                0x0003ab7a                ARCOMMANDS_Generator_GenerateMiniDroneSettingsCutOutMode
 .text.ARCOMMANDS_Generator_GenerateMiniDroneGPSControllerLatitudeForRun
                0x0003abd6       0x68 /home/ncs/CAPSTONE/out/arsdk-native/build/libARCommands/obj/gen/Sources/ARCOMMANDS_Generator.c.o
                0x0003abd6                ARCOMMANDS_Generator_GenerateMiniDroneGPSControllerLatitudeForRun
 .text.ARCOMMANDS_Generator_GenerateMiniDroneGPSControllerLongitudeForRun
                0x0003ac3e       0x68 /home/ncs/CAPSTONE/out/arsdk-native/build/libARCommands/obj/gen/Sources/ARCOMMANDS_Generator.c.o
                0x0003ac3e                ARCOMMANDS_Generator_GenerateMiniDroneGPSControllerLongitudeForRun
 .text.ARCOMMANDS_Generator_GenerateMiniDroneConfigurationControllerType
                0x0003aca6       0x5e /home/ncs/CAPSTONE/out/arsdk-native/build/libARCommands/obj/gen/Sources/ARCOMMANDS_Generator.c.o
                0x0003aca6                ARCOMMANDS_Generator_GenerateMiniDroneConfigurationControllerType
 .text.ARCOMMANDS_Generator_GenerateMiniDroneConfigurationControllerName
                0x0003ad04       0x5e /home/ncs/CAPSTONE/out/arsdk-native/build/libARCommands/obj/gen/Sources/ARCOMMANDS_Generator.c.o
                0x0003ad04                ARCOMMANDS_Generator_GenerateMiniDroneConfigurationControllerName
 .text.ARCOMMANDS_Generator_GenerateMiniDroneUsbAccessoryLightControl
                0x0003ad62       0x7e /home/ncs/CAPSTONE/out/arsdk-native/build/libARCommands/obj/gen/Sources/ARCOMMANDS_Generator.c.o
                0x0003ad62                ARCOMMANDS_Generator_GenerateMiniDroneUsbAccessoryLightControl
 .text.ARCOMMANDS_Generator_GenerateMiniDroneUsbAccessoryClawControl
                0x0003ade0       0x6c /home/ncs/CAPSTONE/out/arsdk-native/build/libARCommands/obj/gen/Sources/ARCOMMANDS_Generator.c.o
                0x0003ade0                ARCOMMANDS_Generator_GenerateMiniDroneUsbAccessoryClawControl
 .text.ARCOMMANDS_Generator_GenerateMiniDroneUsbAccessoryGunControl
                0x0003ae4c       0x6c /home/ncs/CAPSTONE/out/arsdk-native/build/libARCommands/obj/gen/Sources/ARCOMMANDS_Generator.c.o
                0x0003ae4c                ARCOMMANDS_Generator_GenerateMiniDroneUsbAccessoryGunControl
 .text.ARCOMMANDS_Generator_GenerateMiniDroneRemoteControllerSetPairedRemote
                0x0003aeb8       0x80 /home/ncs/CAPSTONE/out/arsdk-native/build/libARCommands/obj/gen/Sources/ARCOMMANDS_Generator.c.o
                0x0003aeb8                ARCOMMANDS_Generator_GenerateMiniDroneRemoteControllerSetPairedRemote
 .text.ARCOMMANDS_Generator_GenerateMiniDronePilotingStateFlatTrimChanged
                0x0003af38       0x4a /home/ncs/CAPSTONE/out/arsdk-native/build/libARCommands/obj/gen/Sources/ARCOMMANDS_Generator.c.o
                0x0003af38                ARCOMMANDS_Generator_GenerateMiniDronePilotingStateFlatTrimChanged
 .text.ARCOMMANDS_Generator_GenerateMiniDronePilotingStateFlyingStateChanged
                0x0003af82       0x5c /home/ncs/CAPSTONE/out/arsdk-native/build/libARCommands/obj/gen/Sources/ARCOMMANDS_Generator.c.o
                0x0003af82                ARCOMMANDS_Generator_GenerateMiniDronePilotingStateFlyingStateChanged
 .text.ARCOMMANDS_Generator_GenerateMiniDronePilotingStateAlertStateChanged
                0x0003afde       0x5c /home/ncs/CAPSTONE/out/arsdk-native/build/libARCommands/obj/gen/Sources/ARCOMMANDS_Generator.c.o
                0x0003afde                ARCOMMANDS_Generator_GenerateMiniDronePilotingStateAlertStateChanged
 .text.ARCOMMANDS_Generator_GenerateMiniDronePilotingStateAutoTakeOffModeChanged
                0x0003b03a       0x5c /home/ncs/CAPSTONE/out/arsdk-native/build/libARCommands/obj/gen/Sources/ARCOMMANDS_Generator.c.o
                0x0003b03a                ARCOMMANDS_Generator_GenerateMiniDronePilotingStateAutoTakeOffModeChanged
 .text.ARCOMMANDS_Generator_GenerateMiniDronePilotingStateFlyingModeChanged
                0x0003b096       0x5c /home/ncs/CAPSTONE/out/arsdk-native/build/libARCommands/obj/gen/Sources/ARCOMMANDS_Generator.c.o
                0x0003b096                ARCOMMANDS_Generator_GenerateMiniDronePilotingStateFlyingModeChanged
 .text.ARCOMMANDS_Generator_GenerateMiniDronePilotingStatePlaneGearBoxChanged
                0x0003b0f2       0x5c /home/ncs/CAPSTONE/out/arsdk-native/build/libARCommands/obj/gen/Sources/ARCOMMANDS_Generator.c.o
                0x0003b0f2                ARCOMMANDS_Generator_GenerateMiniDronePilotingStatePlaneGearBoxChanged
 .text.ARCOMMANDS_Generator_GenerateMiniDroneMediaRecordStatePictureStateChanged
                0x0003b14e       0x6e /home/ncs/CAPSTONE/out/arsdk-native/build/libARCommands/obj/gen/Sources/ARCOMMANDS_Generator.c.o
                0x0003b14e                ARCOMMANDS_Generator_GenerateMiniDroneMediaRecordStatePictureStateChanged
 .text.ARCOMMANDS_Generator_GenerateMiniDroneMediaRecordStatePictureStateChangedV2
                0x0003b1bc       0x6c /home/ncs/CAPSTONE/out/arsdk-native/build/libARCommands/obj/gen/Sources/ARCOMMANDS_Generator.c.o
                0x0003b1bc                ARCOMMANDS_Generator_GenerateMiniDroneMediaRecordStatePictureStateChangedV2
 .text.ARCOMMANDS_Generator_GenerateMiniDroneMediaRecordEventPictureEventChanged
                0x0003b228       0x6c /home/ncs/CAPSTONE/out/arsdk-native/build/libARCommands/obj/gen/Sources/ARCOMMANDS_Generator.c.o
                0x0003b228                ARCOMMANDS_Generator_GenerateMiniDroneMediaRecordEventPictureEventChanged
 .text.ARCOMMANDS_Generator_GenerateMiniDronePilotingSettingsStateMaxAltitudeChanged
                0x0003b294       0x94 /home/ncs/CAPSTONE/out/arsdk-native/build/libARCommands/obj/gen/Sources/ARCOMMANDS_Generator.c.o
                0x0003b294                ARCOMMANDS_Generator_GenerateMiniDronePilotingSettingsStateMaxAltitudeChanged
 .text.ARCOMMANDS_Generator_GenerateMiniDronePilotingSettingsStateMaxTiltChanged
                0x0003b328       0x94 /home/ncs/CAPSTONE/out/arsdk-native/build/libARCommands/obj/gen/Sources/ARCOMMANDS_Generator.c.o
                0x0003b328                ARCOMMANDS_Generator_GenerateMiniDronePilotingSettingsStateMaxTiltChanged
 .text.ARCOMMANDS_Generator_GenerateMiniDronePilotingSettingsStatePlaneModePitchChanged
                0x0003b3bc       0x94 /home/ncs/CAPSTONE/out/arsdk-native/build/libARCommands/obj/gen/Sources/ARCOMMANDS_Generator.c.o
                0x0003b3bc                ARCOMMANDS_Generator_GenerateMiniDronePilotingSettingsStatePlaneModePitchChanged
 .text.ARCOMMANDS_Generator_GenerateMiniDroneSpeedSettingsStateMaxVerticalSpeedChanged
                0x0003b450       0x94 /home/ncs/CAPSTONE/out/arsdk-native/build/libARCommands/obj/gen/Sources/ARCOMMANDS_Generator.c.o
                0x0003b450                ARCOMMANDS_Generator_GenerateMiniDroneSpeedSettingsStateMaxVerticalSpeedChanged
 .text.ARCOMMANDS_Generator_GenerateMiniDroneSpeedSettingsStateMaxRotationSpeedChanged
                0x0003b4e4       0x94 /home/ncs/CAPSTONE/out/arsdk-native/build/libARCommands/obj/gen/Sources/ARCOMMANDS_Generator.c.o
                0x0003b4e4                ARCOMMANDS_Generator_GenerateMiniDroneSpeedSettingsStateMaxRotationSpeedChanged
 .text.ARCOMMANDS_Generator_GenerateMiniDroneSpeedSettingsStateWheelsChanged
                0x0003b578       0x5c /home/ncs/CAPSTONE/out/arsdk-native/build/libARCommands/obj/gen/Sources/ARCOMMANDS_Generator.c.o
                0x0003b578                ARCOMMANDS_Generator_GenerateMiniDroneSpeedSettingsStateWheelsChanged
 .text.ARCOMMANDS_Generator_GenerateMiniDroneSpeedSettingsStateMaxHorizontalSpeedChanged
                0x0003b5d4       0x94 /home/ncs/CAPSTONE/out/arsdk-native/build/libARCommands/obj/gen/Sources/ARCOMMANDS_Generator.c.o
                0x0003b5d4                ARCOMMANDS_Generator_GenerateMiniDroneSpeedSettingsStateMaxHorizontalSpeedChanged
 .text.ARCOMMANDS_Generator_GenerateMiniDroneSpeedSettingsStateMaxPlaneModeRotationSpeedChanged
                0x0003b668       0x94 /home/ncs/CAPSTONE/out/arsdk-native/build/libARCommands/obj/gen/Sources/ARCOMMANDS_Generator.c.o
                0x0003b668                ARCOMMANDS_Generator_GenerateMiniDroneSpeedSettingsStateMaxPlaneModeRotationSpeedChanged
 .text.ARCOMMANDS_Generator_GenerateMiniDroneSettingsStateProductMotorsVersionChanged
                0x0003b6fc       0xac /home/ncs/CAPSTONE/out/arsdk-native/build/libARCommands/obj/gen/Sources/ARCOMMANDS_Generator.c.o
                0x0003b6fc                ARCOMMANDS_Generator_GenerateMiniDroneSettingsStateProductMotorsVersionChanged
 .text.ARCOMMANDS_Generator_GenerateMiniDroneSettingsStateProductInertialVersionChanged
                0x0003b7a8       0x7a /home/ncs/CAPSTONE/out/arsdk-native/build/libARCommands/obj/gen/Sources/ARCOMMANDS_Generator.c.o
                0x0003b7a8                ARCOMMANDS_Generator_GenerateMiniDroneSettingsStateProductInertialVersionChanged
 .text.ARCOMMANDS_Generator_GenerateMiniDroneSettingsStateCutOutModeChanged
                0x0003b822       0x5c /home/ncs/CAPSTONE/out/arsdk-native/build/libARCommands/obj/gen/Sources/ARCOMMANDS_Generator.c.o
                0x0003b822                ARCOMMANDS_Generator_GenerateMiniDroneSettingsStateCutOutModeChanged
 .text.ARCOMMANDS_Generator_GenerateMiniDroneFloodControlStateFloodControlChanged
                0x0003b87e       0x5c /home/ncs/CAPSTONE/out/arsdk-native/build/libARCommands/obj/gen/Sources/ARCOMMANDS_Generator.c.o
                0x0003b87e                ARCOMMANDS_Generator_GenerateMiniDroneFloodControlStateFloodControlChanged
 .text.ARCOMMANDS_Generator_GenerateMiniDroneUsbAccessoryStateLightState
                0x0003b8da       0x90 /home/ncs/CAPSTONE/out/arsdk-native/build/libARCommands/obj/gen/Sources/ARCOMMANDS_Generator.c.o
                0x0003b8da                ARCOMMANDS_Generator_GenerateMiniDroneUsbAccessoryStateLightState
 .text.ARCOMMANDS_Generator_GenerateMiniDroneUsbAccessoryStateClawState
                0x0003b96a       0x7e /home/ncs/CAPSTONE/out/arsdk-native/build/libARCommands/obj/gen/Sources/ARCOMMANDS_Generator.c.o
                0x0003b96a                ARCOMMANDS_Generator_GenerateMiniDroneUsbAccessoryStateClawState
 .text.ARCOMMANDS_Generator_GenerateMiniDroneUsbAccessoryStateGunState
                0x0003b9e8       0x7e /home/ncs/CAPSTONE/out/arsdk-native/build/libARCommands/obj/gen/Sources/ARCOMMANDS_Generator.c.o
                0x0003b9e8                ARCOMMANDS_Generator_GenerateMiniDroneUsbAccessoryStateGunState
 .text.ARCOMMANDS_Generator_GenerateMiniDroneNavigationDataStateDronePosition
                0x0003ba66       0xb4 /home/ncs/CAPSTONE/out/arsdk-native/build/libARCommands/obj/gen/Sources/ARCOMMANDS_Generator.c.o
                0x0003ba66                ARCOMMANDS_Generator_GenerateMiniDroneNavigationDataStateDronePosition
 .text.ARCOMMANDS_Generator_GeneratePowerupPilotingPCMD
                0x0003bb1a       0x80 /home/ncs/CAPSTONE/out/arsdk-native/build/libARCommands/obj/gen/Sources/ARCOMMANDS_Generator.c.o
                0x0003bb1a                ARCOMMANDS_Generator_GeneratePowerupPilotingPCMD
 .text.ARCOMMANDS_Generator_GeneratePowerupPilotingUserTakeOff
                0x0003bb9a       0x5c /home/ncs/CAPSTONE/out/arsdk-native/build/libARCommands/obj/gen/Sources/ARCOMMANDS_Generator.c.o
                0x0003bb9a                ARCOMMANDS_Generator_GeneratePowerupPilotingUserTakeOff
 .text.ARCOMMANDS_Generator_GeneratePowerupPilotingMotorMode
                0x0003bbf6       0x5c /home/ncs/CAPSTONE/out/arsdk-native/build/libARCommands/obj/gen/Sources/ARCOMMANDS_Generator.c.o
                0x0003bbf6                ARCOMMANDS_Generator_GeneratePowerupPilotingMotorMode
 .text.ARCOMMANDS_Generator_GeneratePowerupPilotingSettingsSet
                0x0003bc52       0x7a /home/ncs/CAPSTONE/out/arsdk-native/build/libARCommands/obj/gen/Sources/ARCOMMANDS_Generator.c.o
                0x0003bc52                ARCOMMANDS_Generator_GeneratePowerupPilotingSettingsSet
 .text.ARCOMMANDS_Generator_GeneratePowerupMediaRecordPictureV2
                0x0003bccc       0x4a /home/ncs/CAPSTONE/out/arsdk-native/build/libARCommands/obj/gen/Sources/ARCOMMANDS_Generator.c.o
                0x0003bccc                ARCOMMANDS_Generator_GeneratePowerupMediaRecordPictureV2
 .text.ARCOMMANDS_Generator_GeneratePowerupMediaRecordVideoV2
                0x0003bd16       0x5c /home/ncs/CAPSTONE/out/arsdk-native/build/libARCommands/obj/gen/Sources/ARCOMMANDS_Generator.c.o
                0x0003bd16                ARCOMMANDS_Generator_GeneratePowerupMediaRecordVideoV2
 .text.ARCOMMANDS_Generator_GeneratePowerupNetworkSettingsWifiSelection
                0x0003bd72       0x7e /home/ncs/CAPSTONE/out/arsdk-native/build/libARCommands/obj/gen/Sources/ARCOMMANDS_Generator.c.o
                0x0003bd72                ARCOMMANDS_Generator_GeneratePowerupNetworkSettingsWifiSelection
 .text.ARCOMMANDS_Generator_GeneratePowerupNetworkWifiScan
                0x0003bdf0       0x5c /home/ncs/CAPSTONE/out/arsdk-native/build/libARCommands/obj/gen/Sources/ARCOMMANDS_Generator.c.o
                0x0003bdf0                ARCOMMANDS_Generator_GeneratePowerupNetworkWifiScan
 .text.ARCOMMANDS_Generator_GeneratePowerupNetworkWifiAuthChannel
                0x0003be4c       0x4a /home/ncs/CAPSTONE/out/arsdk-native/build/libARCommands/obj/gen/Sources/ARCOMMANDS_Generator.c.o
                0x0003be4c                ARCOMMANDS_Generator_GeneratePowerupNetworkWifiAuthChannel
 .text.ARCOMMANDS_Generator_GeneratePowerupMediaStreamingVideoEnable
                0x0003be96       0x5c /home/ncs/CAPSTONE/out/arsdk-native/build/libARCommands/obj/gen/Sources/ARCOMMANDS_Generator.c.o
                0x0003be96                ARCOMMANDS_Generator_GeneratePowerupMediaStreamingVideoEnable
 .text.ARCOMMANDS_Generator_GeneratePowerupVideoSettingsAutorecord
                0x0003bef2       0x5c /home/ncs/CAPSTONE/out/arsdk-native/build/libARCommands/obj/gen/Sources/ARCOMMANDS_Generator.c.o
                0x0003bef2                ARCOMMANDS_Generator_GeneratePowerupVideoSettingsAutorecord
 .text.ARCOMMANDS_Generator_GeneratePowerupVideoSettingsVideoMode
                0x0003bf4e       0x5c /home/ncs/CAPSTONE/out/arsdk-native/build/libARCommands/obj/gen/Sources/ARCOMMANDS_Generator.c.o
                0x0003bf4e                ARCOMMANDS_Generator_GeneratePowerupVideoSettingsVideoMode
 .text.ARCOMMANDS_Generator_GeneratePowerupSoundsBuzz
                0x0003bfaa       0x5c /home/ncs/CAPSTONE/out/arsdk-native/build/libARCommands/obj/gen/Sources/ARCOMMANDS_Generator.c.o
                0x0003bfaa                ARCOMMANDS_Generator_GeneratePowerupSoundsBuzz
 .text.ARCOMMANDS_Generator_GeneratePowerupPilotingStateAlertStateChanged
                0x0003c006       0x5c /home/ncs/CAPSTONE/out/arsdk-native/build/libARCommands/obj/gen/Sources/ARCOMMANDS_Generator.c.o
                0x0003c006                ARCOMMANDS_Generator_GeneratePowerupPilotingStateAlertStateChanged
 .text.ARCOMMANDS_Generator_GeneratePowerupPilotingStateFlyingStateChanged
                0x0003c062       0x5c /home/ncs/CAPSTONE/out/arsdk-native/build/libARCommands/obj/gen/Sources/ARCOMMANDS_Generator.c.o
                0x0003c062                ARCOMMANDS_Generator_GeneratePowerupPilotingStateFlyingStateChanged
 .text.ARCOMMANDS_Generator_GeneratePowerupPilotingStateMotorModeChanged
                0x0003c0be       0x5c /home/ncs/CAPSTONE/out/arsdk-native/build/libARCommands/obj/gen/Sources/ARCOMMANDS_Generator.c.o
                0x0003c0be                ARCOMMANDS_Generator_GeneratePowerupPilotingStateMotorModeChanged
 .text.ARCOMMANDS_Generator_GeneratePowerupPilotingStateAttitudeChanged
                0x0003c11a       0x94 /home/ncs/CAPSTONE/out/arsdk-native/build/libARCommands/obj/gen/Sources/ARCOMMANDS_Generator.c.o
                0x0003c11a                ARCOMMANDS_Generator_GeneratePowerupPilotingStateAttitudeChanged
 .text.ARCOMMANDS_Generator_GeneratePowerupPilotingStateAltitudeChanged
                0x0003c1ae       0x68 /home/ncs/CAPSTONE/out/arsdk-native/build/libARCommands/obj/gen/Sources/ARCOMMANDS_Generator.c.o
                0x0003c1ae                ARCOMMANDS_Generator_GeneratePowerupPilotingStateAltitudeChanged
 .text.ARCOMMANDS_Generator_GeneratePowerupPilotingSettingsStateSettingChanged
                0x0003c216       0xb8 /home/ncs/CAPSTONE/out/arsdk-native/build/libARCommands/obj/gen/Sources/ARCOMMANDS_Generator.c.o
                0x0003c216                ARCOMMANDS_Generator_GeneratePowerupPilotingSettingsStateSettingChanged
 .text.ARCOMMANDS_Generator_GeneratePowerupMediaRecordStatePictureStateChangedV2
                0x0003c2ce       0x6c /home/ncs/CAPSTONE/out/arsdk-native/build/libARCommands/obj/gen/Sources/ARCOMMANDS_Generator.c.o
                0x0003c2ce                ARCOMMANDS_Generator_GeneratePowerupMediaRecordStatePictureStateChangedV2
 .text.ARCOMMANDS_Generator_GeneratePowerupMediaRecordStateVideoStateChangedV2
                0x0003c33a       0x6c /home/ncs/CAPSTONE/out/arsdk-native/build/libARCommands/obj/gen/Sources/ARCOMMANDS_Generator.c.o
                0x0003c33a                ARCOMMANDS_Generator_GeneratePowerupMediaRecordStateVideoStateChangedV2
 .text.ARCOMMANDS_Generator_GeneratePowerupMediaRecordEventPictureEventChanged
                0x0003c3a6       0x6c /home/ncs/CAPSTONE/out/arsdk-native/build/libARCommands/obj/gen/Sources/ARCOMMANDS_Generator.c.o
                0x0003c3a6                ARCOMMANDS_Generator_GeneratePowerupMediaRecordEventPictureEventChanged
 .text.ARCOMMANDS_Generator_GeneratePowerupMediaRecordEventVideoEventChanged
                0x0003c412       0x6c /home/ncs/CAPSTONE/out/arsdk-native/build/libARCommands/obj/gen/Sources/ARCOMMANDS_Generator.c.o
                0x0003c412                ARCOMMANDS_Generator_GeneratePowerupMediaRecordEventVideoEventChanged
 .text.ARCOMMANDS_Generator_GeneratePowerupNetworkSettingsStateWifiSelectionChanged
                0x0003c47e       0x7e /home/ncs/CAPSTONE/out/arsdk-native/build/libARCommands/obj/gen/Sources/ARCOMMANDS_Generator.c.o
                0x0003c47e                ARCOMMANDS_Generator_GeneratePowerupNetworkSettingsStateWifiSelectionChanged
 .text.ARCOMMANDS_Generator_GeneratePowerupNetworkStateWifiScanListChanged
                0x0003c4fc       0x92 /home/ncs/CAPSTONE/out/arsdk-native/build/libARCommands/obj/gen/Sources/ARCOMMANDS_Generator.c.o
                0x0003c4fc                ARCOMMANDS_Generator_GeneratePowerupNetworkStateWifiScanListChanged
 .text.ARCOMMANDS_Generator_GeneratePowerupNetworkStateAllWifiScanChanged
                0x0003c58e       0x4a /home/ncs/CAPSTONE/out/arsdk-native/build/libARCommands/obj/gen/Sources/ARCOMMANDS_Generator.c.o
                0x0003c58e                ARCOMMANDS_Generator_GeneratePowerupNetworkStateAllWifiScanChanged
 .text.ARCOMMANDS_Generator_GeneratePowerupNetworkStateWifiAuthChannelListChanged
                0x0003c5d8       0x80 /home/ncs/CAPSTONE/out/arsdk-native/build/libARCommands/obj/gen/Sources/ARCOMMANDS_Generator.c.o
                0x0003c5d8                ARCOMMANDS_Generator_GeneratePowerupNetworkStateWifiAuthChannelListChanged
 .text.ARCOMMANDS_Generator_GeneratePowerupNetworkStateAllWifiAuthChannelChanged
                0x0003c658       0x4a /home/ncs/CAPSTONE/out/arsdk-native/build/libARCommands/obj/gen/Sources/ARCOMMANDS_Generator.c.o
                0x0003c658                ARCOMMANDS_Generator_GeneratePowerupNetworkStateAllWifiAuthChannelChanged
 .text.ARCOMMANDS_Generator_GeneratePowerupNetworkStateLinkQualityChanged
                0x0003c6a2       0x5c /home/ncs/CAPSTONE/out/arsdk-native/build/libARCommands/obj/gen/Sources/ARCOMMANDS_Generator.c.o
                0x0003c6a2                ARCOMMANDS_Generator_GeneratePowerupNetworkStateLinkQualityChanged
 .text.ARCOMMANDS_Generator_GeneratePowerupMediaStreamingStateVideoEnableChanged
                0x0003c6fe       0x5c /home/ncs/CAPSTONE/out/arsdk-native/build/libARCommands/obj/gen/Sources/ARCOMMANDS_Generator.c.o
                0x0003c6fe                ARCOMMANDS_Generator_GeneratePowerupMediaStreamingStateVideoEnableChanged
 .text.ARCOMMANDS_Generator_GeneratePowerupVideoSettingsStateAutorecordChanged
                0x0003c75a       0x5c /home/ncs/CAPSTONE/out/arsdk-native/build/libARCommands/obj/gen/Sources/ARCOMMANDS_Generator.c.o
                0x0003c75a                ARCOMMANDS_Generator_GeneratePowerupVideoSettingsStateAutorecordChanged
 .text.ARCOMMANDS_Generator_GeneratePowerupVideoSettingsStateVideoModeChanged
                0x0003c7b6       0x5c /home/ncs/CAPSTONE/out/arsdk-native/build/libARCommands/obj/gen/Sources/ARCOMMANDS_Generator.c.o
                0x0003c7b6                ARCOMMANDS_Generator_GeneratePowerupVideoSettingsStateVideoModeChanged
 .text.ARCOMMANDS_Generator_GeneratePowerupSoundsStateBuzzChanged
                0x0003c812       0x5c /home/ncs/CAPSTONE/out/arsdk-native/build/libARCommands/obj/gen/Sources/ARCOMMANDS_Generator.c.o
                0x0003c812                ARCOMMANDS_Generator_GeneratePowerupSoundsStateBuzzChanged
 .text.ARCOMMANDS_Generator_GenerateProProBoughtFeatures
                0x0003c86e       0x5e /home/ncs/CAPSTONE/out/arsdk-native/build/libARCommands/obj/gen/Sources/ARCOMMANDS_Generator.c.o
                0x0003c86e                ARCOMMANDS_Generator_GenerateProProBoughtFeatures
 .text.ARCOMMANDS_Generator_GenerateProProResponse
                0x0003c8cc       0x78 /home/ncs/CAPSTONE/out/arsdk-native/build/libARCommands/obj/gen/Sources/ARCOMMANDS_Generator.c.o
                0x0003c8cc                ARCOMMANDS_Generator_GenerateProProResponse
 .text.ARCOMMANDS_Generator_GenerateProProActivateFeatures
                0x0003c944       0x5e /home/ncs/CAPSTONE/out/arsdk-native/build/libARCommands/obj/gen/Sources/ARCOMMANDS_Generator.c.o
                0x0003c944                ARCOMMANDS_Generator_GenerateProProActivateFeatures
 .text.ARCOMMANDS_Generator_GenerateProProStateSupportedFeatures
                0x0003c9a2       0x70 /home/ncs/CAPSTONE/out/arsdk-native/build/libARCommands/obj/gen/Sources/ARCOMMANDS_Generator.c.o
                0x0003c9a2                ARCOMMANDS_Generator_GenerateProProStateSupportedFeatures
 .text.ARCOMMANDS_Generator_GenerateProProStateFeaturesActivated
                0x0003ca12       0x5e /home/ncs/CAPSTONE/out/arsdk-native/build/libARCommands/obj/gen/Sources/ARCOMMANDS_Generator.c.o
                0x0003ca12                ARCOMMANDS_Generator_GenerateProProStateFeaturesActivated
 .text.ARCOMMANDS_Generator_GenerateProProEventChallengeEvent
                0x0003ca70       0x5e /home/ncs/CAPSTONE/out/arsdk-native/build/libARCommands/obj/gen/Sources/ARCOMMANDS_Generator.c.o
                0x0003ca70                ARCOMMANDS_Generator_GenerateProProEventChallengeEvent
 .text.ARCOMMANDS_Generator_GenerateRcMonitorChannels
                0x0003cace       0x5c /home/ncs/CAPSTONE/out/arsdk-native/build/libARCommands/obj/gen/Sources/ARCOMMANDS_Generator.c.o
                0x0003cace                ARCOMMANDS_Generator_GenerateRcMonitorChannels
 .text.ARCOMMANDS_Generator_GenerateRcStartCalibration
                0x0003cb2a       0x6c /home/ncs/CAPSTONE/out/arsdk-native/build/libARCommands/obj/gen/Sources/ARCOMMANDS_Generator.c.o
                0x0003cb2a                ARCOMMANDS_Generator_GenerateRcStartCalibration
 .text.ARCOMMANDS_Generator_GenerateRcInvertChannel
                0x0003cb96       0x6e /home/ncs/CAPSTONE/out/arsdk-native/build/libARCommands/obj/gen/Sources/ARCOMMANDS_Generator.c.o
                0x0003cb96                ARCOMMANDS_Generator_GenerateRcInvertChannel
 .text.ARCOMMANDS_Generator_GenerateRcAbortCalibration
                0x0003cc04       0x4a /home/ncs/CAPSTONE/out/arsdk-native/build/libARCommands/obj/gen/Sources/ARCOMMANDS_Generator.c.o
                0x0003cc04                ARCOMMANDS_Generator_GenerateRcAbortCalibration
 .text.ARCOMMANDS_Generator_GenerateRcResetCalibration
                0x0003cc4e       0x4a /home/ncs/CAPSTONE/out/arsdk-native/build/libARCommands/obj/gen/Sources/ARCOMMANDS_Generator.c.o
                0x0003cc4e                ARCOMMANDS_Generator_GenerateRcResetCalibration
 .text.ARCOMMANDS_Generator_GenerateRcReceiverState
                0x0003cc98       0x78 /home/ncs/CAPSTONE/out/arsdk-native/build/libARCommands/obj/gen/Sources/ARCOMMANDS_Generator.c.o
                0x0003cc98                ARCOMMANDS_Generator_GenerateRcReceiverState
 .text.ARCOMMANDS_Generator_GenerateRcChannelsMonitorState
                0x0003cd10       0x5c /home/ncs/CAPSTONE/out/arsdk-native/build/libARCommands/obj/gen/Sources/ARCOMMANDS_Generator.c.o
                0x0003cd10                ARCOMMANDS_Generator_GenerateRcChannelsMonitorState
 .text.ARCOMMANDS_Generator_GenerateRcChannelValue
                0x0003cd6c       0x90 /home/ncs/CAPSTONE/out/arsdk-native/build/libARCommands/obj/gen/Sources/ARCOMMANDS_Generator.c.o
                0x0003cd6c                ARCOMMANDS_Generator_GenerateRcChannelValue
 .text.ARCOMMANDS_Generator_GenerateRcCalibrationState
                0x0003cdfc       0xbe /home/ncs/CAPSTONE/out/arsdk-native/build/libARCommands/obj/gen/Sources/ARCOMMANDS_Generator.c.o
                0x0003cdfc                ARCOMMANDS_Generator_GenerateRcCalibrationState
 .text.ARCOMMANDS_Generator_GenerateRcReceiverQuality
                0x0003ceba       0x5c /home/ncs/CAPSTONE/out/arsdk-native/build/libARCommands/obj/gen/Sources/ARCOMMANDS_Generator.c.o
                0x0003ceba                ARCOMMANDS_Generator_GenerateRcReceiverQuality
 .text.ARCOMMANDS_Generator_GenerateSkyControllerWifiRequestWifiList
                0x0003cf16       0x4a /home/ncs/CAPSTONE/out/arsdk-native/build/libARCommands/obj/gen/Sources/ARCOMMANDS_Generator.c.o
                0x0003cf16                ARCOMMANDS_Generator_GenerateSkyControllerWifiRequestWifiList
 .text.ARCOMMANDS_Generator_GenerateSkyControllerWifiRequestCurrentWifi
                0x0003cf60       0x4a /home/ncs/CAPSTONE/out/arsdk-native/build/libARCommands/obj/gen/Sources/ARCOMMANDS_Generator.c.o
                0x0003cf60                ARCOMMANDS_Generator_GenerateSkyControllerWifiRequestCurrentWifi
 .text.ARCOMMANDS_Generator_GenerateSkyControllerWifiConnectToWifi
                0x0003cfaa       0x94 /home/ncs/CAPSTONE/out/arsdk-native/build/libARCommands/obj/gen/Sources/ARCOMMANDS_Generator.c.o
                0x0003cfaa                ARCOMMANDS_Generator_GenerateSkyControllerWifiConnectToWifi
 .text.ARCOMMANDS_Generator_GenerateSkyControllerWifiForgetWifi
                0x0003d03e       0x5e /home/ncs/CAPSTONE/out/arsdk-native/build/libARCommands/obj/gen/Sources/ARCOMMANDS_Generator.c.o
                0x0003d03e                ARCOMMANDS_Generator_GenerateSkyControllerWifiForgetWifi
 .text.ARCOMMANDS_Generator_GenerateSkyControllerWifiWifiAuthChannel
                0x0003d09c       0x4a /home/ncs/CAPSTONE/out/arsdk-native/build/libARCommands/obj/gen/Sources/ARCOMMANDS_Generator.c.o
                0x0003d09c                ARCOMMANDS_Generator_GenerateSkyControllerWifiWifiAuthChannel
 .text.ARCOMMANDS_Generator_GenerateSkyControllerDeviceRequestDeviceList
                0x0003d0e6       0x4a /home/ncs/CAPSTONE/out/arsdk-native/build/libARCommands/obj/gen/Sources/ARCOMMANDS_Generator.c.o
                0x0003d0e6                ARCOMMANDS_Generator_GenerateSkyControllerDeviceRequestDeviceList
 .text.ARCOMMANDS_Generator_GenerateSkyControllerDeviceRequestCurrentDevice
                0x0003d130       0x4a /home/ncs/CAPSTONE/out/arsdk-native/build/libARCommands/obj/gen/Sources/ARCOMMANDS_Generator.c.o
                0x0003d130                ARCOMMANDS_Generator_GenerateSkyControllerDeviceRequestCurrentDevice
 .text.ARCOMMANDS_Generator_GenerateSkyControllerDeviceConnectToDevice
                0x0003d17a       0x5e /home/ncs/CAPSTONE/out/arsdk-native/build/libARCommands/obj/gen/Sources/ARCOMMANDS_Generator.c.o
                0x0003d17a                ARCOMMANDS_Generator_GenerateSkyControllerDeviceConnectToDevice
 .text.ARCOMMANDS_Generator_GenerateSkyControllerSettingsAllSettings
                0x0003d1d8       0x4a /home/ncs/CAPSTONE/out/arsdk-native/build/libARCommands/obj/gen/Sources/ARCOMMANDS_Generator.c.o
                0x0003d1d8                ARCOMMANDS_Generator_GenerateSkyControllerSettingsAllSettings
 .text.ARCOMMANDS_Generator_GenerateSkyControllerSettingsReset
                0x0003d222       0x4a /home/ncs/CAPSTONE/out/arsdk-native/build/libARCommands/obj/gen/Sources/ARCOMMANDS_Generator.c.o
                0x0003d222                ARCOMMANDS_Generator_GenerateSkyControllerSettingsReset
 .text.ARCOMMANDS_Generator_GenerateSkyControllerCommonAllStates
                0x0003d26c       0x4a /home/ncs/CAPSTONE/out/arsdk-native/build/libARCommands/obj/gen/Sources/ARCOMMANDS_Generator.c.o
                0x0003d26c                ARCOMMANDS_Generator_GenerateSkyControllerCommonAllStates
 .text.ARCOMMANDS_Generator_GenerateSkyControllerAccessPointSettingsAccessPointSSID
                0x0003d2b6       0x5e /home/ncs/CAPSTONE/out/arsdk-native/build/libARCommands/obj/gen/Sources/ARCOMMANDS_Generator.c.o
                0x0003d2b6                ARCOMMANDS_Generator_GenerateSkyControllerAccessPointSettingsAccessPointSSID
 .text.ARCOMMANDS_Generator_GenerateSkyControllerAccessPointSettingsAccessPointChannel
                0x0003d314       0x5c /home/ncs/CAPSTONE/out/arsdk-native/build/libARCommands/obj/gen/Sources/ARCOMMANDS_Generator.c.o
                0x0003d314                ARCOMMANDS_Generator_GenerateSkyControllerAccessPointSettingsAccessPointChannel
 .text.ARCOMMANDS_Generator_GenerateSkyControllerAccessPointSettingsWifiSelection
                0x0003d370       0x7e /home/ncs/CAPSTONE/out/arsdk-native/build/libARCommands/obj/gen/Sources/ARCOMMANDS_Generator.c.o
                0x0003d370                ARCOMMANDS_Generator_GenerateSkyControllerAccessPointSettingsWifiSelection
 .text.ARCOMMANDS_Generator_GenerateSkyControllerCameraResetOrientation
                0x0003d3ee       0x4a /home/ncs/CAPSTONE/out/arsdk-native/build/libARCommands/obj/gen/Sources/ARCOMMANDS_Generator.c.o
                0x0003d3ee                ARCOMMANDS_Generator_GenerateSkyControllerCameraResetOrientation
 .text.ARCOMMANDS_Generator_GenerateSkyControllerGamepadInfosGetGamepadControls
                0x0003d438       0x4a /home/ncs/CAPSTONE/out/arsdk-native/build/libARCommands/obj/gen/Sources/ARCOMMANDS_Generator.c.o
                0x0003d438                ARCOMMANDS_Generator_GenerateSkyControllerGamepadInfosGetGamepadControls
 .text.ARCOMMANDS_Generator_GenerateSkyControllerButtonMappingsGetCurrentButtonMappings
                0x0003d482       0x4a /home/ncs/CAPSTONE/out/arsdk-native/build/libARCommands/obj/gen/Sources/ARCOMMANDS_Generator.c.o
                0x0003d482                ARCOMMANDS_Generator_GenerateSkyControllerButtonMappingsGetCurrentButtonMappings
 .text.ARCOMMANDS_Generator_GenerateSkyControllerButtonMappingsGetAvailableButtonMappings
                0x0003d4cc       0x4a /home/ncs/CAPSTONE/out/arsdk-native/build/libARCommands/obj/gen/Sources/ARCOMMANDS_Generator.c.o
                0x0003d4cc                ARCOMMANDS_Generator_GenerateSkyControllerButtonMappingsGetAvailableButtonMappings
 .text.ARCOMMANDS_Generator_GenerateSkyControllerButtonMappingsSetButtonMapping
                0x0003d516       0x78 /home/ncs/CAPSTONE/out/arsdk-native/build/libARCommands/obj/gen/Sources/ARCOMMANDS_Generator.c.o
                0x0003d516                ARCOMMANDS_Generator_GenerateSkyControllerButtonMappingsSetButtonMapping
 .text.ARCOMMANDS_Generator_GenerateSkyControllerButtonMappingsDefaultButtonMapping
                0x0003d58e       0x4a /home/ncs/CAPSTONE/out/arsdk-native/build/libARCommands/obj/gen/Sources/ARCOMMANDS_Generator.c.o
                0x0003d58e                ARCOMMANDS_Generator_GenerateSkyControllerButtonMappingsDefaultButtonMapping
 .text.ARCOMMANDS_Generator_GenerateSkyControllerAxisMappingsGetCurrentAxisMappings
                0x0003d5d8       0x4a /home/ncs/CAPSTONE/out/arsdk-native/build/libARCommands/obj/gen/Sources/ARCOMMANDS_Generator.c.o
                0x0003d5d8                ARCOMMANDS_Generator_GenerateSkyControllerAxisMappingsGetCurrentAxisMappings
 .text.ARCOMMANDS_Generator_GenerateSkyControllerAxisMappingsGetAvailableAxisMappings
                0x0003d622       0x4a /home/ncs/CAPSTONE/out/arsdk-native/build/libARCommands/obj/gen/Sources/ARCOMMANDS_Generator.c.o
                0x0003d622                ARCOMMANDS_Generator_GenerateSkyControllerAxisMappingsGetAvailableAxisMappings
 .text.ARCOMMANDS_Generator_GenerateSkyControllerAxisMappingsSetAxisMapping
                0x0003d66c       0x78 /home/ncs/CAPSTONE/out/arsdk-native/build/libARCommands/obj/gen/Sources/ARCOMMANDS_Generator.c.o
                0x0003d66c                ARCOMMANDS_Generator_GenerateSkyControllerAxisMappingsSetAxisMapping
 .text.ARCOMMANDS_Generator_GenerateSkyControllerAxisMappingsDefaultAxisMapping
                0x0003d6e4       0x4a /home/ncs/CAPSTONE/out/arsdk-native/build/libARCommands/obj/gen/Sources/ARCOMMANDS_Generator.c.o
                0x0003d6e4                ARCOMMANDS_Generator_GenerateSkyControllerAxisMappingsDefaultAxisMapping
 .text.ARCOMMANDS_Generator_GenerateSkyControllerAxisFiltersGetCurrentAxisFilters
                0x0003d72e       0x4a /home/ncs/CAPSTONE/out/arsdk-native/build/libARCommands/obj/gen/Sources/ARCOMMANDS_Generator.c.o
                0x0003d72e                ARCOMMANDS_Generator_GenerateSkyControllerAxisFiltersGetCurrentAxisFilters
 .text.ARCOMMANDS_Generator_GenerateSkyControllerAxisFiltersGetPresetAxisFilters
                0x0003d778       0x4a /home/ncs/CAPSTONE/out/arsdk-native/build/libARCommands/obj/gen/Sources/ARCOMMANDS_Generator.c.o
                0x0003d778                ARCOMMANDS_Generator_GenerateSkyControllerAxisFiltersGetPresetAxisFilters
 .text.ARCOMMANDS_Generator_GenerateSkyControllerAxisFiltersSetAxisFilter
                0x0003d7c2       0x78 /home/ncs/CAPSTONE/out/arsdk-native/build/libARCommands/obj/gen/Sources/ARCOMMANDS_Generator.c.o
                0x0003d7c2                ARCOMMANDS_Generator_GenerateSkyControllerAxisFiltersSetAxisFilter
 .text.ARCOMMANDS_Generator_GenerateSkyControllerAxisFiltersDefaultAxisFilters
                0x0003d83a       0x4a /home/ncs/CAPSTONE/out/arsdk-native/build/libARCommands/obj/gen/Sources/ARCOMMANDS_Generator.c.o
                0x0003d83a                ARCOMMANDS_Generator_GenerateSkyControllerAxisFiltersDefaultAxisFilters
 .text.ARCOMMANDS_Generator_GenerateSkyControllerCoPilotingSetPilotingSource
                0x0003d884       0x5c /home/ncs/CAPSTONE/out/arsdk-native/build/libARCommands/obj/gen/Sources/ARCOMMANDS_Generator.c.o
                0x0003d884                ARCOMMANDS_Generator_GenerateSkyControllerCoPilotingSetPilotingSource
 .text.ARCOMMANDS_Generator_GenerateSkyControllerCalibrationEnableMagnetoCalibrationQualityUpdates
                0x0003d8e0       0x5c /home/ncs/CAPSTONE/out/arsdk-native/build/libARCommands/obj/gen/Sources/ARCOMMANDS_Generator.c.o
                0x0003d8e0                ARCOMMANDS_Generator_GenerateSkyControllerCalibrationEnableMagnetoCalibrationQualityUpdates
 .text.ARCOMMANDS_Generator_GenerateSkyControllerFactoryReset
                0x0003d93c       0x4a /home/ncs/CAPSTONE/out/arsdk-native/build/libARCommands/obj/gen/Sources/ARCOMMANDS_Generator.c.o
                0x0003d93c                ARCOMMANDS_Generator_GenerateSkyControllerFactoryReset
 .text.ARCOMMANDS_Generator_GenerateSkyControllerWifiStateWifiList
                0x0003d986       0xbe /home/ncs/CAPSTONE/out/arsdk-native/build/libARCommands/obj/gen/Sources/ARCOMMANDS_Generator.c.o
                0x0003d986                ARCOMMANDS_Generator_GenerateSkyControllerWifiStateWifiList
 .text.ARCOMMANDS_Generator_GenerateSkyControllerWifiStateConnexionChanged
                0x0003da44       0x6e /home/ncs/CAPSTONE/out/arsdk-native/build/libARCommands/obj/gen/Sources/ARCOMMANDS_Generator.c.o
                0x0003da44                ARCOMMANDS_Generator_GenerateSkyControllerWifiStateConnexionChanged
 .text.ARCOMMANDS_Generator_GenerateSkyControllerWifiStateWifiAuthChannelListChanged
                0x0003dab2       0x80 /home/ncs/CAPSTONE/out/arsdk-native/build/libARCommands/obj/gen/Sources/ARCOMMANDS_Generator.c.o
                0x0003dab2                ARCOMMANDS_Generator_GenerateSkyControllerWifiStateWifiAuthChannelListChanged
 .text.ARCOMMANDS_Generator_GenerateSkyControllerWifiStateAllWifiAuthChannelChanged
                0x0003db32       0x4a /home/ncs/CAPSTONE/out/arsdk-native/build/libARCommands/obj/gen/Sources/ARCOMMANDS_Generator.c.o
                0x0003db32                ARCOMMANDS_Generator_GenerateSkyControllerWifiStateAllWifiAuthChannelChanged
 .text.ARCOMMANDS_Generator_GenerateSkyControllerWifiStateWifiSignalChanged
                0x0003db7c       0x5c /home/ncs/CAPSTONE/out/arsdk-native/build/libARCommands/obj/gen/Sources/ARCOMMANDS_Generator.c.o
                0x0003db7c                ARCOMMANDS_Generator_GenerateSkyControllerWifiStateWifiSignalChanged
 .text.ARCOMMANDS_Generator_GenerateSkyControllerDeviceStateDeviceList
                0x0003dbd8       0x5e /home/ncs/CAPSTONE/out/arsdk-native/build/libARCommands/obj/gen/Sources/ARCOMMANDS_Generator.c.o
                0x0003dbd8                ARCOMMANDS_Generator_GenerateSkyControllerDeviceStateDeviceList
 .text.ARCOMMANDS_Generator_GenerateSkyControllerDeviceStateConnexionChanged
                0x0003dc36       0x8a /home/ncs/CAPSTONE/out/arsdk-native/build/libARCommands/obj/gen/Sources/ARCOMMANDS_Generator.c.o
                0x0003dc36                ARCOMMANDS_Generator_GenerateSkyControllerDeviceStateConnexionChanged
 .text.ARCOMMANDS_Generator_GenerateSkyControllerSettingsStateAllSettingsChanged
                0x0003dcc0       0x4a /home/ncs/CAPSTONE/out/arsdk-native/build/libARCommands/obj/gen/Sources/ARCOMMANDS_Generator.c.o
                0x0003dcc0                ARCOMMANDS_Generator_GenerateSkyControllerSettingsStateAllSettingsChanged
 .text.ARCOMMANDS_Generator_GenerateSkyControllerSettingsStateResetChanged
                0x0003dd0a       0x4a /home/ncs/CAPSTONE/out/arsdk-native/build/libARCommands/obj/gen/Sources/ARCOMMANDS_Generator.c.o
                0x0003dd0a                ARCOMMANDS_Generator_GenerateSkyControllerSettingsStateResetChanged
 .text.ARCOMMANDS_Generator_GenerateSkyControllerSettingsStateProductSerialChanged
                0x0003dd54       0x5e /home/ncs/CAPSTONE/out/arsdk-native/build/libARCommands/obj/gen/Sources/ARCOMMANDS_Generator.c.o
                0x0003dd54                ARCOMMANDS_Generator_GenerateSkyControllerSettingsStateProductSerialChanged
 .text.ARCOMMANDS_Generator_GenerateSkyControllerSettingsStateProductVariantChanged
                0x0003ddb2       0x5c /home/ncs/CAPSTONE/out/arsdk-native/build/libARCommands/obj/gen/Sources/ARCOMMANDS_Generator.c.o
                0x0003ddb2                ARCOMMANDS_Generator_GenerateSkyControllerSettingsStateProductVariantChanged
 .text.ARCOMMANDS_Generator_GenerateSkyControllerSettingsStateProductVersionChanged
                0x0003de0e       0x7a /home/ncs/CAPSTONE/out/arsdk-native/build/libARCommands/obj/gen/Sources/ARCOMMANDS_Generator.c.o
                0x0003de0e                ARCOMMANDS_Generator_GenerateSkyControllerSettingsStateProductVersionChanged
 .text.ARCOMMANDS_Generator_GenerateSkyControllerCommonStateAllStatesChanged
                0x0003de88       0x4a /home/ncs/CAPSTONE/out/arsdk-native/build/libARCommands/obj/gen/Sources/ARCOMMANDS_Generator.c.o
                0x0003de88                ARCOMMANDS_Generator_GenerateSkyControllerCommonStateAllStatesChanged
 .text.ARCOMMANDS_Generator_GenerateSkyControllerSkyControllerStateBatteryChanged
                0x0003ded2       0x5c /home/ncs/CAPSTONE/out/arsdk-native/build/libARCommands/obj/gen/Sources/ARCOMMANDS_Generator.c.o
                0x0003ded2                ARCOMMANDS_Generator_GenerateSkyControllerSkyControllerStateBatteryChanged
 .text.ARCOMMANDS_Generator_GenerateSkyControllerSkyControllerStateGpsFixChanged
                0x0003df2e       0x5c /home/ncs/CAPSTONE/out/arsdk-native/build/libARCommands/obj/gen/Sources/ARCOMMANDS_Generator.c.o
                0x0003df2e                ARCOMMANDS_Generator_GenerateSkyControllerSkyControllerStateGpsFixChanged
 .text.ARCOMMANDS_Generator_GenerateSkyControllerSkyControllerStateGpsPositionChanged
                0x0003df8a       0xaa /home/ncs/CAPSTONE/out/arsdk-native/build/libARCommands/obj/gen/Sources/ARCOMMANDS_Generator.c.o
                0x0003df8a                ARCOMMANDS_Generator_GenerateSkyControllerSkyControllerStateGpsPositionChanged
 .text.ARCOMMANDS_Generator_GenerateSkyControllerSkyControllerStateBatteryState
                0x0003e034       0x5c /home/ncs/CAPSTONE/out/arsdk-native/build/libARCommands/obj/gen/Sources/ARCOMMANDS_Generator.c.o
                0x0003e034                ARCOMMANDS_Generator_GenerateSkyControllerSkyControllerStateBatteryState
 .text.ARCOMMANDS_Generator_GenerateSkyControllerSkyControllerStateAttitudeChanged
                0x0003e090       0xaa /home/ncs/CAPSTONE/out/arsdk-native/build/libARCommands/obj/gen/Sources/ARCOMMANDS_Generator.c.o
                0x0003e090                ARCOMMANDS_Generator_GenerateSkyControllerSkyControllerStateAttitudeChanged
 .text.ARCOMMANDS_Generator_GenerateSkyControllerAccessPointSettingsStateAccessPointSSIDChanged
                0x0003e13a       0x5e /home/ncs/CAPSTONE/out/arsdk-native/build/libARCommands/obj/gen/Sources/ARCOMMANDS_Generator.c.o
                0x0003e13a                ARCOMMANDS_Generator_GenerateSkyControllerAccessPointSettingsStateAccessPointSSIDChanged
 .text.ARCOMMANDS_Generator_GenerateSkyControllerAccessPointSettingsStateAccessPointChannelChanged
                0x0003e198       0x5c /home/ncs/CAPSTONE/out/arsdk-native/build/libARCommands/obj/gen/Sources/ARCOMMANDS_Generator.c.o
                0x0003e198                ARCOMMANDS_Generator_GenerateSkyControllerAccessPointSettingsStateAccessPointChannelChanged
 .text.ARCOMMANDS_Generator_GenerateSkyControllerAccessPointSettingsStateWifiSelectionChanged
                0x0003e1f4       0x7e /home/ncs/CAPSTONE/out/arsdk-native/build/libARCommands/obj/gen/Sources/ARCOMMANDS_Generator.c.o
                0x0003e1f4                ARCOMMANDS_Generator_GenerateSkyControllerAccessPointSettingsStateWifiSelectionChanged
 .text.ARCOMMANDS_Generator_GenerateSkyControllerGamepadInfosStateGamepadControl
                0x0003e272       0x88 /home/ncs/CAPSTONE/out/arsdk-native/build/libARCommands/obj/gen/Sources/ARCOMMANDS_Generator.c.o
                0x0003e272                ARCOMMANDS_Generator_GenerateSkyControllerGamepadInfosStateGamepadControl
 .text.ARCOMMANDS_Generator_GenerateSkyControllerGamepadInfosStateAllGamepadControlsSent
                0x0003e2fa       0x4a /home/ncs/CAPSTONE/out/arsdk-native/build/libARCommands/obj/gen/Sources/ARCOMMANDS_Generator.c.o
                0x0003e2fa                ARCOMMANDS_Generator_GenerateSkyControllerGamepadInfosStateAllGamepadControlsSent
 .text.ARCOMMANDS_Generator_GenerateSkyControllerButtonMappingsStateCurrentButtonMappings
                0x0003e344       0x78 /home/ncs/CAPSTONE/out/arsdk-native/build/libARCommands/obj/gen/Sources/ARCOMMANDS_Generator.c.o
                0x0003e344                ARCOMMANDS_Generator_GenerateSkyControllerButtonMappingsStateCurrentButtonMappings
 .text.ARCOMMANDS_Generator_GenerateSkyControllerButtonMappingsStateAllCurrentButtonMappingsSent
                0x0003e3bc       0x4a /home/ncs/CAPSTONE/out/arsdk-native/build/libARCommands/obj/gen/Sources/ARCOMMANDS_Generator.c.o
                0x0003e3bc                ARCOMMANDS_Generator_GenerateSkyControllerButtonMappingsStateAllCurrentButtonMappingsSent
 .text.ARCOMMANDS_Generator_GenerateSkyControllerButtonMappingsStateAvailableButtonMappings
                0x0003e406       0x7a /home/ncs/CAPSTONE/out/arsdk-native/build/libARCommands/obj/gen/Sources/ARCOMMANDS_Generator.c.o
                0x0003e406                ARCOMMANDS_Generator_GenerateSkyControllerButtonMappingsStateAvailableButtonMappings
 .text.ARCOMMANDS_Generator_GenerateSkyControllerButtonMappingsStateAllAvailableButtonsMappingsSent
                0x0003e480       0x4a /home/ncs/CAPSTONE/out/arsdk-native/build/libARCommands/obj/gen/Sources/ARCOMMANDS_Generator.c.o
                0x0003e480                ARCOMMANDS_Generator_GenerateSkyControllerButtonMappingsStateAllAvailableButtonsMappingsSent
 .text.ARCOMMANDS_Generator_GenerateSkyControllerAxisMappingsStateCurrentAxisMappings
                0x0003e4ca       0x78 /home/ncs/CAPSTONE/out/arsdk-native/build/libARCommands/obj/gen/Sources/ARCOMMANDS_Generator.c.o
                0x0003e4ca                ARCOMMANDS_Generator_GenerateSkyControllerAxisMappingsStateCurrentAxisMappings
 .text.ARCOMMANDS_Generator_GenerateSkyControllerAxisMappingsStateAllCurrentAxisMappingsSent
                0x0003e542       0x4a /home/ncs/CAPSTONE/out/arsdk-native/build/libARCommands/obj/gen/Sources/ARCOMMANDS_Generator.c.o
                0x0003e542                ARCOMMANDS_Generator_GenerateSkyControllerAxisMappingsStateAllCurrentAxisMappingsSent
 .text.ARCOMMANDS_Generator_GenerateSkyControllerAxisMappingsStateAvailableAxisMappings
                0x0003e58c       0x7a /home/ncs/CAPSTONE/out/arsdk-native/build/libARCommands/obj/gen/Sources/ARCOMMANDS_Generator.c.o
                0x0003e58c                ARCOMMANDS_Generator_GenerateSkyControllerAxisMappingsStateAvailableAxisMappings
 .text.ARCOMMANDS_Generator_GenerateSkyControllerAxisMappingsStateAllAvailableAxisMappingsSent
                0x0003e606       0x4a /home/ncs/CAPSTONE/out/arsdk-native/build/libARCommands/obj/gen/Sources/ARCOMMANDS_Generator.c.o
                0x0003e606                ARCOMMANDS_Generator_GenerateSkyControllerAxisMappingsStateAllAvailableAxisMappingsSent
 .text.ARCOMMANDS_Generator_GenerateSkyControllerAxisFiltersStateCurrentAxisFilters
                0x0003e650       0x78 /home/ncs/CAPSTONE/out/arsdk-native/build/libARCommands/obj/gen/Sources/ARCOMMANDS_Generator.c.o
                0x0003e650                ARCOMMANDS_Generator_GenerateSkyControllerAxisFiltersStateCurrentAxisFilters
 .text.ARCOMMANDS_Generator_GenerateSkyControllerAxisFiltersStateAllCurrentFiltersSent
                0x0003e6c8       0x4a /home/ncs/CAPSTONE/out/arsdk-native/build/libARCommands/obj/gen/Sources/ARCOMMANDS_Generator.c.o
                0x0003e6c8                ARCOMMANDS_Generator_GenerateSkyControllerAxisFiltersStateAllCurrentFiltersSent
 .text.ARCOMMANDS_Generator_GenerateSkyControllerAxisFiltersStatePresetAxisFilters
                0x0003e712       0x7a /home/ncs/CAPSTONE/out/arsdk-native/build/libARCommands/obj/gen/Sources/ARCOMMANDS_Generator.c.o
                0x0003e712                ARCOMMANDS_Generator_GenerateSkyControllerAxisFiltersStatePresetAxisFilters
 .text.ARCOMMANDS_Generator_GenerateSkyControllerAxisFiltersStateAllPresetFiltersSent
                0x0003e78c       0x4a /home/ncs/CAPSTONE/out/arsdk-native/build/libARCommands/obj/gen/Sources/ARCOMMANDS_Generator.c.o
                0x0003e78c                ARCOMMANDS_Generator_GenerateSkyControllerAxisFiltersStateAllPresetFiltersSent
 .text.ARCOMMANDS_Generator_GenerateSkyControllerCoPilotingStatePilotingSource
                0x0003e7d6       0x5c /home/ncs/CAPSTONE/out/arsdk-native/build/libARCommands/obj/gen/Sources/ARCOMMANDS_Generator.c.o
                0x0003e7d6                ARCOMMANDS_Generator_GenerateSkyControllerCoPilotingStatePilotingSource
 .text.ARCOMMANDS_Generator_GenerateSkyControllerCalibrationStateMagnetoCalibrationState
                0x0003e832       0x92 /home/ncs/CAPSTONE/out/arsdk-native/build/libARCommands/obj/gen/Sources/ARCOMMANDS_Generator.c.o
                0x0003e832                ARCOMMANDS_Generator_GenerateSkyControllerCalibrationStateMagnetoCalibrationState
 .text.ARCOMMANDS_Generator_GenerateSkyControllerCalibrationStateMagnetoCalibrationQualityUpdatesState
                0x0003e8c4       0x5c /home/ncs/CAPSTONE/out/arsdk-native/build/libARCommands/obj/gen/Sources/ARCOMMANDS_Generator.c.o
                0x0003e8c4                ARCOMMANDS_Generator_GenerateSkyControllerCalibrationStateMagnetoCalibrationQualityUpdatesState
 .text.ARCOMMANDS_Generator_GenerateSkyControllerButtonEventsSettings
                0x0003e920       0x4a /home/ncs/CAPSTONE/out/arsdk-native/build/libARCommands/obj/gen/Sources/ARCOMMANDS_Generator.c.o
                0x0003e920                ARCOMMANDS_Generator_GenerateSkyControllerButtonEventsSettings
 .text.ARCOMMANDS_Generator_GenerateUnknownFeature1GeographicRun
                0x0003e96a       0xdc /home/ncs/CAPSTONE/out/arsdk-native/build/libARCommands/obj/gen/Sources/ARCOMMANDS_Generator.c.o
                0x0003e96a                ARCOMMANDS_Generator_GenerateUnknownFeature1GeographicRun
 .text.ARCOMMANDS_Generator_GenerateUnknownFeature1RelativeRun
                0x0003ea46       0xdc /home/ncs/CAPSTONE/out/arsdk-native/build/libARCommands/obj/gen/Sources/ARCOMMANDS_Generator.c.o
                0x0003ea46                ARCOMMANDS_Generator_GenerateUnknownFeature1RelativeRun
 .text.ARCOMMANDS_Generator_GenerateUnknownFeature1LookAtRun
                0x0003eb22       0x5c /home/ncs/CAPSTONE/out/arsdk-native/build/libARCommands/obj/gen/Sources/ARCOMMANDS_Generator.c.o
                0x0003eb22                ARCOMMANDS_Generator_GenerateUnknownFeature1LookAtRun
 .text.ARCOMMANDS_Generator_GenerateUnknownFeature1SpiralAnimRun
                0x0003eb7e       0xdc /home/ncs/CAPSTONE/out/arsdk-native/build/libARCommands/obj/gen/Sources/ARCOMMANDS_Generator.c.o
                0x0003eb7e                ARCOMMANDS_Generator_GenerateUnknownFeature1SpiralAnimRun
 .text.ARCOMMANDS_Generator_GenerateUnknownFeature1SwingAnimRun
                0x0003ec5a       0xb4 /home/ncs/CAPSTONE/out/arsdk-native/build/libARCommands/obj/gen/Sources/ARCOMMANDS_Generator.c.o
                0x0003ec5a                ARCOMMANDS_Generator_GenerateUnknownFeature1SwingAnimRun
 .text.ARCOMMANDS_Generator_GenerateUnknownFeature1BoomerangAnimRun
                0x0003ed0e       0xb4 /home/ncs/CAPSTONE/out/arsdk-native/build/libARCommands/obj/gen/Sources/ARCOMMANDS_Generator.c.o
                0x0003ed0e                ARCOMMANDS_Generator_GenerateUnknownFeature1BoomerangAnimRun
 .text.ARCOMMANDS_Generator_GenerateUnknownFeature1CandleAnimRun
                0x0003edc2       0xb4 /home/ncs/CAPSTONE/out/arsdk-native/build/libARCommands/obj/gen/Sources/ARCOMMANDS_Generator.c.o
                0x0003edc2                ARCOMMANDS_Generator_GenerateUnknownFeature1CandleAnimRun
 .text.ARCOMMANDS_Generator_GenerateUnknownFeature1DollySlideAnimRun
                0x0003ee76       0xdc /home/ncs/CAPSTONE/out/arsdk-native/build/libARCommands/obj/gen/Sources/ARCOMMANDS_Generator.c.o
                0x0003ee76                ARCOMMANDS_Generator_GenerateUnknownFeature1DollySlideAnimRun
 .text.ARCOMMANDS_Generator_GenerateUnknownFeature1UserFramingPosition
                0x0003ef52       0x6e /home/ncs/CAPSTONE/out/arsdk-native/build/libARCommands/obj/gen/Sources/ARCOMMANDS_Generator.c.o
                0x0003ef52                ARCOMMANDS_Generator_GenerateUnknownFeature1UserFramingPosition
 .text.ARCOMMANDS_Generator_GenerateUnknownFeature1UserGPSData
                0x0003efc0      0x118 /home/ncs/CAPSTONE/out/arsdk-native/build/libARCommands/obj/gen/Sources/ARCOMMANDS_Generator.c.o
                0x0003efc0                ARCOMMANDS_Generator_GenerateUnknownFeature1UserGPSData
 .text.ARCOMMANDS_Generator_GenerateUnknownFeature1UserBaroData
                0x0003f0d8       0x7e /home/ncs/CAPSTONE/out/arsdk-native/build/libARCommands/obj/gen/Sources/ARCOMMANDS_Generator.c.o
                0x0003f0d8                ARCOMMANDS_Generator_GenerateUnknownFeature1UserBaroData
 .text.ARCOMMANDS_Generator_GenerateUnknownFeature1LynxDetection
                0x0003f156       0xce /home/ncs/CAPSTONE/out/arsdk-native/build/libARCommands/obj/gen/Sources/ARCOMMANDS_Generator.c.o
                0x0003f156                ARCOMMANDS_Generator_GenerateUnknownFeature1LynxDetection
 .text.ARCOMMANDS_Generator_GenerateUnknownFeature1Availability
                0x0003f224       0x5c /home/ncs/CAPSTONE/out/arsdk-native/build/libARCommands/obj/gen/Sources/ARCOMMANDS_Generator.c.o
                0x0003f224                ARCOMMANDS_Generator_GenerateUnknownFeature1Availability
 .text.ARCOMMANDS_Generator_GenerateUnknownFeature1Run
                0x0003f280       0x5c /home/ncs/CAPSTONE/out/arsdk-native/build/libARCommands/obj/gen/Sources/ARCOMMANDS_Generator.c.o
                0x0003f280                ARCOMMANDS_Generator_GenerateUnknownFeature1Run
 .text.ARCOMMANDS_Generator_GenerateUnknownFeature1GeographicConfigChanged
                0x0003f2dc       0xca /home/ncs/CAPSTONE/out/arsdk-native/build/libARCommands/obj/gen/Sources/ARCOMMANDS_Generator.c.o
                0x0003f2dc                ARCOMMANDS_Generator_GenerateUnknownFeature1GeographicConfigChanged
 .text.ARCOMMANDS_Generator_GenerateUnknownFeature1RelativeConfigChanged
                0x0003f3a6       0xca /home/ncs/CAPSTONE/out/arsdk-native/build/libARCommands/obj/gen/Sources/ARCOMMANDS_Generator.c.o
                0x0003f3a6                ARCOMMANDS_Generator_GenerateUnknownFeature1RelativeConfigChanged
 .text.ARCOMMANDS_Generator_GenerateUnknownFeature1AnimRun
                0x0003f470       0x5c /home/ncs/CAPSTONE/out/arsdk-native/build/libARCommands/obj/gen/Sources/ARCOMMANDS_Generator.c.o
                0x0003f470                ARCOMMANDS_Generator_GenerateUnknownFeature1AnimRun
 .text.ARCOMMANDS_Generator_GenerateUnknownFeature1SpiralAnimConfigChanged
                0x0003f4cc       0xca /home/ncs/CAPSTONE/out/arsdk-native/build/libARCommands/obj/gen/Sources/ARCOMMANDS_Generator.c.o
                0x0003f4cc                ARCOMMANDS_Generator_GenerateUnknownFeature1SpiralAnimConfigChanged
 .text.ARCOMMANDS_Generator_GenerateUnknownFeature1SwingAnimConfigChanged
                0x0003f596       0xa2 /home/ncs/CAPSTONE/out/arsdk-native/build/libARCommands/obj/gen/Sources/ARCOMMANDS_Generator.c.o
                0x0003f596                ARCOMMANDS_Generator_GenerateUnknownFeature1SwingAnimConfigChanged
 .text.ARCOMMANDS_Generator_GenerateUnknownFeature1BoomerangAnimConfigChanged
                0x0003f638       0xa2 /home/ncs/CAPSTONE/out/arsdk-native/build/libARCommands/obj/gen/Sources/ARCOMMANDS_Generator.c.o
                0x0003f638                ARCOMMANDS_Generator_GenerateUnknownFeature1BoomerangAnimConfigChanged
 .text.ARCOMMANDS_Generator_GenerateUnknownFeature1CandleAnimConfigChanged
                0x0003f6da       0xa2 /home/ncs/CAPSTONE/out/arsdk-native/build/libARCommands/obj/gen/Sources/ARCOMMANDS_Generator.c.o
                0x0003f6da                ARCOMMANDS_Generator_GenerateUnknownFeature1CandleAnimConfigChanged
 .text.ARCOMMANDS_Generator_GenerateUnknownFeature1DollySlideAnimConfigChanged
                0x0003f77c       0xca /home/ncs/CAPSTONE/out/arsdk-native/build/libARCommands/obj/gen/Sources/ARCOMMANDS_Generator.c.o
                0x0003f77c                ARCOMMANDS_Generator_GenerateUnknownFeature1DollySlideAnimConfigChanged
 .text.ARCOMMANDS_Generator_GenerateUnknownFeature1UserFramingPositionChanged
                0x0003f846       0x6e /home/ncs/CAPSTONE/out/arsdk-native/build/libARCommands/obj/gen/Sources/ARCOMMANDS_Generator.c.o
                0x0003f846                ARCOMMANDS_Generator_GenerateUnknownFeature1UserFramingPositionChanged
 .text.ARCOMMANDS_Generator_GenerateWifiScan
                0x0003f8b4       0x5c /home/ncs/CAPSTONE/out/arsdk-native/build/libARCommands/obj/gen/Sources/ARCOMMANDS_Generator.c.o
                0x0003f8b4                ARCOMMANDS_Generator_GenerateWifiScan
 .text.ARCOMMANDS_Generator_GenerateWifiUpdateAuthorizedChannels
                0x0003f910       0x4a /home/ncs/CAPSTONE/out/arsdk-native/build/libARCommands/obj/gen/Sources/ARCOMMANDS_Generator.c.o
                0x0003f910                ARCOMMANDS_Generator_GenerateWifiUpdateAuthorizedChannels
 .text.ARCOMMANDS_Generator_GenerateWifiSetApChannel
                0x0003f95a       0x7e /home/ncs/CAPSTONE/out/arsdk-native/build/libARCommands/obj/gen/Sources/ARCOMMANDS_Generator.c.o
                0x0003f95a                ARCOMMANDS_Generator_GenerateWifiSetApChannel
 .text.ARCOMMANDS_Generator_GenerateWifiSetSecurity
                0x0003f9d8       0x88 /home/ncs/CAPSTONE/out/arsdk-native/build/libARCommands/obj/gen/Sources/ARCOMMANDS_Generator.c.o
                0x0003f9d8                ARCOMMANDS_Generator_GenerateWifiSetSecurity
 .text.ARCOMMANDS_Generator_GenerateWifiSetCountry
                0x0003fa60       0x78 /home/ncs/CAPSTONE/out/arsdk-native/build/libARCommands/obj/gen/Sources/ARCOMMANDS_Generator.c.o
                0x0003fa60                ARCOMMANDS_Generator_GenerateWifiSetCountry
 .text.ARCOMMANDS_Generator_GenerateWifiSetEnvironment
                0x0003fad8       0x5c /home/ncs/CAPSTONE/out/arsdk-native/build/libARCommands/obj/gen/Sources/ARCOMMANDS_Generator.c.o
                0x0003fad8                ARCOMMANDS_Generator_GenerateWifiSetEnvironment
 .text.ARCOMMANDS_Generator_GenerateWifiScannedItem
                0x0003fb34       0xa4 /home/ncs/CAPSTONE/out/arsdk-native/build/libARCommands/obj/gen/Sources/ARCOMMANDS_Generator.c.o
                0x0003fb34                ARCOMMANDS_Generator_GenerateWifiScannedItem
 .text.ARCOMMANDS_Generator_GenerateWifiAuthorizedChannel
                0x0003fbd8       0x92 /home/ncs/CAPSTONE/out/arsdk-native/build/libARCommands/obj/gen/Sources/ARCOMMANDS_Generator.c.o
                0x0003fbd8                ARCOMMANDS_Generator_GenerateWifiAuthorizedChannel
 .text.ARCOMMANDS_Generator_GenerateWifiApChannelChanged
                0x0003fc6a       0x7e /home/ncs/CAPSTONE/out/arsdk-native/build/libARCommands/obj/gen/Sources/ARCOMMANDS_Generator.c.o
                0x0003fc6a                ARCOMMANDS_Generator_GenerateWifiApChannelChanged
 .text.ARCOMMANDS_Generator_GenerateWifiSecurityChanged
                0x0003fce8       0x6e /home/ncs/CAPSTONE/out/arsdk-native/build/libARCommands/obj/gen/Sources/ARCOMMANDS_Generator.c.o
                0x0003fce8                ARCOMMANDS_Generator_GenerateWifiSecurityChanged
 .text.ARCOMMANDS_Generator_GenerateWifiCountryChanged
                0x0003fd56       0x78 /home/ncs/CAPSTONE/out/arsdk-native/build/libARCommands/obj/gen/Sources/ARCOMMANDS_Generator.c.o
                0x0003fd56                ARCOMMANDS_Generator_GenerateWifiCountryChanged
 .text.ARCOMMANDS_Generator_GenerateWifiEnvironmentChanged
                0x0003fdce       0x5c /home/ncs/CAPSTONE/out/arsdk-native/build/libARCommands/obj/gen/Sources/ARCOMMANDS_Generator.c.o
                0x0003fdce                ARCOMMANDS_Generator_GenerateWifiEnvironmentChanged
 .text.ARCOMMANDS_Generator_GenerateWifiRssiChanged
                0x0003fe2a       0x5c /home/ncs/CAPSTONE/out/arsdk-native/build/libARCommands/obj/gen/Sources/ARCOMMANDS_Generator.c.o
                0x0003fe2a                ARCOMMANDS_Generator_GenerateWifiRssiChanged
 *fill*         0x0003fe86        0x2 
 .text.ARCOMMANDS_Decoder_Init
                0x0003fe88       0x28 /home/ncs/CAPSTONE/out/arsdk-native/build/libARCommands/obj/gen/Sources/ARCOMMANDS_Decoder.c.o
 .text.ARCOMMANDS_Decoder_NewDecoder
                0x0003feb0       0x26 /home/ncs/CAPSTONE/out/arsdk-native/build/libARCommands/obj/gen/Sources/ARCOMMANDS_Decoder.c.o
                0x0003feb0                ARCOMMANDS_Decoder_NewDecoder
 .text.ARCOMMANDS_Decoder_DeleteDecoder
                0x0003fed6       0x1a /home/ncs/CAPSTONE/out/arsdk-native/build/libARCommands/obj/gen/Sources/ARCOMMANDS_Decoder.c.o
                0x0003fed6                ARCOMMANDS_Decoder_DeleteDecoder
 .text.ARCOMMANDS_Decoder_SetGenericDefaultCb
                0x0003fef0       0x1e /home/ncs/CAPSTONE/out/arsdk-native/build/libARCommands/obj/gen/Sources/ARCOMMANDS_Decoder.c.o
                0x0003fef0                ARCOMMANDS_Decoder_SetGenericDefaultCb
 *fill*         0x0003ff0e        0x2 
 .text.ARCOMMANDS_Decoder_SetGenericDefaultCallback
                0x0003ff10       0x30 /home/ncs/CAPSTONE/out/arsdk-native/build/libARCommands/obj/gen/Sources/ARCOMMANDS_Decoder.c.o
                0x0003ff10                ARCOMMANDS_Decoder_SetGenericDefaultCallback
 .text.ARCOMMANDS_Decoder_SetARDrone3PilotingFlatTrimCb
                0x0003ff40       0x1e /home/ncs/CAPSTONE/out/arsdk-native/build/libARCommands/obj/gen/Sources/ARCOMMANDS_Decoder.c.o
                0x0003ff40                ARCOMMANDS_Decoder_SetARDrone3PilotingFlatTrimCb
 *fill*         0x0003ff5e        0x2 
 .text.ARCOMMANDS_Decoder_SetARDrone3PilotingFlatTrimCallback
                0x0003ff60       0x30 /home/ncs/CAPSTONE/out/arsdk-native/build/libARCommands/obj/gen/Sources/ARCOMMANDS_Decoder.c.o
                0x0003ff60                ARCOMMANDS_Decoder_SetARDrone3PilotingFlatTrimCallback
 .text.ARCOMMANDS_Decoder_SetARDrone3PilotingTakeOffCb
                0x0003ff90       0x1e /home/ncs/CAPSTONE/out/arsdk-native/build/libARCommands/obj/gen/Sources/ARCOMMANDS_Decoder.c.o
                0x0003ff90                ARCOMMANDS_Decoder_SetARDrone3PilotingTakeOffCb
 *fill*         0x0003ffae        0x2 
 .text.ARCOMMANDS_Decoder_SetARDrone3PilotingTakeOffCallback
                0x0003ffb0       0x30 /home/ncs/CAPSTONE/out/arsdk-native/build/libARCommands/obj/gen/Sources/ARCOMMANDS_Decoder.c.o
                0x0003ffb0                ARCOMMANDS_Decoder_SetARDrone3PilotingTakeOffCallback
 .text.ARCOMMANDS_Decoder_SetARDrone3PilotingPCMDCb
                0x0003ffe0       0x1e /home/ncs/CAPSTONE/out/arsdk-native/build/libARCommands/obj/gen/Sources/ARCOMMANDS_Decoder.c.o
                0x0003ffe0                ARCOMMANDS_Decoder_SetARDrone3PilotingPCMDCb
 *fill*         0x0003fffe        0x2 
 .text.ARCOMMANDS_Decoder_SetARDrone3PilotingPCMDCallback
                0x00040000       0x30 /home/ncs/CAPSTONE/out/arsdk-native/build/libARCommands/obj/gen/Sources/ARCOMMANDS_Decoder.c.o
                0x00040000                ARCOMMANDS_Decoder_SetARDrone3PilotingPCMDCallback
 .text.ARCOMMANDS_Decoder_SetARDrone3PilotingLandingCb
                0x00040030       0x1e /home/ncs/CAPSTONE/out/arsdk-native/build/libARCommands/obj/gen/Sources/ARCOMMANDS_Decoder.c.o
                0x00040030                ARCOMMANDS_Decoder_SetARDrone3PilotingLandingCb
 *fill*         0x0004004e        0x2 
 .text.ARCOMMANDS_Decoder_SetARDrone3PilotingLandingCallback
                0x00040050       0x30 /home/ncs/CAPSTONE/out/arsdk-native/build/libARCommands/obj/gen/Sources/ARCOMMANDS_Decoder.c.o
                0x00040050                ARCOMMANDS_Decoder_SetARDrone3PilotingLandingCallback
 .text.ARCOMMANDS_Decoder_SetARDrone3PilotingEmergencyCb
                0x00040080       0x1e /home/ncs/CAPSTONE/out/arsdk-native/build/libARCommands/obj/gen/Sources/ARCOMMANDS_Decoder.c.o
                0x00040080                ARCOMMANDS_Decoder_SetARDrone3PilotingEmergencyCb
 *fill*         0x0004009e        0x2 
 .text.ARCOMMANDS_Decoder_SetARDrone3PilotingEmergencyCallback
                0x000400a0       0x30 /home/ncs/CAPSTONE/out/arsdk-native/build/libARCommands/obj/gen/Sources/ARCOMMANDS_Decoder.c.o
                0x000400a0                ARCOMMANDS_Decoder_SetARDrone3PilotingEmergencyCallback
 .text.ARCOMMANDS_Decoder_SetARDrone3PilotingNavigateHomeCb
                0x000400d0       0x1e /home/ncs/CAPSTONE/out/arsdk-native/build/libARCommands/obj/gen/Sources/ARCOMMANDS_Decoder.c.o
                0x000400d0                ARCOMMANDS_Decoder_SetARDrone3PilotingNavigateHomeCb
 *fill*         0x000400ee        0x2 
 .text.ARCOMMANDS_Decoder_SetARDrone3PilotingNavigateHomeCallback
                0x000400f0       0x30 /home/ncs/CAPSTONE/out/arsdk-native/build/libARCommands/obj/gen/Sources/ARCOMMANDS_Decoder.c.o
                0x000400f0                ARCOMMANDS_Decoder_SetARDrone3PilotingNavigateHomeCallback
 .text.ARCOMMANDS_Decoder_SetARDrone3PilotingAutoTakeOffModeCb
                0x00040120       0x1e /home/ncs/CAPSTONE/out/arsdk-native/build/libARCommands/obj/gen/Sources/ARCOMMANDS_Decoder.c.o
                0x00040120                ARCOMMANDS_Decoder_SetARDrone3PilotingAutoTakeOffModeCb
 *fill*         0x0004013e        0x2 
 .text.ARCOMMANDS_Decoder_SetARDrone3PilotingAutoTakeOffModeCallback
                0x00040140       0x30 /home/ncs/CAPSTONE/out/arsdk-native/build/libARCommands/obj/gen/Sources/ARCOMMANDS_Decoder.c.o
                0x00040140                ARCOMMANDS_Decoder_SetARDrone3PilotingAutoTakeOffModeCallback
 .text.ARCOMMANDS_Decoder_SetARDrone3PilotingMoveByCb
                0x00040170       0x1e /home/ncs/CAPSTONE/out/arsdk-native/build/libARCommands/obj/gen/Sources/ARCOMMANDS_Decoder.c.o
                0x00040170                ARCOMMANDS_Decoder_SetARDrone3PilotingMoveByCb
 *fill*         0x0004018e        0x2 
 .text.ARCOMMANDS_Decoder_SetARDrone3PilotingMoveByCallback
                0x00040190       0x30 /home/ncs/CAPSTONE/out/arsdk-native/build/libARCommands/obj/gen/Sources/ARCOMMANDS_Decoder.c.o
                0x00040190                ARCOMMANDS_Decoder_SetARDrone3PilotingMoveByCallback
 .text.ARCOMMANDS_Decoder_SetARDrone3PilotingUserTakeOffCb
                0x000401c0       0x1e /home/ncs/CAPSTONE/out/arsdk-native/build/libARCommands/obj/gen/Sources/ARCOMMANDS_Decoder.c.o
                0x000401c0                ARCOMMANDS_Decoder_SetARDrone3PilotingUserTakeOffCb
 *fill*         0x000401de        0x2 
 .text.ARCOMMANDS_Decoder_SetARDrone3PilotingUserTakeOffCallback
                0x000401e0       0x30 /home/ncs/CAPSTONE/out/arsdk-native/build/libARCommands/obj/gen/Sources/ARCOMMANDS_Decoder.c.o
                0x000401e0                ARCOMMANDS_Decoder_SetARDrone3PilotingUserTakeOffCallback
 .text.ARCOMMANDS_Decoder_SetARDrone3PilotingCircleCb
                0x00040210       0x1e /home/ncs/CAPSTONE/out/arsdk-native/build/libARCommands/obj/gen/Sources/ARCOMMANDS_Decoder.c.o
                0x00040210                ARCOMMANDS_Decoder_SetARDrone3PilotingCircleCb
 *fill*         0x0004022e        0x2 
 .text.ARCOMMANDS_Decoder_SetARDrone3PilotingCircleCallback
                0x00040230       0x30 /home/ncs/CAPSTONE/out/arsdk-native/build/libARCommands/obj/gen/Sources/ARCOMMANDS_Decoder.c.o
                0x00040230                ARCOMMANDS_Decoder_SetARDrone3PilotingCircleCallback
 .text.ARCOMMANDS_Decoder_SetARDrone3AnimationsFlipCb
                0x00040260       0x1e /home/ncs/CAPSTONE/out/arsdk-native/build/libARCommands/obj/gen/Sources/ARCOMMANDS_Decoder.c.o
                0x00040260                ARCOMMANDS_Decoder_SetARDrone3AnimationsFlipCb
 *fill*         0x0004027e        0x2 
 .text.ARCOMMANDS_Decoder_SetARDrone3AnimationsFlipCallback
                0x00040280       0x30 /home/ncs/CAPSTONE/out/arsdk-native/build/libARCommands/obj/gen/Sources/ARCOMMANDS_Decoder.c.o
                0x00040280                ARCOMMANDS_Decoder_SetARDrone3AnimationsFlipCallback
 .text.ARCOMMANDS_Decoder_SetARDrone3CameraOrientationCb
                0x000402b0       0x1e /home/ncs/CAPSTONE/out/arsdk-native/build/libARCommands/obj/gen/Sources/ARCOMMANDS_Decoder.c.o
                0x000402b0                ARCOMMANDS_Decoder_SetARDrone3CameraOrientationCb
 *fill*         0x000402ce        0x2 
 .text.ARCOMMANDS_Decoder_SetARDrone3CameraOrientationCallback
                0x000402d0       0x30 /home/ncs/CAPSTONE/out/arsdk-native/build/libARCommands/obj/gen/Sources/ARCOMMANDS_Decoder.c.o
                0x000402d0                ARCOMMANDS_Decoder_SetARDrone3CameraOrientationCallback
 .text.ARCOMMANDS_Decoder_SetARDrone3MediaRecordPictureCb
                0x00040300       0x1e /home/ncs/CAPSTONE/out/arsdk-native/build/libARCommands/obj/gen/Sources/ARCOMMANDS_Decoder.c.o
                0x00040300                ARCOMMANDS_Decoder_SetARDrone3MediaRecordPictureCb
 *fill*         0x0004031e        0x2 
 .text.ARCOMMANDS_Decoder_SetARDrone3MediaRecordPictureCallback
                0x00040320       0x30 /home/ncs/CAPSTONE/out/arsdk-native/build/libARCommands/obj/gen/Sources/ARCOMMANDS_Decoder.c.o
                0x00040320                ARCOMMANDS_Decoder_SetARDrone3MediaRecordPictureCallback
 .text.ARCOMMANDS_Decoder_SetARDrone3MediaRecordVideoCb
                0x00040350       0x1e /home/ncs/CAPSTONE/out/arsdk-native/build/libARCommands/obj/gen/Sources/ARCOMMANDS_Decoder.c.o
                0x00040350                ARCOMMANDS_Decoder_SetARDrone3MediaRecordVideoCb
 *fill*         0x0004036e        0x2 
 .text.ARCOMMANDS_Decoder_SetARDrone3MediaRecordVideoCallback
                0x00040370       0x30 /home/ncs/CAPSTONE/out/arsdk-native/build/libARCommands/obj/gen/Sources/ARCOMMANDS_Decoder.c.o
                0x00040370                ARCOMMANDS_Decoder_SetARDrone3MediaRecordVideoCallback
 .text.ARCOMMANDS_Decoder_SetARDrone3MediaRecordPictureV2Cb
                0x000403a0       0x20 /home/ncs/CAPSTONE/out/arsdk-native/build/libARCommands/obj/gen/Sources/ARCOMMANDS_Decoder.c.o
                0x000403a0                ARCOMMANDS_Decoder_SetARDrone3MediaRecordPictureV2Cb
 .text.ARCOMMANDS_Decoder_SetARDrone3MediaRecordPictureV2Callback
                0x000403c0       0x34 /home/ncs/CAPSTONE/out/arsdk-native/build/libARCommands/obj/gen/Sources/ARCOMMANDS_Decoder.c.o
                0x000403c0                ARCOMMANDS_Decoder_SetARDrone3MediaRecordPictureV2Callback
 .text.ARCOMMANDS_Decoder_SetARDrone3MediaRecordVideoV2Cb
                0x000403f4       0x22 /home/ncs/CAPSTONE/out/arsdk-native/build/libARCommands/obj/gen/Sources/ARCOMMANDS_Decoder.c.o
                0x000403f4                ARCOMMANDS_Decoder_SetARDrone3MediaRecordVideoV2Cb
 *fill*         0x00040416        0x2 
 .text.ARCOMMANDS_Decoder_SetARDrone3MediaRecordVideoV2Callback
                0x00040418       0x34 /home/ncs/CAPSTONE/out/arsdk-native/build/libARCommands/obj/gen/Sources/ARCOMMANDS_Decoder.c.o
                0x00040418                ARCOMMANDS_Decoder_SetARDrone3MediaRecordVideoV2Callback
 .text.ARCOMMANDS_Decoder_SetARDrone3NetworkWifiScanCb
                0x0004044c       0x22 /home/ncs/CAPSTONE/out/arsdk-native/build/libARCommands/obj/gen/Sources/ARCOMMANDS_Decoder.c.o
                0x0004044c                ARCOMMANDS_Decoder_SetARDrone3NetworkWifiScanCb
 *fill*         0x0004046e        0x2 
 .text.ARCOMMANDS_Decoder_SetARDrone3NetworkWifiScanCallback
                0x00040470       0x34 /home/ncs/CAPSTONE/out/arsdk-native/build/libARCommands/obj/gen/Sources/ARCOMMANDS_Decoder.c.o
                0x00040470                ARCOMMANDS_Decoder_SetARDrone3NetworkWifiScanCallback
 .text.ARCOMMANDS_Decoder_SetARDrone3NetworkWifiAuthChannelCb
                0x000404a4       0x22 /home/ncs/CAPSTONE/out/arsdk-native/build/libARCommands/obj/gen/Sources/ARCOMMANDS_Decoder.c.o
                0x000404a4                ARCOMMANDS_Decoder_SetARDrone3NetworkWifiAuthChannelCb
 *fill*         0x000404c6        0x2 
 .text.ARCOMMANDS_Decoder_SetARDrone3NetworkWifiAuthChannelCallback
                0x000404c8       0x34 /home/ncs/CAPSTONE/out/arsdk-native/build/libARCommands/obj/gen/Sources/ARCOMMANDS_Decoder.c.o
                0x000404c8                ARCOMMANDS_Decoder_SetARDrone3NetworkWifiAuthChannelCallback
 .text.ARCOMMANDS_Decoder_SetARDrone3PilotingSettingsMaxAltitudeCb
                0x000404fc       0x22 /home/ncs/CAPSTONE/out/arsdk-native/build/libARCommands/obj/gen/Sources/ARCOMMANDS_Decoder.c.o
                0x000404fc                ARCOMMANDS_Decoder_SetARDrone3PilotingSettingsMaxAltitudeCb
 *fill*         0x0004051e        0x2 
 .text.ARCOMMANDS_Decoder_SetARDrone3PilotingSettingsMaxAltitudeCallback
                0x00040520       0x34 /home/ncs/CAPSTONE/out/arsdk-native/build/libARCommands/obj/gen/Sources/ARCOMMANDS_Decoder.c.o
                0x00040520                ARCOMMANDS_Decoder_SetARDrone3PilotingSettingsMaxAltitudeCallback
 .text.ARCOMMANDS_Decoder_SetARDrone3PilotingSettingsMaxTiltCb
                0x00040554       0x22 /home/ncs/CAPSTONE/out/arsdk-native/build/libARCommands/obj/gen/Sources/ARCOMMANDS_Decoder.c.o
                0x00040554                ARCOMMANDS_Decoder_SetARDrone3PilotingSettingsMaxTiltCb
 *fill*         0x00040576        0x2 
 .text.ARCOMMANDS_Decoder_SetARDrone3PilotingSettingsMaxTiltCallback
                0x00040578       0x34 /home/ncs/CAPSTONE/out/arsdk-native/build/libARCommands/obj/gen/Sources/ARCOMMANDS_Decoder.c.o
                0x00040578                ARCOMMANDS_Decoder_SetARDrone3PilotingSettingsMaxTiltCallback
 .text.ARCOMMANDS_Decoder_SetARDrone3PilotingSettingsAbsolutControlCb
                0x000405ac       0x22 /home/ncs/CAPSTONE/out/arsdk-native/build/libARCommands/obj/gen/Sources/ARCOMMANDS_Decoder.c.o
                0x000405ac                ARCOMMANDS_Decoder_SetARDrone3PilotingSettingsAbsolutControlCb
 *fill*         0x000405ce        0x2 
 .text.ARCOMMANDS_Decoder_SetARDrone3PilotingSettingsAbsolutControlCallback
                0x000405d0       0x34 /home/ncs/CAPSTONE/out/arsdk-native/build/libARCommands/obj/gen/Sources/ARCOMMANDS_Decoder.c.o
                0x000405d0                ARCOMMANDS_Decoder_SetARDrone3PilotingSettingsAbsolutControlCallback
 .text.ARCOMMANDS_Decoder_SetARDrone3PilotingSettingsMaxDistanceCb
                0x00040604       0x22 /home/ncs/CAPSTONE/out/arsdk-native/build/libARCommands/obj/gen/Sources/ARCOMMANDS_Decoder.c.o
                0x00040604                ARCOMMANDS_Decoder_SetARDrone3PilotingSettingsMaxDistanceCb
 *fill*         0x00040626        0x2 
 .text.ARCOMMANDS_Decoder_SetARDrone3PilotingSettingsMaxDistanceCallback
                0x00040628       0x34 /home/ncs/CAPSTONE/out/arsdk-native/build/libARCommands/obj/gen/Sources/ARCOMMANDS_Decoder.c.o
                0x00040628                ARCOMMANDS_Decoder_SetARDrone3PilotingSettingsMaxDistanceCallback
 .text.ARCOMMANDS_Decoder_SetARDrone3PilotingSettingsNoFlyOverMaxDistanceCb
                0x0004065c       0x22 /home/ncs/CAPSTONE/out/arsdk-native/build/libARCommands/obj/gen/Sources/ARCOMMANDS_Decoder.c.o
                0x0004065c                ARCOMMANDS_Decoder_SetARDrone3PilotingSettingsNoFlyOverMaxDistanceCb
 *fill*         0x0004067e        0x2 
 .text.ARCOMMANDS_Decoder_SetARDrone3PilotingSettingsNoFlyOverMaxDistanceCallback
                0x00040680       0x34 /home/ncs/CAPSTONE/out/arsdk-native/build/libARCommands/obj/gen/Sources/ARCOMMANDS_Decoder.c.o
                0x00040680                ARCOMMANDS_Decoder_SetARDrone3PilotingSettingsNoFlyOverMaxDistanceCallback
 .text.ARCOMMANDS_Decoder_SetARDrone3PilotingSettingsSetAutonomousFlightMaxHorizontalSpeedCb
                0x000406b4       0x22 /home/ncs/CAPSTONE/out/arsdk-native/build/libARCommands/obj/gen/Sources/ARCOMMANDS_Decoder.c.o
                0x000406b4                ARCOMMANDS_Decoder_SetARDrone3PilotingSettingsSetAutonomousFlightMaxHorizontalSpeedCb
 *fill*         0x000406d6        0x2 
 .text.ARCOMMANDS_Decoder_SetARDrone3PilotingSettingsSetAutonomousFlightMaxHorizontalSpeedCallback
                0x000406d8       0x34 /home/ncs/CAPSTONE/out/arsdk-native/build/libARCommands/obj/gen/Sources/ARCOMMANDS_Decoder.c.o
                0x000406d8                ARCOMMANDS_Decoder_SetARDrone3PilotingSettingsSetAutonomousFlightMaxHorizontalSpeedCallback
 .text.ARCOMMANDS_Decoder_SetARDrone3PilotingSettingsSetAutonomousFlightMaxVerticalSpeedCb
                0x0004070c       0x22 /home/ncs/CAPSTONE/out/arsdk-native/build/libARCommands/obj/gen/Sources/ARCOMMANDS_Decoder.c.o
                0x0004070c                ARCOMMANDS_Decoder_SetARDrone3PilotingSettingsSetAutonomousFlightMaxVerticalSpeedCb
 *fill*         0x0004072e        0x2 
 .text.ARCOMMANDS_Decoder_SetARDrone3PilotingSettingsSetAutonomousFlightMaxVerticalSpeedCallback
                0x00040730       0x34 /home/ncs/CAPSTONE/out/arsdk-native/build/libARCommands/obj/gen/Sources/ARCOMMANDS_Decoder.c.o
                0x00040730                ARCOMMANDS_Decoder_SetARDrone3PilotingSettingsSetAutonomousFlightMaxVerticalSpeedCallback
 .text.ARCOMMANDS_Decoder_SetARDrone3PilotingSettingsSetAutonomousFlightMaxHorizontalAccelerationCb
                0x00040764       0x22 /home/ncs/CAPSTONE/out/arsdk-native/build/libARCommands/obj/gen/Sources/ARCOMMANDS_Decoder.c.o
                0x00040764                ARCOMMANDS_Decoder_SetARDrone3PilotingSettingsSetAutonomousFlightMaxHorizontalAccelerationCb
 *fill*         0x00040786        0x2 
 .text.ARCOMMANDS_Decoder_SetARDrone3PilotingSettingsSetAutonomousFlightMaxHorizontalAccelerationCallback
                0x00040788       0x34 /home/ncs/CAPSTONE/out/arsdk-native/build/libARCommands/obj/gen/Sources/ARCOMMANDS_Decoder.c.o
                0x00040788                ARCOMMANDS_Decoder_SetARDrone3PilotingSettingsSetAutonomousFlightMaxHorizontalAccelerationCallback
 .text.ARCOMMANDS_Decoder_SetARDrone3PilotingSettingsSetAutonomousFlightMaxVerticalAccelerationCb
                0x000407bc       0x22 /home/ncs/CAPSTONE/out/arsdk-native/build/libARCommands/obj/gen/Sources/ARCOMMANDS_Decoder.c.o
                0x000407bc                ARCOMMANDS_Decoder_SetARDrone3PilotingSettingsSetAutonomousFlightMaxVerticalAccelerationCb
 *fill*         0x000407de        0x2 
 .text.ARCOMMANDS_Decoder_SetARDrone3PilotingSettingsSetAutonomousFlightMaxVerticalAccelerationCallback
                0x000407e0       0x34 /home/ncs/CAPSTONE/out/arsdk-native/build/libARCommands/obj/gen/Sources/ARCOMMANDS_Decoder.c.o
                0x000407e0                ARCOMMANDS_Decoder_SetARDrone3PilotingSettingsSetAutonomousFlightMaxVerticalAccelerationCallback
 .text.ARCOMMANDS_Decoder_SetARDrone3PilotingSettingsSetAutonomousFlightMaxRotationSpeedCb
                0x00040814       0x22 /home/ncs/CAPSTONE/out/arsdk-native/build/libARCommands/obj/gen/Sources/ARCOMMANDS_Decoder.c.o
                0x00040814                ARCOMMANDS_Decoder_SetARDrone3PilotingSettingsSetAutonomousFlightMaxRotationSpeedCb
 *fill*         0x00040836        0x2 
 .text.ARCOMMANDS_Decoder_SetARDrone3PilotingSettingsSetAutonomousFlightMaxRotationSpeedCallback
                0x00040838       0x34 /home/ncs/CAPSTONE/out/arsdk-native/build/libARCommands/obj/gen/Sources/ARCOMMANDS_Decoder.c.o
                0x00040838                ARCOMMANDS_Decoder_SetARDrone3PilotingSettingsSetAutonomousFlightMaxRotationSpeedCallback
 .text.ARCOMMANDS_Decoder_SetARDrone3PilotingSettingsBankedTurnCb
                0x0004086c       0x22 /home/ncs/CAPSTONE/out/arsdk-native/build/libARCommands/obj/gen/Sources/ARCOMMANDS_Decoder.c.o
                0x0004086c                ARCOMMANDS_Decoder_SetARDrone3PilotingSettingsBankedTurnCb
 *fill*         0x0004088e        0x2 
 .text.ARCOMMANDS_Decoder_SetARDrone3PilotingSettingsBankedTurnCallback
                0x00040890       0x34 /home/ncs/CAPSTONE/out/arsdk-native/build/libARCommands/obj/gen/Sources/ARCOMMANDS_Decoder.c.o
                0x00040890                ARCOMMANDS_Decoder_SetARDrone3PilotingSettingsBankedTurnCallback
 .text.ARCOMMANDS_Decoder_SetARDrone3PilotingSettingsMinAltitudeCb
                0x000408c4       0x22 /home/ncs/CAPSTONE/out/arsdk-native/build/libARCommands/obj/gen/Sources/ARCOMMANDS_Decoder.c.o
                0x000408c4                ARCOMMANDS_Decoder_SetARDrone3PilotingSettingsMinAltitudeCb
 *fill*         0x000408e6        0x2 
 .text.ARCOMMANDS_Decoder_SetARDrone3PilotingSettingsMinAltitudeCallback
                0x000408e8       0x34 /home/ncs/CAPSTONE/out/arsdk-native/build/libARCommands/obj/gen/Sources/ARCOMMANDS_Decoder.c.o
                0x000408e8                ARCOMMANDS_Decoder_SetARDrone3PilotingSettingsMinAltitudeCallback
 .text.ARCOMMANDS_Decoder_SetARDrone3PilotingSettingsCirclingDirectionCb
                0x0004091c       0x22 /home/ncs/CAPSTONE/out/arsdk-native/build/libARCommands/obj/gen/Sources/ARCOMMANDS_Decoder.c.o
                0x0004091c                ARCOMMANDS_Decoder_SetARDrone3PilotingSettingsCirclingDirectionCb
 *fill*         0x0004093e        0x2 
 .text.ARCOMMANDS_Decoder_SetARDrone3PilotingSettingsCirclingDirectionCallback
                0x00040940       0x34 /home/ncs/CAPSTONE/out/arsdk-native/build/libARCommands/obj/gen/Sources/ARCOMMANDS_Decoder.c.o
                0x00040940                ARCOMMANDS_Decoder_SetARDrone3PilotingSettingsCirclingDirectionCallback
 .text.ARCOMMANDS_Decoder_SetARDrone3PilotingSettingsCirclingRadiusCb
                0x00040974       0x22 /home/ncs/CAPSTONE/out/arsdk-native/build/libARCommands/obj/gen/Sources/ARCOMMANDS_Decoder.c.o
                0x00040974                ARCOMMANDS_Decoder_SetARDrone3PilotingSettingsCirclingRadiusCb
 *fill*         0x00040996        0x2 
 .text.ARCOMMANDS_Decoder_SetARDrone3PilotingSettingsCirclingRadiusCallback
                0x00040998       0x34 /home/ncs/CAPSTONE/out/arsdk-native/build/libARCommands/obj/gen/Sources/ARCOMMANDS_Decoder.c.o
                0x00040998                ARCOMMANDS_Decoder_SetARDrone3PilotingSettingsCirclingRadiusCallback
 .text.ARCOMMANDS_Decoder_SetARDrone3PilotingSettingsCirclingAltitudeCb
                0x000409cc       0x22 /home/ncs/CAPSTONE/out/arsdk-native/build/libARCommands/obj/gen/Sources/ARCOMMANDS_Decoder.c.o
                0x000409cc                ARCOMMANDS_Decoder_SetARDrone3PilotingSettingsCirclingAltitudeCb
 *fill*         0x000409ee        0x2 
 .text.ARCOMMANDS_Decoder_SetARDrone3PilotingSettingsCirclingAltitudeCallback
                0x000409f0       0x34 /home/ncs/CAPSTONE/out/arsdk-native/build/libARCommands/obj/gen/Sources/ARCOMMANDS_Decoder.c.o
                0x000409f0                ARCOMMANDS_Decoder_SetARDrone3PilotingSettingsCirclingAltitudeCallback
 .text.ARCOMMANDS_Decoder_SetARDrone3PilotingSettingsPitchModeCb
                0x00040a24       0x22 /home/ncs/CAPSTONE/out/arsdk-native/build/libARCommands/obj/gen/Sources/ARCOMMANDS_Decoder.c.o
                0x00040a24                ARCOMMANDS_Decoder_SetARDrone3PilotingSettingsPitchModeCb
 *fill*         0x00040a46        0x2 
 .text.ARCOMMANDS_Decoder_SetARDrone3PilotingSettingsPitchModeCallback
                0x00040a48       0x34 /home/ncs/CAPSTONE/out/arsdk-native/build/libARCommands/obj/gen/Sources/ARCOMMANDS_Decoder.c.o
                0x00040a48                ARCOMMANDS_Decoder_SetARDrone3PilotingSettingsPitchModeCallback
 .text.ARCOMMANDS_Decoder_SetARDrone3SpeedSettingsMaxVerticalSpeedCb
                0x00040a7c       0x22 /home/ncs/CAPSTONE/out/arsdk-native/build/libARCommands/obj/gen/Sources/ARCOMMANDS_Decoder.c.o
                0x00040a7c                ARCOMMANDS_Decoder_SetARDrone3SpeedSettingsMaxVerticalSpeedCb
 *fill*         0x00040a9e        0x2 
 .text.ARCOMMANDS_Decoder_SetARDrone3SpeedSettingsMaxVerticalSpeedCallback
                0x00040aa0       0x34 /home/ncs/CAPSTONE/out/arsdk-native/build/libARCommands/obj/gen/Sources/ARCOMMANDS_Decoder.c.o
                0x00040aa0                ARCOMMANDS_Decoder_SetARDrone3SpeedSettingsMaxVerticalSpeedCallback
 .text.ARCOMMANDS_Decoder_SetARDrone3SpeedSettingsMaxRotationSpeedCb
                0x00040ad4       0x22 /home/ncs/CAPSTONE/out/arsdk-native/build/libARCommands/obj/gen/Sources/ARCOMMANDS_Decoder.c.o
                0x00040ad4                ARCOMMANDS_Decoder_SetARDrone3SpeedSettingsMaxRotationSpeedCb
 *fill*         0x00040af6        0x2 
 .text.ARCOMMANDS_Decoder_SetARDrone3SpeedSettingsMaxRotationSpeedCallback
                0x00040af8       0x34 /home/ncs/CAPSTONE/out/arsdk-native/build/libARCommands/obj/gen/Sources/ARCOMMANDS_Decoder.c.o
                0x00040af8                ARCOMMANDS_Decoder_SetARDrone3SpeedSettingsMaxRotationSpeedCallback
 .text.ARCOMMANDS_Decoder_SetARDrone3SpeedSettingsHullProtectionCb
                0x00040b2c       0x22 /home/ncs/CAPSTONE/out/arsdk-native/build/libARCommands/obj/gen/Sources/ARCOMMANDS_Decoder.c.o
                0x00040b2c                ARCOMMANDS_Decoder_SetARDrone3SpeedSettingsHullProtectionCb
 *fill*         0x00040b4e        0x2 
 .text.ARCOMMANDS_Decoder_SetARDrone3SpeedSettingsHullProtectionCallback
                0x00040b50       0x34 /home/ncs/CAPSTONE/out/arsdk-native/build/libARCommands/obj/gen/Sources/ARCOMMANDS_Decoder.c.o
                0x00040b50                ARCOMMANDS_Decoder_SetARDrone3SpeedSettingsHullProtectionCallback
 .text.ARCOMMANDS_Decoder_SetARDrone3SpeedSettingsOutdoorCb
                0x00040b84       0x22 /home/ncs/CAPSTONE/out/arsdk-native/build/libARCommands/obj/gen/Sources/ARCOMMANDS_Decoder.c.o
                0x00040b84                ARCOMMANDS_Decoder_SetARDrone3SpeedSettingsOutdoorCb
 *fill*         0x00040ba6        0x2 
 .text.ARCOMMANDS_Decoder_SetARDrone3SpeedSettingsOutdoorCallback
                0x00040ba8       0x34 /home/ncs/CAPSTONE/out/arsdk-native/build/libARCommands/obj/gen/Sources/ARCOMMANDS_Decoder.c.o
                0x00040ba8                ARCOMMANDS_Decoder_SetARDrone3SpeedSettingsOutdoorCallback
 .text.ARCOMMANDS_Decoder_SetARDrone3SpeedSettingsMaxPitchRollRotationSpeedCb
                0x00040bdc       0x22 /home/ncs/CAPSTONE/out/arsdk-native/build/libARCommands/obj/gen/Sources/ARCOMMANDS_Decoder.c.o
                0x00040bdc                ARCOMMANDS_Decoder_SetARDrone3SpeedSettingsMaxPitchRollRotationSpeedCb
 *fill*         0x00040bfe        0x2 
 .text.ARCOMMANDS_Decoder_SetARDrone3SpeedSettingsMaxPitchRollRotationSpeedCallback
                0x00040c00       0x34 /home/ncs/CAPSTONE/out/arsdk-native/build/libARCommands/obj/gen/Sources/ARCOMMANDS_Decoder.c.o
                0x00040c00                ARCOMMANDS_Decoder_SetARDrone3SpeedSettingsMaxPitchRollRotationSpeedCallback
 .text.ARCOMMANDS_Decoder_SetARDrone3NetworkSettingsWifiSelectionCb
                0x00040c34       0x22 /home/ncs/CAPSTONE/out/arsdk-native/build/libARCommands/obj/gen/Sources/ARCOMMANDS_Decoder.c.o
                0x00040c34                ARCOMMANDS_Decoder_SetARDrone3NetworkSettingsWifiSelectionCb
 *fill*         0x00040c56        0x2 
 .text.ARCOMMANDS_Decoder_SetARDrone3NetworkSettingsWifiSelectionCallback
                0x00040c58       0x34 /home/ncs/CAPSTONE/out/arsdk-native/build/libARCommands/obj/gen/Sources/ARCOMMANDS_Decoder.c.o
                0x00040c58                ARCOMMANDS_Decoder_SetARDrone3NetworkSettingsWifiSelectionCallback
 .text.ARCOMMANDS_Decoder_SetARDrone3NetworkSettingsWifiSecurityCb
                0x00040c8c       0x22 /home/ncs/CAPSTONE/out/arsdk-native/build/libARCommands/obj/gen/Sources/ARCOMMANDS_Decoder.c.o
                0x00040c8c                ARCOMMANDS_Decoder_SetARDrone3NetworkSettingsWifiSecurityCb
 *fill*         0x00040cae        0x2 
 .text.ARCOMMANDS_Decoder_SetARDrone3NetworkSettingsWifiSecurityCallback
                0x00040cb0       0x34 /home/ncs/CAPSTONE/out/arsdk-native/build/libARCommands/obj/gen/Sources/ARCOMMANDS_Decoder.c.o
                0x00040cb0                ARCOMMANDS_Decoder_SetARDrone3NetworkSettingsWifiSecurityCallback
 .text.ARCOMMANDS_Decoder_SetARDrone3PictureSettingsPictureFormatSelectionCb
                0x00040ce4       0x22 /home/ncs/CAPSTONE/out/arsdk-native/build/libARCommands/obj/gen/Sources/ARCOMMANDS_Decoder.c.o
                0x00040ce4                ARCOMMANDS_Decoder_SetARDrone3PictureSettingsPictureFormatSelectionCb
 *fill*         0x00040d06        0x2 
 .text.ARCOMMANDS_Decoder_SetARDrone3PictureSettingsPictureFormatSelectionCallback
                0x00040d08       0x34 /home/ncs/CAPSTONE/out/arsdk-native/build/libARCommands/obj/gen/Sources/ARCOMMANDS_Decoder.c.o
                0x00040d08                ARCOMMANDS_Decoder_SetARDrone3PictureSettingsPictureFormatSelectionCallback
 .text.ARCOMMANDS_Decoder_SetARDrone3PictureSettingsAutoWhiteBalanceSelectionCb
                0x00040d3c       0x22 /home/ncs/CAPSTONE/out/arsdk-native/build/libARCommands/obj/gen/Sources/ARCOMMANDS_Decoder.c.o
                0x00040d3c                ARCOMMANDS_Decoder_SetARDrone3PictureSettingsAutoWhiteBalanceSelectionCb
 *fill*         0x00040d5e        0x2 
 .text.ARCOMMANDS_Decoder_SetARDrone3PictureSettingsAutoWhiteBalanceSelectionCallback
                0x00040d60       0x34 /home/ncs/CAPSTONE/out/arsdk-native/build/libARCommands/obj/gen/Sources/ARCOMMANDS_Decoder.c.o
                0x00040d60                ARCOMMANDS_Decoder_SetARDrone3PictureSettingsAutoWhiteBalanceSelectionCallback
 .text.ARCOMMANDS_Decoder_SetARDrone3PictureSettingsExpositionSelectionCb
                0x00040d94       0x22 /home/ncs/CAPSTONE/out/arsdk-native/build/libARCommands/obj/gen/Sources/ARCOMMANDS_Decoder.c.o
                0x00040d94                ARCOMMANDS_Decoder_SetARDrone3PictureSettingsExpositionSelectionCb
 *fill*         0x00040db6        0x2 
 .text.ARCOMMANDS_Decoder_SetARDrone3PictureSettingsExpositionSelectionCallback
                0x00040db8       0x34 /home/ncs/CAPSTONE/out/arsdk-native/build/libARCommands/obj/gen/Sources/ARCOMMANDS_Decoder.c.o
                0x00040db8                ARCOMMANDS_Decoder_SetARDrone3PictureSettingsExpositionSelectionCallback
 .text.ARCOMMANDS_Decoder_SetARDrone3PictureSettingsSaturationSelectionCb
                0x00040dec       0x22 /home/ncs/CAPSTONE/out/arsdk-native/build/libARCommands/obj/gen/Sources/ARCOMMANDS_Decoder.c.o
                0x00040dec                ARCOMMANDS_Decoder_SetARDrone3PictureSettingsSaturationSelectionCb
 *fill*         0x00040e0e        0x2 
 .text.ARCOMMANDS_Decoder_SetARDrone3PictureSettingsSaturationSelectionCallback
                0x00040e10       0x34 /home/ncs/CAPSTONE/out/arsdk-native/build/libARCommands/obj/gen/Sources/ARCOMMANDS_Decoder.c.o
                0x00040e10                ARCOMMANDS_Decoder_SetARDrone3PictureSettingsSaturationSelectionCallback
 .text.ARCOMMANDS_Decoder_SetARDrone3PictureSettingsTimelapseSelectionCb
                0x00040e44       0x22 /home/ncs/CAPSTONE/out/arsdk-native/build/libARCommands/obj/gen/Sources/ARCOMMANDS_Decoder.c.o
                0x00040e44                ARCOMMANDS_Decoder_SetARDrone3PictureSettingsTimelapseSelectionCb
 *fill*         0x00040e66        0x2 
 .text.ARCOMMANDS_Decoder_SetARDrone3PictureSettingsTimelapseSelectionCallback
                0x00040e68       0x34 /home/ncs/CAPSTONE/out/arsdk-native/build/libARCommands/obj/gen/Sources/ARCOMMANDS_Decoder.c.o
                0x00040e68                ARCOMMANDS_Decoder_SetARDrone3PictureSettingsTimelapseSelectionCallback
 .text.ARCOMMANDS_Decoder_SetARDrone3PictureSettingsVideoAutorecordSelectionCb
                0x00040e9c       0x22 /home/ncs/CAPSTONE/out/arsdk-native/build/libARCommands/obj/gen/Sources/ARCOMMANDS_Decoder.c.o
                0x00040e9c                ARCOMMANDS_Decoder_SetARDrone3PictureSettingsVideoAutorecordSelectionCb
 *fill*         0x00040ebe        0x2 
 .text.ARCOMMANDS_Decoder_SetARDrone3PictureSettingsVideoAutorecordSelectionCallback
                0x00040ec0       0x34 /home/ncs/CAPSTONE/out/arsdk-native/build/libARCommands/obj/gen/Sources/ARCOMMANDS_Decoder.c.o
                0x00040ec0                ARCOMMANDS_Decoder_SetARDrone3PictureSettingsVideoAutorecordSelectionCallback
 .text.ARCOMMANDS_Decoder_SetARDrone3PictureSettingsVideoStabilizationModeCb
                0x00040ef4       0x22 /home/ncs/CAPSTONE/out/arsdk-native/build/libARCommands/obj/gen/Sources/ARCOMMANDS_Decoder.c.o
                0x00040ef4                ARCOMMANDS_Decoder_SetARDrone3PictureSettingsVideoStabilizationModeCb
 *fill*         0x00040f16        0x2 
 .text.ARCOMMANDS_Decoder_SetARDrone3PictureSettingsVideoStabilizationModeCallback
                0x00040f18       0x34 /home/ncs/CAPSTONE/out/arsdk-native/build/libARCommands/obj/gen/Sources/ARCOMMANDS_Decoder.c.o
                0x00040f18                ARCOMMANDS_Decoder_SetARDrone3PictureSettingsVideoStabilizationModeCallback
 .text.ARCOMMANDS_Decoder_SetARDrone3PictureSettingsVideoRecordingModeCb
                0x00040f4c       0x22 /home/ncs/CAPSTONE/out/arsdk-native/build/libARCommands/obj/gen/Sources/ARCOMMANDS_Decoder.c.o
                0x00040f4c                ARCOMMANDS_Decoder_SetARDrone3PictureSettingsVideoRecordingModeCb
 *fill*         0x00040f6e        0x2 
 .text.ARCOMMANDS_Decoder_SetARDrone3PictureSettingsVideoRecordingModeCallback
                0x00040f70       0x34 /home/ncs/CAPSTONE/out/arsdk-native/build/libARCommands/obj/gen/Sources/ARCOMMANDS_Decoder.c.o
                0x00040f70                ARCOMMANDS_Decoder_SetARDrone3PictureSettingsVideoRecordingModeCallback
 .text.ARCOMMANDS_Decoder_SetARDrone3PictureSettingsVideoFramerateCb
                0x00040fa4       0x22 /home/ncs/CAPSTONE/out/arsdk-native/build/libARCommands/obj/gen/Sources/ARCOMMANDS_Decoder.c.o
                0x00040fa4                ARCOMMANDS_Decoder_SetARDrone3PictureSettingsVideoFramerateCb
 *fill*         0x00040fc6        0x2 
 .text.ARCOMMANDS_Decoder_SetARDrone3PictureSettingsVideoFramerateCallback
                0x00040fc8       0x34 /home/ncs/CAPSTONE/out/arsdk-native/build/libARCommands/obj/gen/Sources/ARCOMMANDS_Decoder.c.o
                0x00040fc8                ARCOMMANDS_Decoder_SetARDrone3PictureSettingsVideoFramerateCallback
 .text.ARCOMMANDS_Decoder_SetARDrone3PictureSettingsVideoResolutionsCb
                0x00040ffc       0x22 /home/ncs/CAPSTONE/out/arsdk-native/build/libARCommands/obj/gen/Sources/ARCOMMANDS_Decoder.c.o
                0x00040ffc                ARCOMMANDS_Decoder_SetARDrone3PictureSettingsVideoResolutionsCb
 *fill*         0x0004101e        0x2 
 .text.ARCOMMANDS_Decoder_SetARDrone3PictureSettingsVideoResolutionsCallback
                0x00041020       0x34 /home/ncs/CAPSTONE/out/arsdk-native/build/libARCommands/obj/gen/Sources/ARCOMMANDS_Decoder.c.o
                0x00041020                ARCOMMANDS_Decoder_SetARDrone3PictureSettingsVideoResolutionsCallback
 .text.ARCOMMANDS_Decoder_SetARDrone3MediaStreamingVideoEnableCb
                0x00041054       0x22 /home/ncs/CAPSTONE/out/arsdk-native/build/libARCommands/obj/gen/Sources/ARCOMMANDS_Decoder.c.o
                0x00041054                ARCOMMANDS_Decoder_SetARDrone3MediaStreamingVideoEnableCb
 *fill*         0x00041076        0x2 
 .text.ARCOMMANDS_Decoder_SetARDrone3MediaStreamingVideoEnableCallback
                0x00041078       0x34 /home/ncs/CAPSTONE/out/arsdk-native/build/libARCommands/obj/gen/Sources/ARCOMMANDS_Decoder.c.o
                0x00041078                ARCOMMANDS_Decoder_SetARDrone3MediaStreamingVideoEnableCallback
 .text.ARCOMMANDS_Decoder_SetARDrone3MediaStreamingVideoStreamModeCb
                0x000410ac       0x22 /home/ncs/CAPSTONE/out/arsdk-native/build/libARCommands/obj/gen/Sources/ARCOMMANDS_Decoder.c.o
                0x000410ac                ARCOMMANDS_Decoder_SetARDrone3MediaStreamingVideoStreamModeCb
 *fill*         0x000410ce        0x2 
 .text.ARCOMMANDS_Decoder_SetARDrone3MediaStreamingVideoStreamModeCallback
                0x000410d0       0x34 /home/ncs/CAPSTONE/out/arsdk-native/build/libARCommands/obj/gen/Sources/ARCOMMANDS_Decoder.c.o
                0x000410d0                ARCOMMANDS_Decoder_SetARDrone3MediaStreamingVideoStreamModeCallback
 .text.ARCOMMANDS_Decoder_SetARDrone3GPSSettingsSetHomeCb
                0x00041104       0x22 /home/ncs/CAPSTONE/out/arsdk-native/build/libARCommands/obj/gen/Sources/ARCOMMANDS_Decoder.c.o
                0x00041104                ARCOMMANDS_Decoder_SetARDrone3GPSSettingsSetHomeCb
 *fill*         0x00041126        0x2 
 .text.ARCOMMANDS_Decoder_SetARDrone3GPSSettingsSetHomeCallback
                0x00041128       0x34 /home/ncs/CAPSTONE/out/arsdk-native/build/libARCommands/obj/gen/Sources/ARCOMMANDS_Decoder.c.o
                0x00041128                ARCOMMANDS_Decoder_SetARDrone3GPSSettingsSetHomeCallback
 .text.ARCOMMANDS_Decoder_SetARDrone3GPSSettingsResetHomeCb
                0x0004115c       0x22 /home/ncs/CAPSTONE/out/arsdk-native/build/libARCommands/obj/gen/Sources/ARCOMMANDS_Decoder.c.o
                0x0004115c                ARCOMMANDS_Decoder_SetARDrone3GPSSettingsResetHomeCb
 *fill*         0x0004117e        0x2 
 .text.ARCOMMANDS_Decoder_SetARDrone3GPSSettingsResetHomeCallback
                0x00041180       0x34 /home/ncs/CAPSTONE/out/arsdk-native/build/libARCommands/obj/gen/Sources/ARCOMMANDS_Decoder.c.o
                0x00041180                ARCOMMANDS_Decoder_SetARDrone3GPSSettingsResetHomeCallback
 .text.ARCOMMANDS_Decoder_SetARDrone3GPSSettingsSendControllerGPSCb
                0x000411b4       0x22 /home/ncs/CAPSTONE/out/arsdk-native/build/libARCommands/obj/gen/Sources/ARCOMMANDS_Decoder.c.o
                0x000411b4                ARCOMMANDS_Decoder_SetARDrone3GPSSettingsSendControllerGPSCb
 *fill*         0x000411d6        0x2 
 .text.ARCOMMANDS_Decoder_SetARDrone3GPSSettingsSendControllerGPSCallback
                0x000411d8       0x34 /home/ncs/CAPSTONE/out/arsdk-native/build/libARCommands/obj/gen/Sources/ARCOMMANDS_Decoder.c.o
                0x000411d8                ARCOMMANDS_Decoder_SetARDrone3GPSSettingsSendControllerGPSCallback
 .text.ARCOMMANDS_Decoder_SetARDrone3GPSSettingsHomeTypeCb
                0x0004120c       0x22 /home/ncs/CAPSTONE/out/arsdk-native/build/libARCommands/obj/gen/Sources/ARCOMMANDS_Decoder.c.o
                0x0004120c                ARCOMMANDS_Decoder_SetARDrone3GPSSettingsHomeTypeCb
 *fill*         0x0004122e        0x2 
 .text.ARCOMMANDS_Decoder_SetARDrone3GPSSettingsHomeTypeCallback
                0x00041230       0x34 /home/ncs/CAPSTONE/out/arsdk-native/build/libARCommands/obj/gen/Sources/ARCOMMANDS_Decoder.c.o
                0x00041230                ARCOMMANDS_Decoder_SetARDrone3GPSSettingsHomeTypeCallback
 .text.ARCOMMANDS_Decoder_SetARDrone3GPSSettingsReturnHomeDelayCb
                0x00041264       0x22 /home/ncs/CAPSTONE/out/arsdk-native/build/libARCommands/obj/gen/Sources/ARCOMMANDS_Decoder.c.o
                0x00041264                ARCOMMANDS_Decoder_SetARDrone3GPSSettingsReturnHomeDelayCb
 *fill*         0x00041286        0x2 
 .text.ARCOMMANDS_Decoder_SetARDrone3GPSSettingsReturnHomeDelayCallback
                0x00041288       0x34 /home/ncs/CAPSTONE/out/arsdk-native/build/libARCommands/obj/gen/Sources/ARCOMMANDS_Decoder.c.o
                0x00041288                ARCOMMANDS_Decoder_SetARDrone3GPSSettingsReturnHomeDelayCallback
 .text.ARCOMMANDS_Decoder_SetARDrone3AntiflickeringElectricFrequencyCb
                0x000412bc       0x22 /home/ncs/CAPSTONE/out/arsdk-native/build/libARCommands/obj/gen/Sources/ARCOMMANDS_Decoder.c.o
                0x000412bc                ARCOMMANDS_Decoder_SetARDrone3AntiflickeringElectricFrequencyCb
 *fill*         0x000412de        0x2 
 .text.ARCOMMANDS_Decoder_SetARDrone3AntiflickeringElectricFrequencyCallback
                0x000412e0       0x34 /home/ncs/CAPSTONE/out/arsdk-native/build/libARCommands/obj/gen/Sources/ARCOMMANDS_Decoder.c.o
                0x000412e0                ARCOMMANDS_Decoder_SetARDrone3AntiflickeringElectricFrequencyCallback
 .text.ARCOMMANDS_Decoder_SetARDrone3AntiflickeringSetModeCb
                0x00041314       0x22 /home/ncs/CAPSTONE/out/arsdk-native/build/libARCommands/obj/gen/Sources/ARCOMMANDS_Decoder.c.o
                0x00041314                ARCOMMANDS_Decoder_SetARDrone3AntiflickeringSetModeCb
 *fill*         0x00041336        0x2 
 .text.ARCOMMANDS_Decoder_SetARDrone3AntiflickeringSetModeCallback
                0x00041338       0x34 /home/ncs/CAPSTONE/out/arsdk-native/build/libARCommands/obj/gen/Sources/ARCOMMANDS_Decoder.c.o
                0x00041338                ARCOMMANDS_Decoder_SetARDrone3AntiflickeringSetModeCallback
 .text.ARCOMMANDS_Decoder_SetARDrone3MediaRecordStatePictureStateChangedCb
                0x0004136c       0x22 /home/ncs/CAPSTONE/out/arsdk-native/build/libARCommands/obj/gen/Sources/ARCOMMANDS_Decoder.c.o
                0x0004136c                ARCOMMANDS_Decoder_SetARDrone3MediaRecordStatePictureStateChangedCb
 *fill*         0x0004138e        0x2 
 .text.ARCOMMANDS_Decoder_SetARDrone3MediaRecordStatePictureStateChangedCallback
                0x00041390       0x34 /home/ncs/CAPSTONE/out/arsdk-native/build/libARCommands/obj/gen/Sources/ARCOMMANDS_Decoder.c.o
                0x00041390                ARCOMMANDS_Decoder_SetARDrone3MediaRecordStatePictureStateChangedCallback
 .text.ARCOMMANDS_Decoder_SetARDrone3MediaRecordStateVideoStateChangedCb
                0x000413c4       0x22 /home/ncs/CAPSTONE/out/arsdk-native/build/libARCommands/obj/gen/Sources/ARCOMMANDS_Decoder.c.o
                0x000413c4                ARCOMMANDS_Decoder_SetARDrone3MediaRecordStateVideoStateChangedCb
 *fill*         0x000413e6        0x2 
 .text.ARCOMMANDS_Decoder_SetARDrone3MediaRecordStateVideoStateChangedCallback
                0x000413e8       0x34 /home/ncs/CAPSTONE/out/arsdk-native/build/libARCommands/obj/gen/Sources/ARCOMMANDS_Decoder.c.o
                0x000413e8                ARCOMMANDS_Decoder_SetARDrone3MediaRecordStateVideoStateChangedCallback
 .text.ARCOMMANDS_Decoder_SetARDrone3MediaRecordStatePictureStateChangedV2Cb
                0x0004141c       0x22 /home/ncs/CAPSTONE/out/arsdk-native/build/libARCommands/obj/gen/Sources/ARCOMMANDS_Decoder.c.o
                0x0004141c                ARCOMMANDS_Decoder_SetARDrone3MediaRecordStatePictureStateChangedV2Cb
 *fill*         0x0004143e        0x2 
 .text.ARCOMMANDS_Decoder_SetARDrone3MediaRecordStatePictureStateChangedV2Callback
                0x00041440       0x34 /home/ncs/CAPSTONE/out/arsdk-native/build/libARCommands/obj/gen/Sources/ARCOMMANDS_Decoder.c.o
                0x00041440                ARCOMMANDS_Decoder_SetARDrone3MediaRecordStatePictureStateChangedV2Callback
 .text.ARCOMMANDS_Decoder_SetARDrone3MediaRecordStateVideoStateChangedV2Cb
                0x00041474       0x22 /home/ncs/CAPSTONE/out/arsdk-native/build/libARCommands/obj/gen/Sources/ARCOMMANDS_Decoder.c.o
                0x00041474                ARCOMMANDS_Decoder_SetARDrone3MediaRecordStateVideoStateChangedV2Cb
 *fill*         0x00041496        0x2 
 .text.ARCOMMANDS_Decoder_SetARDrone3MediaRecordStateVideoStateChangedV2Callback
                0x00041498       0x34 /home/ncs/CAPSTONE/out/arsdk-native/build/libARCommands/obj/gen/Sources/ARCOMMANDS_Decoder.c.o
                0x00041498                ARCOMMANDS_Decoder_SetARDrone3MediaRecordStateVideoStateChangedV2Callback
 .text.ARCOMMANDS_Decoder_SetARDrone3MediaRecordStateVideoResolutionStateCb
                0x000414cc       0x22 /home/ncs/CAPSTONE/out/arsdk-native/build/libARCommands/obj/gen/Sources/ARCOMMANDS_Decoder.c.o
                0x000414cc                ARCOMMANDS_Decoder_SetARDrone3MediaRecordStateVideoResolutionStateCb
 *fill*         0x000414ee        0x2 
 .text.ARCOMMANDS_Decoder_SetARDrone3MediaRecordStateVideoResolutionStateCallback
                0x000414f0       0x34 /home/ncs/CAPSTONE/out/arsdk-native/build/libARCommands/obj/gen/Sources/ARCOMMANDS_Decoder.c.o
                0x000414f0                ARCOMMANDS_Decoder_SetARDrone3MediaRecordStateVideoResolutionStateCallback
 .text.ARCOMMANDS_Decoder_SetARDrone3MediaRecordEventPictureEventChangedCb
                0x00041524       0x22 /home/ncs/CAPSTONE/out/arsdk-native/build/libARCommands/obj/gen/Sources/ARCOMMANDS_Decoder.c.o
                0x00041524                ARCOMMANDS_Decoder_SetARDrone3MediaRecordEventPictureEventChangedCb
 *fill*         0x00041546        0x2 
 .text.ARCOMMANDS_Decoder_SetARDrone3MediaRecordEventPictureEventChangedCallback
                0x00041548       0x34 /home/ncs/CAPSTONE/out/arsdk-native/build/libARCommands/obj/gen/Sources/ARCOMMANDS_Decoder.c.o
                0x00041548                ARCOMMANDS_Decoder_SetARDrone3MediaRecordEventPictureEventChangedCallback
 .text.ARCOMMANDS_Decoder_SetARDrone3MediaRecordEventVideoEventChangedCb
                0x0004157c       0x22 /home/ncs/CAPSTONE/out/arsdk-native/build/libARCommands/obj/gen/Sources/ARCOMMANDS_Decoder.c.o
                0x0004157c                ARCOMMANDS_Decoder_SetARDrone3MediaRecordEventVideoEventChangedCb
 *fill*         0x0004159e        0x2 
 .text.ARCOMMANDS_Decoder_SetARDrone3MediaRecordEventVideoEventChangedCallback
                0x000415a0       0x34 /home/ncs/CAPSTONE/out/arsdk-native/build/libARCommands/obj/gen/Sources/ARCOMMANDS_Decoder.c.o
                0x000415a0                ARCOMMANDS_Decoder_SetARDrone3MediaRecordEventVideoEventChangedCallback
 .text.ARCOMMANDS_Decoder_SetARDrone3PilotingStateFlatTrimChangedCb
                0x000415d4       0x22 /home/ncs/CAPSTONE/out/arsdk-native/build/libARCommands/obj/gen/Sources/ARCOMMANDS_Decoder.c.o
                0x000415d4                ARCOMMANDS_Decoder_SetARDrone3PilotingStateFlatTrimChangedCb
 *fill*         0x000415f6        0x2 
 .text.ARCOMMANDS_Decoder_SetARDrone3PilotingStateFlatTrimChangedCallback
                0x000415f8       0x34 /home/ncs/CAPSTONE/out/arsdk-native/build/libARCommands/obj/gen/Sources/ARCOMMANDS_Decoder.c.o
                0x000415f8                ARCOMMANDS_Decoder_SetARDrone3PilotingStateFlatTrimChangedCallback
 .text.ARCOMMANDS_Decoder_SetARDrone3PilotingStateFlyingStateChangedCb
                0x0004162c       0x22 /home/ncs/CAPSTONE/out/arsdk-native/build/libARCommands/obj/gen/Sources/ARCOMMANDS_Decoder.c.o
                0x0004162c                ARCOMMANDS_Decoder_SetARDrone3PilotingStateFlyingStateChangedCb
 *fill*         0x0004164e        0x2 
 .text.ARCOMMANDS_Decoder_SetARDrone3PilotingStateFlyingStateChangedCallback
                0x00041650       0x34 /home/ncs/CAPSTONE/out/arsdk-native/build/libARCommands/obj/gen/Sources/ARCOMMANDS_Decoder.c.o
                0x00041650                ARCOMMANDS_Decoder_SetARDrone3PilotingStateFlyingStateChangedCallback
 .text.ARCOMMANDS_Decoder_SetARDrone3PilotingStateAlertStateChangedCb
                0x00041684       0x22 /home/ncs/CAPSTONE/out/arsdk-native/build/libARCommands/obj/gen/Sources/ARCOMMANDS_Decoder.c.o
                0x00041684                ARCOMMANDS_Decoder_SetARDrone3PilotingStateAlertStateChangedCb
 *fill*         0x000416a6        0x2 
 .text.ARCOMMANDS_Decoder_SetARDrone3PilotingStateAlertStateChangedCallback
                0x000416a8       0x34 /home/ncs/CAPSTONE/out/arsdk-native/build/libARCommands/obj/gen/Sources/ARCOMMANDS_Decoder.c.o
                0x000416a8                ARCOMMANDS_Decoder_SetARDrone3PilotingStateAlertStateChangedCallback
 .text.ARCOMMANDS_Decoder_SetARDrone3PilotingStateNavigateHomeStateChangedCb
                0x000416dc       0x22 /home/ncs/CAPSTONE/out/arsdk-native/build/libARCommands/obj/gen/Sources/ARCOMMANDS_Decoder.c.o
                0x000416dc                ARCOMMANDS_Decoder_SetARDrone3PilotingStateNavigateHomeStateChangedCb
 *fill*         0x000416fe        0x2 
 .text.ARCOMMANDS_Decoder_SetARDrone3PilotingStateNavigateHomeStateChangedCallback
                0x00041700       0x34 /home/ncs/CAPSTONE/out/arsdk-native/build/libARCommands/obj/gen/Sources/ARCOMMANDS_Decoder.c.o
                0x00041700                ARCOMMANDS_Decoder_SetARDrone3PilotingStateNavigateHomeStateChangedCallback
 .text.ARCOMMANDS_Decoder_SetARDrone3PilotingStatePositionChangedCb
                0x00041734       0x22 /home/ncs/CAPSTONE/out/arsdk-native/build/libARCommands/obj/gen/Sources/ARCOMMANDS_Decoder.c.o
                0x00041734                ARCOMMANDS_Decoder_SetARDrone3PilotingStatePositionChangedCb
 *fill*         0x00041756        0x2 
 .text.ARCOMMANDS_Decoder_SetARDrone3PilotingStatePositionChangedCallback
                0x00041758       0x34 /home/ncs/CAPSTONE/out/arsdk-native/build/libARCommands/obj/gen/Sources/ARCOMMANDS_Decoder.c.o
                0x00041758                ARCOMMANDS_Decoder_SetARDrone3PilotingStatePositionChangedCallback
 .text.ARCOMMANDS_Decoder_SetARDrone3PilotingStateSpeedChangedCb
                0x0004178c       0x22 /home/ncs/CAPSTONE/out/arsdk-native/build/libARCommands/obj/gen/Sources/ARCOMMANDS_Decoder.c.o
                0x0004178c                ARCOMMANDS_Decoder_SetARDrone3PilotingStateSpeedChangedCb
 *fill*         0x000417ae        0x2 
 .text.ARCOMMANDS_Decoder_SetARDrone3PilotingStateSpeedChangedCallback
                0x000417b0       0x34 /home/ncs/CAPSTONE/out/arsdk-native/build/libARCommands/obj/gen/Sources/ARCOMMANDS_Decoder.c.o
                0x000417b0                ARCOMMANDS_Decoder_SetARDrone3PilotingStateSpeedChangedCallback
 .text.ARCOMMANDS_Decoder_SetARDrone3PilotingStateAttitudeChangedCb
                0x000417e4       0x22 /home/ncs/CAPSTONE/out/arsdk-native/build/libARCommands/obj/gen/Sources/ARCOMMANDS_Decoder.c.o
                0x000417e4                ARCOMMANDS_Decoder_SetARDrone3PilotingStateAttitudeChangedCb
 *fill*         0x00041806        0x2 
 .text.ARCOMMANDS_Decoder_SetARDrone3PilotingStateAttitudeChangedCallback
                0x00041808       0x34 /home/ncs/CAPSTONE/out/arsdk-native/build/libARCommands/obj/gen/Sources/ARCOMMANDS_Decoder.c.o
                0x00041808                ARCOMMANDS_Decoder_SetARDrone3PilotingStateAttitudeChangedCallback
 .text.ARCOMMANDS_Decoder_SetARDrone3PilotingStateAutoTakeOffModeChangedCb
                0x0004183c       0x22 /home/ncs/CAPSTONE/out/arsdk-native/build/libARCommands/obj/gen/Sources/ARCOMMANDS_Decoder.c.o
                0x0004183c                ARCOMMANDS_Decoder_SetARDrone3PilotingStateAutoTakeOffModeChangedCb
 *fill*         0x0004185e        0x2 
 .text.ARCOMMANDS_Decoder_SetARDrone3PilotingStateAutoTakeOffModeChangedCallback
                0x00041860       0x34 /home/ncs/CAPSTONE/out/arsdk-native/build/libARCommands/obj/gen/Sources/ARCOMMANDS_Decoder.c.o
                0x00041860                ARCOMMANDS_Decoder_SetARDrone3PilotingStateAutoTakeOffModeChangedCallback
 .text.ARCOMMANDS_Decoder_SetARDrone3PilotingStateAltitudeChangedCb
                0x00041894       0x22 /home/ncs/CAPSTONE/out/arsdk-native/build/libARCommands/obj/gen/Sources/ARCOMMANDS_Decoder.c.o
                0x00041894                ARCOMMANDS_Decoder_SetARDrone3PilotingStateAltitudeChangedCb
 *fill*         0x000418b6        0x2 
 .text.ARCOMMANDS_Decoder_SetARDrone3PilotingStateAltitudeChangedCallback
                0x000418b8       0x34 /home/ncs/CAPSTONE/out/arsdk-native/build/libARCommands/obj/gen/Sources/ARCOMMANDS_Decoder.c.o
                0x000418b8                ARCOMMANDS_Decoder_SetARDrone3PilotingStateAltitudeChangedCallback
 .text.ARCOMMANDS_Decoder_SetARDrone3PilotingStateGpsLocationChangedCb
                0x000418ec       0x22 /home/ncs/CAPSTONE/out/arsdk-native/build/libARCommands/obj/gen/Sources/ARCOMMANDS_Decoder.c.o
                0x000418ec                ARCOMMANDS_Decoder_SetARDrone3PilotingStateGpsLocationChangedCb
 *fill*         0x0004190e        0x2 
 .text.ARCOMMANDS_Decoder_SetARDrone3PilotingStateGpsLocationChangedCallback
                0x00041910       0x34 /home/ncs/CAPSTONE/out/arsdk-native/build/libARCommands/obj/gen/Sources/ARCOMMANDS_Decoder.c.o
                0x00041910                ARCOMMANDS_Decoder_SetARDrone3PilotingStateGpsLocationChangedCallback
 .text.ARCOMMANDS_Decoder_SetARDrone3PilotingStateLandingStateChangedCb
                0x00041944       0x22 /home/ncs/CAPSTONE/out/arsdk-native/build/libARCommands/obj/gen/Sources/ARCOMMANDS_Decoder.c.o
                0x00041944                ARCOMMANDS_Decoder_SetARDrone3PilotingStateLandingStateChangedCb
 *fill*         0x00041966        0x2 
 .text.ARCOMMANDS_Decoder_SetARDrone3PilotingStateLandingStateChangedCallback
                0x00041968       0x34 /home/ncs/CAPSTONE/out/arsdk-native/build/libARCommands/obj/gen/Sources/ARCOMMANDS_Decoder.c.o
                0x00041968                ARCOMMANDS_Decoder_SetARDrone3PilotingStateLandingStateChangedCallback
 .text.ARCOMMANDS_Decoder_SetARDrone3PilotingEventMoveByEndCb
                0x0004199c       0x22 /home/ncs/CAPSTONE/out/arsdk-native/build/libARCommands/obj/gen/Sources/ARCOMMANDS_Decoder.c.o
                0x0004199c                ARCOMMANDS_Decoder_SetARDrone3PilotingEventMoveByEndCb
 *fill*         0x000419be        0x2 
 .text.ARCOMMANDS_Decoder_SetARDrone3PilotingEventMoveByEndCallback
                0x000419c0       0x34 /home/ncs/CAPSTONE/out/arsdk-native/build/libARCommands/obj/gen/Sources/ARCOMMANDS_Decoder.c.o
                0x000419c0                ARCOMMANDS_Decoder_SetARDrone3PilotingEventMoveByEndCallback
 .text.ARCOMMANDS_Decoder_SetARDrone3NetworkStateWifiScanListChangedCb
                0x000419f4       0x22 /home/ncs/CAPSTONE/out/arsdk-native/build/libARCommands/obj/gen/Sources/ARCOMMANDS_Decoder.c.o
                0x000419f4                ARCOMMANDS_Decoder_SetARDrone3NetworkStateWifiScanListChangedCb
 *fill*         0x00041a16        0x2 
 .text.ARCOMMANDS_Decoder_SetARDrone3NetworkStateWifiScanListChangedCallback
                0x00041a18       0x34 /home/ncs/CAPSTONE/out/arsdk-native/build/libARCommands/obj/gen/Sources/ARCOMMANDS_Decoder.c.o
                0x00041a18                ARCOMMANDS_Decoder_SetARDrone3NetworkStateWifiScanListChangedCallback
 .text.ARCOMMANDS_Decoder_SetARDrone3NetworkStateAllWifiScanChangedCb
                0x00041a4c       0x22 /home/ncs/CAPSTONE/out/arsdk-native/build/libARCommands/obj/gen/Sources/ARCOMMANDS_Decoder.c.o
                0x00041a4c                ARCOMMANDS_Decoder_SetARDrone3NetworkStateAllWifiScanChangedCb
 *fill*         0x00041a6e        0x2 
 .text.ARCOMMANDS_Decoder_SetARDrone3NetworkStateAllWifiScanChangedCallback
                0x00041a70       0x34 /home/ncs/CAPSTONE/out/arsdk-native/build/libARCommands/obj/gen/Sources/ARCOMMANDS_Decoder.c.o
                0x00041a70                ARCOMMANDS_Decoder_SetARDrone3NetworkStateAllWifiScanChangedCallback
 .text.ARCOMMANDS_Decoder_SetARDrone3NetworkStateWifiAuthChannelListChangedCb
                0x00041aa4       0x22 /home/ncs/CAPSTONE/out/arsdk-native/build/libARCommands/obj/gen/Sources/ARCOMMANDS_Decoder.c.o
                0x00041aa4                ARCOMMANDS_Decoder_SetARDrone3NetworkStateWifiAuthChannelListChangedCb
 *fill*         0x00041ac6        0x2 
 .text.ARCOMMANDS_Decoder_SetARDrone3NetworkStateWifiAuthChannelListChangedCallback
                0x00041ac8       0x34 /home/ncs/CAPSTONE/out/arsdk-native/build/libARCommands/obj/gen/Sources/ARCOMMANDS_Decoder.c.o
                0x00041ac8                ARCOMMANDS_Decoder_SetARDrone3NetworkStateWifiAuthChannelListChangedCallback
 .text.ARCOMMANDS_Decoder_SetARDrone3NetworkStateAllWifiAuthChannelChangedCb
                0x00041afc       0x22 /home/ncs/CAPSTONE/out/arsdk-native/build/libARCommands/obj/gen/Sources/ARCOMMANDS_Decoder.c.o
                0x00041afc                ARCOMMANDS_Decoder_SetARDrone3NetworkStateAllWifiAuthChannelChangedCb
 *fill*         0x00041b1e        0x2 
 .text.ARCOMMANDS_Decoder_SetARDrone3NetworkStateAllWifiAuthChannelChangedCallback
                0x00041b20       0x34 /home/ncs/CAPSTONE/out/arsdk-native/build/libARCommands/obj/gen/Sources/ARCOMMANDS_Decoder.c.o
                0x00041b20                ARCOMMANDS_Decoder_SetARDrone3NetworkStateAllWifiAuthChannelChangedCallback
 .text.ARCOMMANDS_Decoder_SetARDrone3PilotingSettingsStateMaxAltitudeChangedCb
                0x00041b54       0x22 /home/ncs/CAPSTONE/out/arsdk-native/build/libARCommands/obj/gen/Sources/ARCOMMANDS_Decoder.c.o
                0x00041b54                ARCOMMANDS_Decoder_SetARDrone3PilotingSettingsStateMaxAltitudeChangedCb
 *fill*         0x00041b76        0x2 
 .text.ARCOMMANDS_Decoder_SetARDrone3PilotingSettingsStateMaxAltitudeChangedCallback
                0x00041b78       0x34 /home/ncs/CAPSTONE/out/arsdk-native/build/libARCommands/obj/gen/Sources/ARCOMMANDS_Decoder.c.o
                0x00041b78                ARCOMMANDS_Decoder_SetARDrone3PilotingSettingsStateMaxAltitudeChangedCallback
 .text.ARCOMMANDS_Decoder_SetARDrone3PilotingSettingsStateMaxTiltChangedCb
                0x00041bac       0x22 /home/ncs/CAPSTONE/out/arsdk-native/build/libARCommands/obj/gen/Sources/ARCOMMANDS_Decoder.c.o
                0x00041bac                ARCOMMANDS_Decoder_SetARDrone3PilotingSettingsStateMaxTiltChangedCb
 *fill*         0x00041bce        0x2 
 .text.ARCOMMANDS_Decoder_SetARDrone3PilotingSettingsStateMaxTiltChangedCallback
                0x00041bd0       0x34 /home/ncs/CAPSTONE/out/arsdk-native/build/libARCommands/obj/gen/Sources/ARCOMMANDS_Decoder.c.o
                0x00041bd0                ARCOMMANDS_Decoder_SetARDrone3PilotingSettingsStateMaxTiltChangedCallback
 .text.ARCOMMANDS_Decoder_SetARDrone3PilotingSettingsStateAbsolutControlChangedCb
                0x00041c04       0x22 /home/ncs/CAPSTONE/out/arsdk-native/build/libARCommands/obj/gen/Sources/ARCOMMANDS_Decoder.c.o
                0x00041c04                ARCOMMANDS_Decoder_SetARDrone3PilotingSettingsStateAbsolutControlChangedCb
 *fill*         0x00041c26        0x2 
 .text.ARCOMMANDS_Decoder_SetARDrone3PilotingSettingsStateAbsolutControlChangedCallback
                0x00041c28       0x34 /home/ncs/CAPSTONE/out/arsdk-native/build/libARCommands/obj/gen/Sources/ARCOMMANDS_Decoder.c.o
                0x00041c28                ARCOMMANDS_Decoder_SetARDrone3PilotingSettingsStateAbsolutControlChangedCallback
 .text.ARCOMMANDS_Decoder_SetARDrone3PilotingSettingsStateMaxDistanceChangedCb
                0x00041c5c       0x22 /home/ncs/CAPSTONE/out/arsdk-native/build/libARCommands/obj/gen/Sources/ARCOMMANDS_Decoder.c.o
                0x00041c5c                ARCOMMANDS_Decoder_SetARDrone3PilotingSettingsStateMaxDistanceChangedCb
 *fill*         0x00041c7e        0x2 
 .text.ARCOMMANDS_Decoder_SetARDrone3PilotingSettingsStateMaxDistanceChangedCallback
                0x00041c80       0x34 /home/ncs/CAPSTONE/out/arsdk-native/build/libARCommands/obj/gen/Sources/ARCOMMANDS_Decoder.c.o
                0x00041c80                ARCOMMANDS_Decoder_SetARDrone3PilotingSettingsStateMaxDistanceChangedCallback
 .text.ARCOMMANDS_Decoder_SetARDrone3PilotingSettingsStateNoFlyOverMaxDistanceChangedCb
                0x00041cb4       0x22 /home/ncs/CAPSTONE/out/arsdk-native/build/libARCommands/obj/gen/Sources/ARCOMMANDS_Decoder.c.o
                0x00041cb4                ARCOMMANDS_Decoder_SetARDrone3PilotingSettingsStateNoFlyOverMaxDistanceChangedCb
 *fill*         0x00041cd6        0x2 
 .text.ARCOMMANDS_Decoder_SetARDrone3PilotingSettingsStateNoFlyOverMaxDistanceChangedCallback
                0x00041cd8       0x34 /home/ncs/CAPSTONE/out/arsdk-native/build/libARCommands/obj/gen/Sources/ARCOMMANDS_Decoder.c.o
                0x00041cd8                ARCOMMANDS_Decoder_SetARDrone3PilotingSettingsStateNoFlyOverMaxDistanceChangedCallback
 .text.ARCOMMANDS_Decoder_SetARDrone3PilotingSettingsStateAutonomousFlightMaxHorizontalSpeedCb
                0x00041d0c       0x22 /home/ncs/CAPSTONE/out/arsdk-native/build/libARCommands/obj/gen/Sources/ARCOMMANDS_Decoder.c.o
                0x00041d0c                ARCOMMANDS_Decoder_SetARDrone3PilotingSettingsStateAutonomousFlightMaxHorizontalSpeedCb
 *fill*         0x00041d2e        0x2 
 .text.ARCOMMANDS_Decoder_SetARDrone3PilotingSettingsStateAutonomousFlightMaxHorizontalSpeedCallback
                0x00041d30       0x34 /home/ncs/CAPSTONE/out/arsdk-native/build/libARCommands/obj/gen/Sources/ARCOMMANDS_Decoder.c.o
                0x00041d30                ARCOMMANDS_Decoder_SetARDrone3PilotingSettingsStateAutonomousFlightMaxHorizontalSpeedCallback
 .text.ARCOMMANDS_Decoder_SetARDrone3PilotingSettingsStateAutonomousFlightMaxVerticalSpeedCb
                0x00041d64       0x22 /home/ncs/CAPSTONE/out/arsdk-native/build/libARCommands/obj/gen/Sources/ARCOMMANDS_Decoder.c.o
                0x00041d64                ARCOMMANDS_Decoder_SetARDrone3PilotingSettingsStateAutonomousFlightMaxVerticalSpeedCb
 *fill*         0x00041d86        0x2 
 .text.ARCOMMANDS_Decoder_SetARDrone3PilotingSettingsStateAutonomousFlightMaxVerticalSpeedCallback
                0x00041d88       0x34 /home/ncs/CAPSTONE/out/arsdk-native/build/libARCommands/obj/gen/Sources/ARCOMMANDS_Decoder.c.o
                0x00041d88                ARCOMMANDS_Decoder_SetARDrone3PilotingSettingsStateAutonomousFlightMaxVerticalSpeedCallback
 .text.ARCOMMANDS_Decoder_SetARDrone3PilotingSettingsStateAutonomousFlightMaxHorizontalAccelerationCb
                0x00041dbc       0x22 /home/ncs/CAPSTONE/out/arsdk-native/build/libARCommands/obj/gen/Sources/ARCOMMANDS_Decoder.c.o
                0x00041dbc                ARCOMMANDS_Decoder_SetARDrone3PilotingSettingsStateAutonomousFlightMaxHorizontalAccelerationCb
 *fill*         0x00041dde        0x2 
 .text.ARCOMMANDS_Decoder_SetARDrone3PilotingSettingsStateAutonomousFlightMaxHorizontalAccelerationCallback
                0x00041de0       0x34 /home/ncs/CAPSTONE/out/arsdk-native/build/libARCommands/obj/gen/Sources/ARCOMMANDS_Decoder.c.o
                0x00041de0                ARCOMMANDS_Decoder_SetARDrone3PilotingSettingsStateAutonomousFlightMaxHorizontalAccelerationCallback
 .text.ARCOMMANDS_Decoder_SetARDrone3PilotingSettingsStateAutonomousFlightMaxVerticalAccelerationCb
                0x00041e14       0x22 /home/ncs/CAPSTONE/out/arsdk-native/build/libARCommands/obj/gen/Sources/ARCOMMANDS_Decoder.c.o
                0x00041e14                ARCOMMANDS_Decoder_SetARDrone3PilotingSettingsStateAutonomousFlightMaxVerticalAccelerationCb
 *fill*         0x00041e36        0x2 
 .text.ARCOMMANDS_Decoder_SetARDrone3PilotingSettingsStateAutonomousFlightMaxVerticalAccelerationCallback
                0x00041e38       0x34 /home/ncs/CAPSTONE/out/arsdk-native/build/libARCommands/obj/gen/Sources/ARCOMMANDS_Decoder.c.o
                0x00041e38                ARCOMMANDS_Decoder_SetARDrone3PilotingSettingsStateAutonomousFlightMaxVerticalAccelerationCallback
 .text.ARCOMMANDS_Decoder_SetARDrone3PilotingSettingsStateAutonomousFlightMaxRotationSpeedCb
                0x00041e6c       0x22 /home/ncs/CAPSTONE/out/arsdk-native/build/libARCommands/obj/gen/Sources/ARCOMMANDS_Decoder.c.o
                0x00041e6c                ARCOMMANDS_Decoder_SetARDrone3PilotingSettingsStateAutonomousFlightMaxRotationSpeedCb
 *fill*         0x00041e8e        0x2 
 .text.ARCOMMANDS_Decoder_SetARDrone3PilotingSettingsStateAutonomousFlightMaxRotationSpeedCallback
                0x00041e90       0x34 /home/ncs/CAPSTONE/out/arsdk-native/build/libARCommands/obj/gen/Sources/ARCOMMANDS_Decoder.c.o
                0x00041e90                ARCOMMANDS_Decoder_SetARDrone3PilotingSettingsStateAutonomousFlightMaxRotationSpeedCallback
 .text.ARCOMMANDS_Decoder_SetARDrone3PilotingSettingsStateBankedTurnChangedCb
                0x00041ec4       0x22 /home/ncs/CAPSTONE/out/arsdk-native/build/libARCommands/obj/gen/Sources/ARCOMMANDS_Decoder.c.o
                0x00041ec4                ARCOMMANDS_Decoder_SetARDrone3PilotingSettingsStateBankedTurnChangedCb
 *fill*         0x00041ee6        0x2 
 .text.ARCOMMANDS_Decoder_SetARDrone3PilotingSettingsStateBankedTurnChangedCallback
                0x00041ee8       0x34 /home/ncs/CAPSTONE/out/arsdk-native/build/libARCommands/obj/gen/Sources/ARCOMMANDS_Decoder.c.o
                0x00041ee8                ARCOMMANDS_Decoder_SetARDrone3PilotingSettingsStateBankedTurnChangedCallback
 .text.ARCOMMANDS_Decoder_SetARDrone3PilotingSettingsStateMinAltitudeChangedCb
                0x00041f1c       0x22 /home/ncs/CAPSTONE/out/arsdk-native/build/libARCommands/obj/gen/Sources/ARCOMMANDS_Decoder.c.o
                0x00041f1c                ARCOMMANDS_Decoder_SetARDrone3PilotingSettingsStateMinAltitudeChangedCb
 *fill*         0x00041f3e        0x2 
 .text.ARCOMMANDS_Decoder_SetARDrone3PilotingSettingsStateMinAltitudeChangedCallback
                0x00041f40       0x34 /home/ncs/CAPSTONE/out/arsdk-native/build/libARCommands/obj/gen/Sources/ARCOMMANDS_Decoder.c.o
                0x00041f40                ARCOMMANDS_Decoder_SetARDrone3PilotingSettingsStateMinAltitudeChangedCallback
 .text.ARCOMMANDS_Decoder_SetARDrone3PilotingSettingsStateCirclingDirectionChangedCb
                0x00041f74       0x22 /home/ncs/CAPSTONE/out/arsdk-native/build/libARCommands/obj/gen/Sources/ARCOMMANDS_Decoder.c.o
                0x00041f74                ARCOMMANDS_Decoder_SetARDrone3PilotingSettingsStateCirclingDirectionChangedCb
 *fill*         0x00041f96        0x2 
 .text.ARCOMMANDS_Decoder_SetARDrone3PilotingSettingsStateCirclingDirectionChangedCallback
                0x00041f98       0x34 /home/ncs/CAPSTONE/out/arsdk-native/build/libARCommands/obj/gen/Sources/ARCOMMANDS_Decoder.c.o
                0x00041f98                ARCOMMANDS_Decoder_SetARDrone3PilotingSettingsStateCirclingDirectionChangedCallback
 .text.ARCOMMANDS_Decoder_SetARDrone3PilotingSettingsStateCirclingRadiusChangedCb
                0x00041fcc       0x22 /home/ncs/CAPSTONE/out/arsdk-native/build/libARCommands/obj/gen/Sources/ARCOMMANDS_Decoder.c.o
                0x00041fcc                ARCOMMANDS_Decoder_SetARDrone3PilotingSettingsStateCirclingRadiusChangedCb
 *fill*         0x00041fee        0x2 
 .text.ARCOMMANDS_Decoder_SetARDrone3PilotingSettingsStateCirclingRadiusChangedCallback
                0x00041ff0       0x34 /home/ncs/CAPSTONE/out/arsdk-native/build/libARCommands/obj/gen/Sources/ARCOMMANDS_Decoder.c.o
                0x00041ff0                ARCOMMANDS_Decoder_SetARDrone3PilotingSettingsStateCirclingRadiusChangedCallback
 .text.ARCOMMANDS_Decoder_SetARDrone3PilotingSettingsStateCirclingAltitudeChangedCb
                0x00042024       0x22 /home/ncs/CAPSTONE/out/arsdk-native/build/libARCommands/obj/gen/Sources/ARCOMMANDS_Decoder.c.o
                0x00042024                ARCOMMANDS_Decoder_SetARDrone3PilotingSettingsStateCirclingAltitudeChangedCb
 *fill*         0x00042046        0x2 
 .text.ARCOMMANDS_Decoder_SetARDrone3PilotingSettingsStateCirclingAltitudeChangedCallback
                0x00042048       0x34 /home/ncs/CAPSTONE/out/arsdk-native/build/libARCommands/obj/gen/Sources/ARCOMMANDS_Decoder.c.o
                0x00042048                ARCOMMANDS_Decoder_SetARDrone3PilotingSettingsStateCirclingAltitudeChangedCallback
 .text.ARCOMMANDS_Decoder_SetARDrone3PilotingSettingsStatePitchModeChangedCb
                0x0004207c       0x22 /home/ncs/CAPSTONE/out/arsdk-native/build/libARCommands/obj/gen/Sources/ARCOMMANDS_Decoder.c.o
                0x0004207c                ARCOMMANDS_Decoder_SetARDrone3PilotingSettingsStatePitchModeChangedCb
 *fill*         0x0004209e        0x2 
 .text.ARCOMMANDS_Decoder_SetARDrone3PilotingSettingsStatePitchModeChangedCallback
                0x000420a0       0x34 /home/ncs/CAPSTONE/out/arsdk-native/build/libARCommands/obj/gen/Sources/ARCOMMANDS_Decoder.c.o
                0x000420a0                ARCOMMANDS_Decoder_SetARDrone3PilotingSettingsStatePitchModeChangedCallback
 .text.ARCOMMANDS_Decoder_SetARDrone3SpeedSettingsStateMaxVerticalSpeedChangedCb
                0x000420d4       0x22 /home/ncs/CAPSTONE/out/arsdk-native/build/libARCommands/obj/gen/Sources/ARCOMMANDS_Decoder.c.o
                0x000420d4                ARCOMMANDS_Decoder_SetARDrone3SpeedSettingsStateMaxVerticalSpeedChangedCb
 *fill*         0x000420f6        0x2 
 .text.ARCOMMANDS_Decoder_SetARDrone3SpeedSettingsStateMaxVerticalSpeedChangedCallback
                0x000420f8       0x34 /home/ncs/CAPSTONE/out/arsdk-native/build/libARCommands/obj/gen/Sources/ARCOMMANDS_Decoder.c.o
                0x000420f8                ARCOMMANDS_Decoder_SetARDrone3SpeedSettingsStateMaxVerticalSpeedChangedCallback
 .text.ARCOMMANDS_Decoder_SetARDrone3SpeedSettingsStateMaxRotationSpeedChangedCb
                0x0004212c       0x22 /home/ncs/CAPSTONE/out/arsdk-native/build/libARCommands/obj/gen/Sources/ARCOMMANDS_Decoder.c.o
                0x0004212c                ARCOMMANDS_Decoder_SetARDrone3SpeedSettingsStateMaxRotationSpeedChangedCb
 *fill*         0x0004214e        0x2 
 .text.ARCOMMANDS_Decoder_SetARDrone3SpeedSettingsStateMaxRotationSpeedChangedCallback
                0x00042150       0x34 /home/ncs/CAPSTONE/out/arsdk-native/build/libARCommands/obj/gen/Sources/ARCOMMANDS_Decoder.c.o
                0x00042150                ARCOMMANDS_Decoder_SetARDrone3SpeedSettingsStateMaxRotationSpeedChangedCallback
 .text.ARCOMMANDS_Decoder_SetARDrone3SpeedSettingsStateHullProtectionChangedCb
                0x00042184       0x22 /home/ncs/CAPSTONE/out/arsdk-native/build/libARCommands/obj/gen/Sources/ARCOMMANDS_Decoder.c.o
                0x00042184                ARCOMMANDS_Decoder_SetARDrone3SpeedSettingsStateHullProtectionChangedCb
 *fill*         0x000421a6        0x2 
 .text.ARCOMMANDS_Decoder_SetARDrone3SpeedSettingsStateHullProtectionChangedCallback
                0x000421a8       0x34 /home/ncs/CAPSTONE/out/arsdk-native/build/libARCommands/obj/gen/Sources/ARCOMMANDS_Decoder.c.o
                0x000421a8                ARCOMMANDS_Decoder_SetARDrone3SpeedSettingsStateHullProtectionChangedCallback
 .text.ARCOMMANDS_Decoder_SetARDrone3SpeedSettingsStateOutdoorChangedCb
                0x000421dc       0x22 /home/ncs/CAPSTONE/out/arsdk-native/build/libARCommands/obj/gen/Sources/ARCOMMANDS_Decoder.c.o
                0x000421dc                ARCOMMANDS_Decoder_SetARDrone3SpeedSettingsStateOutdoorChangedCb
 *fill*         0x000421fe        0x2 
 .text.ARCOMMANDS_Decoder_SetARDrone3SpeedSettingsStateOutdoorChangedCallback
                0x00042200       0x34 /home/ncs/CAPSTONE/out/arsdk-native/build/libARCommands/obj/gen/Sources/ARCOMMANDS_Decoder.c.o
                0x00042200                ARCOMMANDS_Decoder_SetARDrone3SpeedSettingsStateOutdoorChangedCallback
 .text.ARCOMMANDS_Decoder_SetARDrone3SpeedSettingsStateMaxPitchRollRotationSpeedChangedCb
                0x00042234       0x22 /home/ncs/CAPSTONE/out/arsdk-native/build/libARCommands/obj/gen/Sources/ARCOMMANDS_Decoder.c.o
                0x00042234                ARCOMMANDS_Decoder_SetARDrone3SpeedSettingsStateMaxPitchRollRotationSpeedChangedCb
 *fill*         0x00042256        0x2 
 .text.ARCOMMANDS_Decoder_SetARDrone3SpeedSettingsStateMaxPitchRollRotationSpeedChangedCallback
                0x00042258       0x34 /home/ncs/CAPSTONE/out/arsdk-native/build/libARCommands/obj/gen/Sources/ARCOMMANDS_Decoder.c.o
                0x00042258                ARCOMMANDS_Decoder_SetARDrone3SpeedSettingsStateMaxPitchRollRotationSpeedChangedCallback
 .text.ARCOMMANDS_Decoder_SetARDrone3NetworkSettingsStateWifiSelectionChangedCb
                0x0004228c       0x22 /home/ncs/CAPSTONE/out/arsdk-native/build/libARCommands/obj/gen/Sources/ARCOMMANDS_Decoder.c.o
                0x0004228c                ARCOMMANDS_Decoder_SetARDrone3NetworkSettingsStateWifiSelectionChangedCb
 *fill*         0x000422ae        0x2 
 .text.ARCOMMANDS_Decoder_SetARDrone3NetworkSettingsStateWifiSelectionChangedCallback
                0x000422b0       0x34 /home/ncs/CAPSTONE/out/arsdk-native/build/libARCommands/obj/gen/Sources/ARCOMMANDS_Decoder.c.o
                0x000422b0                ARCOMMANDS_Decoder_SetARDrone3NetworkSettingsStateWifiSelectionChangedCallback
 .text.ARCOMMANDS_Decoder_SetARDrone3NetworkSettingsStateWifiSecurityChangedCb
                0x000422e4       0x22 /home/ncs/CAPSTONE/out/arsdk-native/build/libARCommands/obj/gen/Sources/ARCOMMANDS_Decoder.c.o
                0x000422e4                ARCOMMANDS_Decoder_SetARDrone3NetworkSettingsStateWifiSecurityChangedCb
 *fill*         0x00042306        0x2 
 .text.ARCOMMANDS_Decoder_SetARDrone3NetworkSettingsStateWifiSecurityChangedCallback
                0x00042308       0x34 /home/ncs/CAPSTONE/out/arsdk-native/build/libARCommands/obj/gen/Sources/ARCOMMANDS_Decoder.c.o
                0x00042308                ARCOMMANDS_Decoder_SetARDrone3NetworkSettingsStateWifiSecurityChangedCallback
 .text.ARCOMMANDS_Decoder_SetARDrone3NetworkSettingsStateWifiSecurityCb
                0x0004233c       0x22 /home/ncs/CAPSTONE/out/arsdk-native/build/libARCommands/obj/gen/Sources/ARCOMMANDS_Decoder.c.o
                0x0004233c                ARCOMMANDS_Decoder_SetARDrone3NetworkSettingsStateWifiSecurityCb
 *fill*         0x0004235e        0x2 
 .text.ARCOMMANDS_Decoder_SetARDrone3NetworkSettingsStateWifiSecurityCallback
                0x00042360       0x34 /home/ncs/CAPSTONE/out/arsdk-native/build/libARCommands/obj/gen/Sources/ARCOMMANDS_Decoder.c.o
                0x00042360                ARCOMMANDS_Decoder_SetARDrone3NetworkSettingsStateWifiSecurityCallback
 .text.ARCOMMANDS_Decoder_SetARDrone3SettingsStateProductMotorVersionListChangedCb
                0x00042394       0x22 /home/ncs/CAPSTONE/out/arsdk-native/build/libARCommands/obj/gen/Sources/ARCOMMANDS_Decoder.c.o
                0x00042394                ARCOMMANDS_Decoder_SetARDrone3SettingsStateProductMotorVersionListChangedCb
 *fill*         0x000423b6        0x2 
 .text.ARCOMMANDS_Decoder_SetARDrone3SettingsStateProductMotorVersionListChangedCallback
                0x000423b8       0x34 /home/ncs/CAPSTONE/out/arsdk-native/build/libARCommands/obj/gen/Sources/ARCOMMANDS_Decoder.c.o
                0x000423b8                ARCOMMANDS_Decoder_SetARDrone3SettingsStateProductMotorVersionListChangedCallback
 .text.ARCOMMANDS_Decoder_SetARDrone3SettingsStateProductGPSVersionChangedCb
                0x000423ec       0x22 /home/ncs/CAPSTONE/out/arsdk-native/build/libARCommands/obj/gen/Sources/ARCOMMANDS_Decoder.c.o
                0x000423ec                ARCOMMANDS_Decoder_SetARDrone3SettingsStateProductGPSVersionChangedCb
 *fill*         0x0004240e        0x2 
 .text.ARCOMMANDS_Decoder_SetARDrone3SettingsStateProductGPSVersionChangedCallback
                0x00042410       0x34 /home/ncs/CAPSTONE/out/arsdk-native/build/libARCommands/obj/gen/Sources/ARCOMMANDS_Decoder.c.o
                0x00042410                ARCOMMANDS_Decoder_SetARDrone3SettingsStateProductGPSVersionChangedCallback
 .text.ARCOMMANDS_Decoder_SetARDrone3SettingsStateMotorErrorStateChangedCb
                0x00042444       0x22 /home/ncs/CAPSTONE/out/arsdk-native/build/libARCommands/obj/gen/Sources/ARCOMMANDS_Decoder.c.o
                0x00042444                ARCOMMANDS_Decoder_SetARDrone3SettingsStateMotorErrorStateChangedCb
 *fill*         0x00042466        0x2 
 .text.ARCOMMANDS_Decoder_SetARDrone3SettingsStateMotorErrorStateChangedCallback
                0x00042468       0x34 /home/ncs/CAPSTONE/out/arsdk-native/build/libARCommands/obj/gen/Sources/ARCOMMANDS_Decoder.c.o
                0x00042468                ARCOMMANDS_Decoder_SetARDrone3SettingsStateMotorErrorStateChangedCallback
 .text.ARCOMMANDS_Decoder_SetARDrone3SettingsStateMotorSoftwareVersionChangedCb
                0x0004249c       0x22 /home/ncs/CAPSTONE/out/arsdk-native/build/libARCommands/obj/gen/Sources/ARCOMMANDS_Decoder.c.o
                0x0004249c                ARCOMMANDS_Decoder_SetARDrone3SettingsStateMotorSoftwareVersionChangedCb
 *fill*         0x000424be        0x2 
 .text.ARCOMMANDS_Decoder_SetARDrone3SettingsStateMotorSoftwareVersionChangedCallback
                0x000424c0       0x34 /home/ncs/CAPSTONE/out/arsdk-native/build/libARCommands/obj/gen/Sources/ARCOMMANDS_Decoder.c.o
                0x000424c0                ARCOMMANDS_Decoder_SetARDrone3SettingsStateMotorSoftwareVersionChangedCallback
 .text.ARCOMMANDS_Decoder_SetARDrone3SettingsStateMotorFlightsStatusChangedCb
                0x000424f4       0x22 /home/ncs/CAPSTONE/out/arsdk-native/build/libARCommands/obj/gen/Sources/ARCOMMANDS_Decoder.c.o
                0x000424f4                ARCOMMANDS_Decoder_SetARDrone3SettingsStateMotorFlightsStatusChangedCb
 *fill*         0x00042516        0x2 
 .text.ARCOMMANDS_Decoder_SetARDrone3SettingsStateMotorFlightsStatusChangedCallback
                0x00042518       0x34 /home/ncs/CAPSTONE/out/arsdk-native/build/libARCommands/obj/gen/Sources/ARCOMMANDS_Decoder.c.o
                0x00042518                ARCOMMANDS_Decoder_SetARDrone3SettingsStateMotorFlightsStatusChangedCallback
 .text.ARCOMMANDS_Decoder_SetARDrone3SettingsStateMotorErrorLastErrorChangedCb
                0x0004254c       0x22 /home/ncs/CAPSTONE/out/arsdk-native/build/libARCommands/obj/gen/Sources/ARCOMMANDS_Decoder.c.o
                0x0004254c                ARCOMMANDS_Decoder_SetARDrone3SettingsStateMotorErrorLastErrorChangedCb
 *fill*         0x0004256e        0x2 
 .text.ARCOMMANDS_Decoder_SetARDrone3SettingsStateMotorErrorLastErrorChangedCallback
                0x00042570       0x34 /home/ncs/CAPSTONE/out/arsdk-native/build/libARCommands/obj/gen/Sources/ARCOMMANDS_Decoder.c.o
                0x00042570                ARCOMMANDS_Decoder_SetARDrone3SettingsStateMotorErrorLastErrorChangedCallback
 .text.ARCOMMANDS_Decoder_SetARDrone3SettingsStateP7IDCb
                0x000425a4       0x22 /home/ncs/CAPSTONE/out/arsdk-native/build/libARCommands/obj/gen/Sources/ARCOMMANDS_Decoder.c.o
                0x000425a4                ARCOMMANDS_Decoder_SetARDrone3SettingsStateP7IDCb
 *fill*         0x000425c6        0x2 
 .text.ARCOMMANDS_Decoder_SetARDrone3SettingsStateP7IDCallback
                0x000425c8       0x34 /home/ncs/CAPSTONE/out/arsdk-native/build/libARCommands/obj/gen/Sources/ARCOMMANDS_Decoder.c.o
                0x000425c8                ARCOMMANDS_Decoder_SetARDrone3SettingsStateP7IDCallback
 .text.ARCOMMANDS_Decoder_SetARDrone3SettingsStateCPUIDCb
                0x000425fc       0x22 /home/ncs/CAPSTONE/out/arsdk-native/build/libARCommands/obj/gen/Sources/ARCOMMANDS_Decoder.c.o
                0x000425fc                ARCOMMANDS_Decoder_SetARDrone3SettingsStateCPUIDCb
 *fill*         0x0004261e        0x2 
 .text.ARCOMMANDS_Decoder_SetARDrone3SettingsStateCPUIDCallback
                0x00042620       0x34 /home/ncs/CAPSTONE/out/arsdk-native/build/libARCommands/obj/gen/Sources/ARCOMMANDS_Decoder.c.o
                0x00042620                ARCOMMANDS_Decoder_SetARDrone3SettingsStateCPUIDCallback
 .text.ARCOMMANDS_Decoder_SetARDrone3PictureSettingsStatePictureFormatChangedCb
                0x00042654       0x22 /home/ncs/CAPSTONE/out/arsdk-native/build/libARCommands/obj/gen/Sources/ARCOMMANDS_Decoder.c.o
                0x00042654                ARCOMMANDS_Decoder_SetARDrone3PictureSettingsStatePictureFormatChangedCb
 *fill*         0x00042676        0x2 
 .text.ARCOMMANDS_Decoder_SetARDrone3PictureSettingsStatePictureFormatChangedCallback
                0x00042678       0x34 /home/ncs/CAPSTONE/out/arsdk-native/build/libARCommands/obj/gen/Sources/ARCOMMANDS_Decoder.c.o
                0x00042678                ARCOMMANDS_Decoder_SetARDrone3PictureSettingsStatePictureFormatChangedCallback
 .text.ARCOMMANDS_Decoder_SetARDrone3PictureSettingsStateAutoWhiteBalanceChangedCb
                0x000426ac       0x22 /home/ncs/CAPSTONE/out/arsdk-native/build/libARCommands/obj/gen/Sources/ARCOMMANDS_Decoder.c.o
                0x000426ac                ARCOMMANDS_Decoder_SetARDrone3PictureSettingsStateAutoWhiteBalanceChangedCb
 *fill*         0x000426ce        0x2 
 .text.ARCOMMANDS_Decoder_SetARDrone3PictureSettingsStateAutoWhiteBalanceChangedCallback
                0x000426d0       0x34 /home/ncs/CAPSTONE/out/arsdk-native/build/libARCommands/obj/gen/Sources/ARCOMMANDS_Decoder.c.o
                0x000426d0                ARCOMMANDS_Decoder_SetARDrone3PictureSettingsStateAutoWhiteBalanceChangedCallback
 .text.ARCOMMANDS_Decoder_SetARDrone3PictureSettingsStateExpositionChangedCb
                0x00042704       0x22 /home/ncs/CAPSTONE/out/arsdk-native/build/libARCommands/obj/gen/Sources/ARCOMMANDS_Decoder.c.o
                0x00042704                ARCOMMANDS_Decoder_SetARDrone3PictureSettingsStateExpositionChangedCb
 *fill*         0x00042726        0x2 
 .text.ARCOMMANDS_Decoder_SetARDrone3PictureSettingsStateExpositionChangedCallback
                0x00042728       0x34 /home/ncs/CAPSTONE/out/arsdk-native/build/libARCommands/obj/gen/Sources/ARCOMMANDS_Decoder.c.o
                0x00042728                ARCOMMANDS_Decoder_SetARDrone3PictureSettingsStateExpositionChangedCallback
 .text.ARCOMMANDS_Decoder_SetARDrone3PictureSettingsStateSaturationChangedCb
                0x0004275c       0x22 /home/ncs/CAPSTONE/out/arsdk-native/build/libARCommands/obj/gen/Sources/ARCOMMANDS_Decoder.c.o
                0x0004275c                ARCOMMANDS_Decoder_SetARDrone3PictureSettingsStateSaturationChangedCb
 *fill*         0x0004277e        0x2 
 .text.ARCOMMANDS_Decoder_SetARDrone3PictureSettingsStateSaturationChangedCallback
                0x00042780       0x34 /home/ncs/CAPSTONE/out/arsdk-native/build/libARCommands/obj/gen/Sources/ARCOMMANDS_Decoder.c.o
                0x00042780                ARCOMMANDS_Decoder_SetARDrone3PictureSettingsStateSaturationChangedCallback
 .text.ARCOMMANDS_Decoder_SetARDrone3PictureSettingsStateTimelapseChangedCb
                0x000427b4       0x22 /home/ncs/CAPSTONE/out/arsdk-native/build/libARCommands/obj/gen/Sources/ARCOMMANDS_Decoder.c.o
                0x000427b4                ARCOMMANDS_Decoder_SetARDrone3PictureSettingsStateTimelapseChangedCb
 *fill*         0x000427d6        0x2 
 .text.ARCOMMANDS_Decoder_SetARDrone3PictureSettingsStateTimelapseChangedCallback
                0x000427d8       0x34 /home/ncs/CAPSTONE/out/arsdk-native/build/libARCommands/obj/gen/Sources/ARCOMMANDS_Decoder.c.o
                0x000427d8                ARCOMMANDS_Decoder_SetARDrone3PictureSettingsStateTimelapseChangedCallback
 .text.ARCOMMANDS_Decoder_SetARDrone3PictureSettingsStateVideoAutorecordChangedCb
                0x0004280c       0x22 /home/ncs/CAPSTONE/out/arsdk-native/build/libARCommands/obj/gen/Sources/ARCOMMANDS_Decoder.c.o
                0x0004280c                ARCOMMANDS_Decoder_SetARDrone3PictureSettingsStateVideoAutorecordChangedCb
 *fill*         0x0004282e        0x2 
 .text.ARCOMMANDS_Decoder_SetARDrone3PictureSettingsStateVideoAutorecordChangedCallback
                0x00042830       0x34 /home/ncs/CAPSTONE/out/arsdk-native/build/libARCommands/obj/gen/Sources/ARCOMMANDS_Decoder.c.o
                0x00042830                ARCOMMANDS_Decoder_SetARDrone3PictureSettingsStateVideoAutorecordChangedCallback
 .text.ARCOMMANDS_Decoder_SetARDrone3PictureSettingsStateVideoStabilizationModeChangedCb
                0x00042864       0x22 /home/ncs/CAPSTONE/out/arsdk-native/build/libARCommands/obj/gen/Sources/ARCOMMANDS_Decoder.c.o
                0x00042864                ARCOMMANDS_Decoder_SetARDrone3PictureSettingsStateVideoStabilizationModeChangedCb
 *fill*         0x00042886        0x2 
 .text.ARCOMMANDS_Decoder_SetARDrone3PictureSettingsStateVideoStabilizationModeChangedCallback
                0x00042888       0x34 /home/ncs/CAPSTONE/out/arsdk-native/build/libARCommands/obj/gen/Sources/ARCOMMANDS_Decoder.c.o
                0x00042888                ARCOMMANDS_Decoder_SetARDrone3PictureSettingsStateVideoStabilizationModeChangedCallback
 .text.ARCOMMANDS_Decoder_SetARDrone3PictureSettingsStateVideoRecordingModeChangedCb
                0x000428bc       0x22 /home/ncs/CAPSTONE/out/arsdk-native/build/libARCommands/obj/gen/Sources/ARCOMMANDS_Decoder.c.o
                0x000428bc                ARCOMMANDS_Decoder_SetARDrone3PictureSettingsStateVideoRecordingModeChangedCb
 *fill*         0x000428de        0x2 
 .text.ARCOMMANDS_Decoder_SetARDrone3PictureSettingsStateVideoRecordingModeChangedCallback
                0x000428e0       0x34 /home/ncs/CAPSTONE/out/arsdk-native/build/libARCommands/obj/gen/Sources/ARCOMMANDS_Decoder.c.o
                0x000428e0                ARCOMMANDS_Decoder_SetARDrone3PictureSettingsStateVideoRecordingModeChangedCallback
 .text.ARCOMMANDS_Decoder_SetARDrone3PictureSettingsStateVideoFramerateChangedCb
                0x00042914       0x22 /home/ncs/CAPSTONE/out/arsdk-native/build/libARCommands/obj/gen/Sources/ARCOMMANDS_Decoder.c.o
                0x00042914                ARCOMMANDS_Decoder_SetARDrone3PictureSettingsStateVideoFramerateChangedCb
 *fill*         0x00042936        0x2 
 .text.ARCOMMANDS_Decoder_SetARDrone3PictureSettingsStateVideoFramerateChangedCallback
                0x00042938       0x34 /home/ncs/CAPSTONE/out/arsdk-native/build/libARCommands/obj/gen/Sources/ARCOMMANDS_Decoder.c.o
                0x00042938                ARCOMMANDS_Decoder_SetARDrone3PictureSettingsStateVideoFramerateChangedCallback
 .text.ARCOMMANDS_Decoder_SetARDrone3PictureSettingsStateVideoResolutionsChangedCb
                0x0004296c       0x22 /home/ncs/CAPSTONE/out/arsdk-native/build/libARCommands/obj/gen/Sources/ARCOMMANDS_Decoder.c.o
                0x0004296c                ARCOMMANDS_Decoder_SetARDrone3PictureSettingsStateVideoResolutionsChangedCb
 *fill*         0x0004298e        0x2 
 .text.ARCOMMANDS_Decoder_SetARDrone3PictureSettingsStateVideoResolutionsChangedCallback
                0x00042990       0x34 /home/ncs/CAPSTONE/out/arsdk-native/build/libARCommands/obj/gen/Sources/ARCOMMANDS_Decoder.c.o
                0x00042990                ARCOMMANDS_Decoder_SetARDrone3PictureSettingsStateVideoResolutionsChangedCallback
 .text.ARCOMMANDS_Decoder_SetARDrone3MediaStreamingStateVideoEnableChangedCb
                0x000429c4       0x22 /home/ncs/CAPSTONE/out/arsdk-native/build/libARCommands/obj/gen/Sources/ARCOMMANDS_Decoder.c.o
                0x000429c4                ARCOMMANDS_Decoder_SetARDrone3MediaStreamingStateVideoEnableChangedCb
 *fill*         0x000429e6        0x2 
 .text.ARCOMMANDS_Decoder_SetARDrone3MediaStreamingStateVideoEnableChangedCallback
                0x000429e8       0x34 /home/ncs/CAPSTONE/out/arsdk-native/build/libARCommands/obj/gen/Sources/ARCOMMANDS_Decoder.c.o
                0x000429e8                ARCOMMANDS_Decoder_SetARDrone3MediaStreamingStateVideoEnableChangedCallback
 .text.ARCOMMANDS_Decoder_SetARDrone3MediaStreamingStateVideoStreamModeChangedCb
                0x00042a1c       0x22 /home/ncs/CAPSTONE/out/arsdk-native/build/libARCommands/obj/gen/Sources/ARCOMMANDS_Decoder.c.o
                0x00042a1c                ARCOMMANDS_Decoder_SetARDrone3MediaStreamingStateVideoStreamModeChangedCb
 *fill*         0x00042a3e        0x2 
 .text.ARCOMMANDS_Decoder_SetARDrone3MediaStreamingStateVideoStreamModeChangedCallback
                0x00042a40       0x34 /home/ncs/CAPSTONE/out/arsdk-native/build/libARCommands/obj/gen/Sources/ARCOMMANDS_Decoder.c.o
                0x00042a40                ARCOMMANDS_Decoder_SetARDrone3MediaStreamingStateVideoStreamModeChangedCallback
 .text.ARCOMMANDS_Decoder_SetARDrone3GPSSettingsStateHomeChangedCb
                0x00042a74       0x22 /home/ncs/CAPSTONE/out/arsdk-native/build/libARCommands/obj/gen/Sources/ARCOMMANDS_Decoder.c.o
                0x00042a74                ARCOMMANDS_Decoder_SetARDrone3GPSSettingsStateHomeChangedCb
 *fill*         0x00042a96        0x2 
 .text.ARCOMMANDS_Decoder_SetARDrone3GPSSettingsStateHomeChangedCallback
                0x00042a98       0x34 /home/ncs/CAPSTONE/out/arsdk-native/build/libARCommands/obj/gen/Sources/ARCOMMANDS_Decoder.c.o
                0x00042a98                ARCOMMANDS_Decoder_SetARDrone3GPSSettingsStateHomeChangedCallback
 .text.ARCOMMANDS_Decoder_SetARDrone3GPSSettingsStateResetHomeChangedCb
                0x00042acc       0x22 /home/ncs/CAPSTONE/out/arsdk-native/build/libARCommands/obj/gen/Sources/ARCOMMANDS_Decoder.c.o
                0x00042acc                ARCOMMANDS_Decoder_SetARDrone3GPSSettingsStateResetHomeChangedCb
 *fill*         0x00042aee        0x2 
 .text.ARCOMMANDS_Decoder_SetARDrone3GPSSettingsStateResetHomeChangedCallback
                0x00042af0       0x34 /home/ncs/CAPSTONE/out/arsdk-native/build/libARCommands/obj/gen/Sources/ARCOMMANDS_Decoder.c.o
                0x00042af0                ARCOMMANDS_Decoder_SetARDrone3GPSSettingsStateResetHomeChangedCallback
 .text.ARCOMMANDS_Decoder_SetARDrone3GPSSettingsStateGPSFixStateChangedCb
                0x00042b24       0x22 /home/ncs/CAPSTONE/out/arsdk-native/build/libARCommands/obj/gen/Sources/ARCOMMANDS_Decoder.c.o
                0x00042b24                ARCOMMANDS_Decoder_SetARDrone3GPSSettingsStateGPSFixStateChangedCb
 *fill*         0x00042b46        0x2 
 .text.ARCOMMANDS_Decoder_SetARDrone3GPSSettingsStateGPSFixStateChangedCallback
                0x00042b48       0x34 /home/ncs/CAPSTONE/out/arsdk-native/build/libARCommands/obj/gen/Sources/ARCOMMANDS_Decoder.c.o
                0x00042b48                ARCOMMANDS_Decoder_SetARDrone3GPSSettingsStateGPSFixStateChangedCallback
 .text.ARCOMMANDS_Decoder_SetARDrone3GPSSettingsStateGPSUpdateStateChangedCb
                0x00042b7c       0x22 /home/ncs/CAPSTONE/out/arsdk-native/build/libARCommands/obj/gen/Sources/ARCOMMANDS_Decoder.c.o
                0x00042b7c                ARCOMMANDS_Decoder_SetARDrone3GPSSettingsStateGPSUpdateStateChangedCb
 *fill*         0x00042b9e        0x2 
 .text.ARCOMMANDS_Decoder_SetARDrone3GPSSettingsStateGPSUpdateStateChangedCallback
                0x00042ba0       0x34 /home/ncs/CAPSTONE/out/arsdk-native/build/libARCommands/obj/gen/Sources/ARCOMMANDS_Decoder.c.o
                0x00042ba0                ARCOMMANDS_Decoder_SetARDrone3GPSSettingsStateGPSUpdateStateChangedCallback
 .text.ARCOMMANDS_Decoder_SetARDrone3GPSSettingsStateHomeTypeChangedCb
                0x00042bd4       0x22 /home/ncs/CAPSTONE/out/arsdk-native/build/libARCommands/obj/gen/Sources/ARCOMMANDS_Decoder.c.o
                0x00042bd4                ARCOMMANDS_Decoder_SetARDrone3GPSSettingsStateHomeTypeChangedCb
 *fill*         0x00042bf6        0x2 
 .text.ARCOMMANDS_Decoder_SetARDrone3GPSSettingsStateHomeTypeChangedCallback
                0x00042bf8       0x34 /home/ncs/CAPSTONE/out/arsdk-native/build/libARCommands/obj/gen/Sources/ARCOMMANDS_Decoder.c.o
                0x00042bf8                ARCOMMANDS_Decoder_SetARDrone3GPSSettingsStateHomeTypeChangedCallback
 .text.ARCOMMANDS_Decoder_SetARDrone3GPSSettingsStateReturnHomeDelayChangedCb
                0x00042c2c       0x22 /home/ncs/CAPSTONE/out/arsdk-native/build/libARCommands/obj/gen/Sources/ARCOMMANDS_Decoder.c.o
                0x00042c2c                ARCOMMANDS_Decoder_SetARDrone3GPSSettingsStateReturnHomeDelayChangedCb
 *fill*         0x00042c4e        0x2 
 .text.ARCOMMANDS_Decoder_SetARDrone3GPSSettingsStateReturnHomeDelayChangedCallback
                0x00042c50       0x34 /home/ncs/CAPSTONE/out/arsdk-native/build/libARCommands/obj/gen/Sources/ARCOMMANDS_Decoder.c.o
                0x00042c50                ARCOMMANDS_Decoder_SetARDrone3GPSSettingsStateReturnHomeDelayChangedCallback
 .text.ARCOMMANDS_Decoder_SetARDrone3CameraStateOrientationCb
                0x00042c84       0x22 /home/ncs/CAPSTONE/out/arsdk-native/build/libARCommands/obj/gen/Sources/ARCOMMANDS_Decoder.c.o
                0x00042c84                ARCOMMANDS_Decoder_SetARDrone3CameraStateOrientationCb
 *fill*         0x00042ca6        0x2 
 .text.ARCOMMANDS_Decoder_SetARDrone3CameraStateOrientationCallback
                0x00042ca8       0x34 /home/ncs/CAPSTONE/out/arsdk-native/build/libARCommands/obj/gen/Sources/ARCOMMANDS_Decoder.c.o
                0x00042ca8                ARCOMMANDS_Decoder_SetARDrone3CameraStateOrientationCallback
 .text.ARCOMMANDS_Decoder_SetARDrone3CameraStateDefaultCameraOrientationCb
                0x00042cdc       0x22 /home/ncs/CAPSTONE/out/arsdk-native/build/libARCommands/obj/gen/Sources/ARCOMMANDS_Decoder.c.o
                0x00042cdc                ARCOMMANDS_Decoder_SetARDrone3CameraStateDefaultCameraOrientationCb
 *fill*         0x00042cfe        0x2 
 .text.ARCOMMANDS_Decoder_SetARDrone3CameraStateDefaultCameraOrientationCallback
                0x00042d00       0x34 /home/ncs/CAPSTONE/out/arsdk-native/build/libARCommands/obj/gen/Sources/ARCOMMANDS_Decoder.c.o
                0x00042d00                ARCOMMANDS_Decoder_SetARDrone3CameraStateDefaultCameraOrientationCallback
 .text.ARCOMMANDS_Decoder_SetARDrone3AntiflickeringStateElectricFrequencyChangedCb
                0x00042d34       0x22 /home/ncs/CAPSTONE/out/arsdk-native/build/libARCommands/obj/gen/Sources/ARCOMMANDS_Decoder.c.o
                0x00042d34                ARCOMMANDS_Decoder_SetARDrone3AntiflickeringStateElectricFrequencyChangedCb
 *fill*         0x00042d56        0x2 
 .text.ARCOMMANDS_Decoder_SetARDrone3AntiflickeringStateElectricFrequencyChangedCallback
                0x00042d58       0x34 /home/ncs/CAPSTONE/out/arsdk-native/build/libARCommands/obj/gen/Sources/ARCOMMANDS_Decoder.c.o
                0x00042d58                ARCOMMANDS_Decoder_SetARDrone3AntiflickeringStateElectricFrequencyChangedCallback
 .text.ARCOMMANDS_Decoder_SetARDrone3AntiflickeringStateModeChangedCb
                0x00042d8c       0x22 /home/ncs/CAPSTONE/out/arsdk-native/build/libARCommands/obj/gen/Sources/ARCOMMANDS_Decoder.c.o
                0x00042d8c                ARCOMMANDS_Decoder_SetARDrone3AntiflickeringStateModeChangedCb
 *fill*         0x00042dae        0x2 
 .text.ARCOMMANDS_Decoder_SetARDrone3AntiflickeringStateModeChangedCallback
                0x00042db0       0x34 /home/ncs/CAPSTONE/out/arsdk-native/build/libARCommands/obj/gen/Sources/ARCOMMANDS_Decoder.c.o
                0x00042db0                ARCOMMANDS_Decoder_SetARDrone3AntiflickeringStateModeChangedCallback
 .text.ARCOMMANDS_Decoder_SetARDrone3GPSStateNumberOfSatelliteChangedCb
                0x00042de4       0x22 /home/ncs/CAPSTONE/out/arsdk-native/build/libARCommands/obj/gen/Sources/ARCOMMANDS_Decoder.c.o
                0x00042de4                ARCOMMANDS_Decoder_SetARDrone3GPSStateNumberOfSatelliteChangedCb
 *fill*         0x00042e06        0x2 
 .text.ARCOMMANDS_Decoder_SetARDrone3GPSStateNumberOfSatelliteChangedCallback
                0x00042e08       0x34 /home/ncs/CAPSTONE/out/arsdk-native/build/libARCommands/obj/gen/Sources/ARCOMMANDS_Decoder.c.o
                0x00042e08                ARCOMMANDS_Decoder_SetARDrone3GPSStateNumberOfSatelliteChangedCallback
 .text.ARCOMMANDS_Decoder_SetARDrone3GPSStateHomeTypeAvailabilityChangedCb
                0x00042e3c       0x22 /home/ncs/CAPSTONE/out/arsdk-native/build/libARCommands/obj/gen/Sources/ARCOMMANDS_Decoder.c.o
                0x00042e3c                ARCOMMANDS_Decoder_SetARDrone3GPSStateHomeTypeAvailabilityChangedCb
 *fill*         0x00042e5e        0x2 
 .text.ARCOMMANDS_Decoder_SetARDrone3GPSStateHomeTypeAvailabilityChangedCallback
                0x00042e60       0x34 /home/ncs/CAPSTONE/out/arsdk-native/build/libARCommands/obj/gen/Sources/ARCOMMANDS_Decoder.c.o
                0x00042e60                ARCOMMANDS_Decoder_SetARDrone3GPSStateHomeTypeAvailabilityChangedCallback
 .text.ARCOMMANDS_Decoder_SetARDrone3GPSStateHomeTypeChosenChangedCb
                0x00042e94       0x22 /home/ncs/CAPSTONE/out/arsdk-native/build/libARCommands/obj/gen/Sources/ARCOMMANDS_Decoder.c.o
                0x00042e94                ARCOMMANDS_Decoder_SetARDrone3GPSStateHomeTypeChosenChangedCb
 *fill*         0x00042eb6        0x2 
 .text.ARCOMMANDS_Decoder_SetARDrone3GPSStateHomeTypeChosenChangedCallback
                0x00042eb8       0x34 /home/ncs/CAPSTONE/out/arsdk-native/build/libARCommands/obj/gen/Sources/ARCOMMANDS_Decoder.c.o
                0x00042eb8                ARCOMMANDS_Decoder_SetARDrone3GPSStateHomeTypeChosenChangedCallback
 .text.ARCOMMANDS_Decoder_SetARDrone3PROStateFeaturesCb
                0x00042eec       0x22 /home/ncs/CAPSTONE/out/arsdk-native/build/libARCommands/obj/gen/Sources/ARCOMMANDS_Decoder.c.o
                0x00042eec                ARCOMMANDS_Decoder_SetARDrone3PROStateFeaturesCb
 *fill*         0x00042f0e        0x2 
 .text.ARCOMMANDS_Decoder_SetARDrone3PROStateFeaturesCallback
                0x00042f10       0x34 /home/ncs/CAPSTONE/out/arsdk-native/build/libARCommands/obj/gen/Sources/ARCOMMANDS_Decoder.c.o
                0x00042f10                ARCOMMANDS_Decoder_SetARDrone3PROStateFeaturesCallback
 .text.ARCOMMANDS_Decoder_SetCommonNetworkDisconnectCb
                0x00042f44       0x22 /home/ncs/CAPSTONE/out/arsdk-native/build/libARCommands/obj/gen/Sources/ARCOMMANDS_Decoder.c.o
                0x00042f44                ARCOMMANDS_Decoder_SetCommonNetworkDisconnectCb
 *fill*         0x00042f66        0x2 
 .text.ARCOMMANDS_Decoder_SetCommonNetworkDisconnectCallback
                0x00042f68       0x34 /home/ncs/CAPSTONE/out/arsdk-native/build/libARCommands/obj/gen/Sources/ARCOMMANDS_Decoder.c.o
                0x00042f68                ARCOMMANDS_Decoder_SetCommonNetworkDisconnectCallback
 .text.ARCOMMANDS_Decoder_SetCommonSettingsAllSettingsCb
                0x00042f9c       0x22 /home/ncs/CAPSTONE/out/arsdk-native/build/libARCommands/obj/gen/Sources/ARCOMMANDS_Decoder.c.o
                0x00042f9c                ARCOMMANDS_Decoder_SetCommonSettingsAllSettingsCb
 *fill*         0x00042fbe        0x2 
 .text.ARCOMMANDS_Decoder_SetCommonSettingsAllSettingsCallback
                0x00042fc0       0x34 /home/ncs/CAPSTONE/out/arsdk-native/build/libARCommands/obj/gen/Sources/ARCOMMANDS_Decoder.c.o
                0x00042fc0                ARCOMMANDS_Decoder_SetCommonSettingsAllSettingsCallback
 .text.ARCOMMANDS_Decoder_SetCommonSettingsResetCb
                0x00042ff4       0x22 /home/ncs/CAPSTONE/out/arsdk-native/build/libARCommands/obj/gen/Sources/ARCOMMANDS_Decoder.c.o
                0x00042ff4                ARCOMMANDS_Decoder_SetCommonSettingsResetCb
 *fill*         0x00043016        0x2 
 .text.ARCOMMANDS_Decoder_SetCommonSettingsResetCallback
                0x00043018       0x34 /home/ncs/CAPSTONE/out/arsdk-native/build/libARCommands/obj/gen/Sources/ARCOMMANDS_Decoder.c.o
                0x00043018                ARCOMMANDS_Decoder_SetCommonSettingsResetCallback
 .text.ARCOMMANDS_Decoder_SetCommonSettingsProductNameCb
                0x0004304c       0x22 /home/ncs/CAPSTONE/out/arsdk-native/build/libARCommands/obj/gen/Sources/ARCOMMANDS_Decoder.c.o
                0x0004304c                ARCOMMANDS_Decoder_SetCommonSettingsProductNameCb
 *fill*         0x0004306e        0x2 
 .text.ARCOMMANDS_Decoder_SetCommonSettingsProductNameCallback
                0x00043070       0x34 /home/ncs/CAPSTONE/out/arsdk-native/build/libARCommands/obj/gen/Sources/ARCOMMANDS_Decoder.c.o
                0x00043070                ARCOMMANDS_Decoder_SetCommonSettingsProductNameCallback
 .text.ARCOMMANDS_Decoder_SetCommonSettingsCountryCb
                0x000430a4       0x22 /home/ncs/CAPSTONE/out/arsdk-native/build/libARCommands/obj/gen/Sources/ARCOMMANDS_Decoder.c.o
                0x000430a4                ARCOMMANDS_Decoder_SetCommonSettingsCountryCb
 *fill*         0x000430c6        0x2 
 .text.ARCOMMANDS_Decoder_SetCommonSettingsCountryCallback
                0x000430c8       0x34 /home/ncs/CAPSTONE/out/arsdk-native/build/libARCommands/obj/gen/Sources/ARCOMMANDS_Decoder.c.o
                0x000430c8                ARCOMMANDS_Decoder_SetCommonSettingsCountryCallback
 .text.ARCOMMANDS_Decoder_SetCommonSettingsAutoCountryCb
                0x000430fc       0x22 /home/ncs/CAPSTONE/out/arsdk-native/build/libARCommands/obj/gen/Sources/ARCOMMANDS_Decoder.c.o
                0x000430fc                ARCOMMANDS_Decoder_SetCommonSettingsAutoCountryCb
 *fill*         0x0004311e        0x2 
 .text.ARCOMMANDS_Decoder_SetCommonSettingsAutoCountryCallback
                0x00043120       0x34 /home/ncs/CAPSTONE/out/arsdk-native/build/libARCommands/obj/gen/Sources/ARCOMMANDS_Decoder.c.o
                0x00043120                ARCOMMANDS_Decoder_SetCommonSettingsAutoCountryCallback
 .text.ARCOMMANDS_Decoder_SetCommonCommonAllStatesCb
                0x00043154       0x22 /home/ncs/CAPSTONE/out/arsdk-native/build/libARCommands/obj/gen/Sources/ARCOMMANDS_Decoder.c.o
                0x00043154                ARCOMMANDS_Decoder_SetCommonCommonAllStatesCb
 *fill*         0x00043176        0x2 
 .text.ARCOMMANDS_Decoder_SetCommonCommonAllStatesCallback
                0x00043178       0x34 /home/ncs/CAPSTONE/out/arsdk-native/build/libARCommands/obj/gen/Sources/ARCOMMANDS_Decoder.c.o
                0x00043178                ARCOMMANDS_Decoder_SetCommonCommonAllStatesCallback
 .text.ARCOMMANDS_Decoder_SetCommonCommonCurrentDateCb
                0x000431ac       0x22 /home/ncs/CAPSTONE/out/arsdk-native/build/libARCommands/obj/gen/Sources/ARCOMMANDS_Decoder.c.o
                0x000431ac                ARCOMMANDS_Decoder_SetCommonCommonCurrentDateCb
 *fill*         0x000431ce        0x2 
 .text.ARCOMMANDS_Decoder_SetCommonCommonCurrentDateCallback
                0x000431d0       0x34 /home/ncs/CAPSTONE/out/arsdk-native/build/libARCommands/obj/gen/Sources/ARCOMMANDS_Decoder.c.o
                0x000431d0                ARCOMMANDS_Decoder_SetCommonCommonCurrentDateCallback
 .text.ARCOMMANDS_Decoder_SetCommonCommonCurrentTimeCb
                0x00043204       0x22 /home/ncs/CAPSTONE/out/arsdk-native/build/libARCommands/obj/gen/Sources/ARCOMMANDS_Decoder.c.o
                0x00043204                ARCOMMANDS_Decoder_SetCommonCommonCurrentTimeCb
 *fill*         0x00043226        0x2 
 .text.ARCOMMANDS_Decoder_SetCommonCommonCurrentTimeCallback
                0x00043228       0x34 /home/ncs/CAPSTONE/out/arsdk-native/build/libARCommands/obj/gen/Sources/ARCOMMANDS_Decoder.c.o
                0x00043228                ARCOMMANDS_Decoder_SetCommonCommonCurrentTimeCallback
 .text.ARCOMMANDS_Decoder_SetCommonCommonRebootCb
                0x0004325c       0x22 /home/ncs/CAPSTONE/out/arsdk-native/build/libARCommands/obj/gen/Sources/ARCOMMANDS_Decoder.c.o
                0x0004325c                ARCOMMANDS_Decoder_SetCommonCommonRebootCb
 *fill*         0x0004327e        0x2 
 .text.ARCOMMANDS_Decoder_SetCommonCommonRebootCallback
                0x00043280       0x34 /home/ncs/CAPSTONE/out/arsdk-native/build/libARCommands/obj/gen/Sources/ARCOMMANDS_Decoder.c.o
                0x00043280                ARCOMMANDS_Decoder_SetCommonCommonRebootCallback
 .text.ARCOMMANDS_Decoder_SetCommonOverHeatSwitchOffCb
                0x000432b4       0x22 /home/ncs/CAPSTONE/out/arsdk-native/build/libARCommands/obj/gen/Sources/ARCOMMANDS_Decoder.c.o
                0x000432b4                ARCOMMANDS_Decoder_SetCommonOverHeatSwitchOffCb
 *fill*         0x000432d6        0x2 
 .text.ARCOMMANDS_Decoder_SetCommonOverHeatSwitchOffCallback
                0x000432d8       0x34 /home/ncs/CAPSTONE/out/arsdk-native/build/libARCommands/obj/gen/Sources/ARCOMMANDS_Decoder.c.o
                0x000432d8                ARCOMMANDS_Decoder_SetCommonOverHeatSwitchOffCallback
 .text.ARCOMMANDS_Decoder_SetCommonOverHeatVentilateCb
                0x0004330c       0x22 /home/ncs/CAPSTONE/out/arsdk-native/build/libARCommands/obj/gen/Sources/ARCOMMANDS_Decoder.c.o
                0x0004330c                ARCOMMANDS_Decoder_SetCommonOverHeatVentilateCb
 *fill*         0x0004332e        0x2 
 .text.ARCOMMANDS_Decoder_SetCommonOverHeatVentilateCallback
                0x00043330       0x34 /home/ncs/CAPSTONE/out/arsdk-native/build/libARCommands/obj/gen/Sources/ARCOMMANDS_Decoder.c.o
                0x00043330                ARCOMMANDS_Decoder_SetCommonOverHeatVentilateCallback
 .text.ARCOMMANDS_Decoder_SetCommonControllerIsPilotingCb
                0x00043364       0x22 /home/ncs/CAPSTONE/out/arsdk-native/build/libARCommands/obj/gen/Sources/ARCOMMANDS_Decoder.c.o
                0x00043364                ARCOMMANDS_Decoder_SetCommonControllerIsPilotingCb
 *fill*         0x00043386        0x2 
 .text.ARCOMMANDS_Decoder_SetCommonControllerIsPilotingCallback
                0x00043388       0x34 /home/ncs/CAPSTONE/out/arsdk-native/build/libARCommands/obj/gen/Sources/ARCOMMANDS_Decoder.c.o
                0x00043388                ARCOMMANDS_Decoder_SetCommonControllerIsPilotingCallback
 .text.ARCOMMANDS_Decoder_SetCommonWifiSettingsOutdoorSettingCb
                0x000433bc       0x22 /home/ncs/CAPSTONE/out/arsdk-native/build/libARCommands/obj/gen/Sources/ARCOMMANDS_Decoder.c.o
                0x000433bc                ARCOMMANDS_Decoder_SetCommonWifiSettingsOutdoorSettingCb
 *fill*         0x000433de        0x2 
 .text.ARCOMMANDS_Decoder_SetCommonWifiSettingsOutdoorSettingCallback
                0x000433e0       0x34 /home/ncs/CAPSTONE/out/arsdk-native/build/libARCommands/obj/gen/Sources/ARCOMMANDS_Decoder.c.o
                0x000433e0                ARCOMMANDS_Decoder_SetCommonWifiSettingsOutdoorSettingCallback
 .text.ARCOMMANDS_Decoder_SetCommonMavlinkStartCb
                0x00043414       0x22 /home/ncs/CAPSTONE/out/arsdk-native/build/libARCommands/obj/gen/Sources/ARCOMMANDS_Decoder.c.o
                0x00043414                ARCOMMANDS_Decoder_SetCommonMavlinkStartCb
 *fill*         0x00043436        0x2 
 .text.ARCOMMANDS_Decoder_SetCommonMavlinkStartCallback
                0x00043438       0x34 /home/ncs/CAPSTONE/out/arsdk-native/build/libARCommands/obj/gen/Sources/ARCOMMANDS_Decoder.c.o
                0x00043438                ARCOMMANDS_Decoder_SetCommonMavlinkStartCallback
 .text.ARCOMMANDS_Decoder_SetCommonMavlinkPauseCb
                0x0004346c       0x22 /home/ncs/CAPSTONE/out/arsdk-native/build/libARCommands/obj/gen/Sources/ARCOMMANDS_Decoder.c.o
                0x0004346c                ARCOMMANDS_Decoder_SetCommonMavlinkPauseCb
 *fill*         0x0004348e        0x2 
 .text.ARCOMMANDS_Decoder_SetCommonMavlinkPauseCallback
                0x00043490       0x34 /home/ncs/CAPSTONE/out/arsdk-native/build/libARCommands/obj/gen/Sources/ARCOMMANDS_Decoder.c.o
                0x00043490                ARCOMMANDS_Decoder_SetCommonMavlinkPauseCallback
 .text.ARCOMMANDS_Decoder_SetCommonMavlinkStopCb
                0x000434c4       0x22 /home/ncs/CAPSTONE/out/arsdk-native/build/libARCommands/obj/gen/Sources/ARCOMMANDS_Decoder.c.o
                0x000434c4                ARCOMMANDS_Decoder_SetCommonMavlinkStopCb
 *fill*         0x000434e6        0x2 
 .text.ARCOMMANDS_Decoder_SetCommonMavlinkStopCallback
                0x000434e8       0x34 /home/ncs/CAPSTONE/out/arsdk-native/build/libARCommands/obj/gen/Sources/ARCOMMANDS_Decoder.c.o
                0x000434e8                ARCOMMANDS_Decoder_SetCommonMavlinkStopCallback
 .text.ARCOMMANDS_Decoder_SetCommonCalibrationMagnetoCalibrationCb
                0x0004351c       0x22 /home/ncs/CAPSTONE/out/arsdk-native/build/libARCommands/obj/gen/Sources/ARCOMMANDS_Decoder.c.o
                0x0004351c                ARCOMMANDS_Decoder_SetCommonCalibrationMagnetoCalibrationCb
 *fill*         0x0004353e        0x2 
 .text.ARCOMMANDS_Decoder_SetCommonCalibrationMagnetoCalibrationCallback
                0x00043540       0x34 /home/ncs/CAPSTONE/out/arsdk-native/build/libARCommands/obj/gen/Sources/ARCOMMANDS_Decoder.c.o
                0x00043540                ARCOMMANDS_Decoder_SetCommonCalibrationMagnetoCalibrationCallback
 .text.ARCOMMANDS_Decoder_SetCommonCalibrationPitotCalibrationCb
                0x00043574       0x22 /home/ncs/CAPSTONE/out/arsdk-native/build/libARCommands/obj/gen/Sources/ARCOMMANDS_Decoder.c.o
                0x00043574                ARCOMMANDS_Decoder_SetCommonCalibrationPitotCalibrationCb
 *fill*         0x00043596        0x2 
 .text.ARCOMMANDS_Decoder_SetCommonCalibrationPitotCalibrationCallback
                0x00043598       0x34 /home/ncs/CAPSTONE/out/arsdk-native/build/libARCommands/obj/gen/Sources/ARCOMMANDS_Decoder.c.o
                0x00043598                ARCOMMANDS_Decoder_SetCommonCalibrationPitotCalibrationCallback
 .text.ARCOMMANDS_Decoder_SetCommonGPSControllerPositionForRunCb
                0x000435cc       0x22 /home/ncs/CAPSTONE/out/arsdk-native/build/libARCommands/obj/gen/Sources/ARCOMMANDS_Decoder.c.o
                0x000435cc                ARCOMMANDS_Decoder_SetCommonGPSControllerPositionForRunCb
 *fill*         0x000435ee        0x2 
 .text.ARCOMMANDS_Decoder_SetCommonGPSControllerPositionForRunCallback
                0x000435f0       0x34 /home/ncs/CAPSTONE/out/arsdk-native/build/libARCommands/obj/gen/Sources/ARCOMMANDS_Decoder.c.o
                0x000435f0                ARCOMMANDS_Decoder_SetCommonGPSControllerPositionForRunCallback
 .text.ARCOMMANDS_Decoder_SetCommonAudioControllerReadyForStreamingCb
                0x00043624       0x22 /home/ncs/CAPSTONE/out/arsdk-native/build/libARCommands/obj/gen/Sources/ARCOMMANDS_Decoder.c.o
                0x00043624                ARCOMMANDS_Decoder_SetCommonAudioControllerReadyForStreamingCb
 *fill*         0x00043646        0x2 
 .text.ARCOMMANDS_Decoder_SetCommonAudioControllerReadyForStreamingCallback
                0x00043648       0x34 /home/ncs/CAPSTONE/out/arsdk-native/build/libARCommands/obj/gen/Sources/ARCOMMANDS_Decoder.c.o
                0x00043648                ARCOMMANDS_Decoder_SetCommonAudioControllerReadyForStreamingCallback
 .text.ARCOMMANDS_Decoder_SetCommonHeadlightsIntensityCb
                0x0004367c       0x22 /home/ncs/CAPSTONE/out/arsdk-native/build/libARCommands/obj/gen/Sources/ARCOMMANDS_Decoder.c.o
                0x0004367c                ARCOMMANDS_Decoder_SetCommonHeadlightsIntensityCb
 *fill*         0x0004369e        0x2 
 .text.ARCOMMANDS_Decoder_SetCommonHeadlightsIntensityCallback
                0x000436a0       0x34 /home/ncs/CAPSTONE/out/arsdk-native/build/libARCommands/obj/gen/Sources/ARCOMMANDS_Decoder.c.o
                0x000436a0                ARCOMMANDS_Decoder_SetCommonHeadlightsIntensityCallback
 .text.ARCOMMANDS_Decoder_SetCommonAnimationsStartAnimationCb
                0x000436d4       0x22 /home/ncs/CAPSTONE/out/arsdk-native/build/libARCommands/obj/gen/Sources/ARCOMMANDS_Decoder.c.o
                0x000436d4                ARCOMMANDS_Decoder_SetCommonAnimationsStartAnimationCb
 *fill*         0x000436f6        0x2 
 .text.ARCOMMANDS_Decoder_SetCommonAnimationsStartAnimationCallback
                0x000436f8       0x34 /home/ncs/CAPSTONE/out/arsdk-native/build/libARCommands/obj/gen/Sources/ARCOMMANDS_Decoder.c.o
                0x000436f8                ARCOMMANDS_Decoder_SetCommonAnimationsStartAnimationCallback
 .text.ARCOMMANDS_Decoder_SetCommonAnimationsStopAnimationCb
                0x0004372c       0x22 /home/ncs/CAPSTONE/out/arsdk-native/build/libARCommands/obj/gen/Sources/ARCOMMANDS_Decoder.c.o
                0x0004372c                ARCOMMANDS_Decoder_SetCommonAnimationsStopAnimationCb
 *fill*         0x0004374e        0x2 
 .text.ARCOMMANDS_Decoder_SetCommonAnimationsStopAnimationCallback
                0x00043750       0x34 /home/ncs/CAPSTONE/out/arsdk-native/build/libARCommands/obj/gen/Sources/ARCOMMANDS_Decoder.c.o
                0x00043750                ARCOMMANDS_Decoder_SetCommonAnimationsStopAnimationCallback
 .text.ARCOMMANDS_Decoder_SetCommonAnimationsStopAllAnimationsCb
                0x00043784       0x22 /home/ncs/CAPSTONE/out/arsdk-native/build/libARCommands/obj/gen/Sources/ARCOMMANDS_Decoder.c.o
                0x00043784                ARCOMMANDS_Decoder_SetCommonAnimationsStopAllAnimationsCb
 *fill*         0x000437a6        0x2 
 .text.ARCOMMANDS_Decoder_SetCommonAnimationsStopAllAnimationsCallback
                0x000437a8       0x34 /home/ncs/CAPSTONE/out/arsdk-native/build/libARCommands/obj/gen/Sources/ARCOMMANDS_Decoder.c.o
                0x000437a8                ARCOMMANDS_Decoder_SetCommonAnimationsStopAllAnimationsCallback
 .text.ARCOMMANDS_Decoder_SetCommonAccessoryConfigCb
                0x000437dc       0x22 /home/ncs/CAPSTONE/out/arsdk-native/build/libARCommands/obj/gen/Sources/ARCOMMANDS_Decoder.c.o
                0x000437dc                ARCOMMANDS_Decoder_SetCommonAccessoryConfigCb
 *fill*         0x000437fe        0x2 
 .text.ARCOMMANDS_Decoder_SetCommonAccessoryConfigCallback
                0x00043800       0x34 /home/ncs/CAPSTONE/out/arsdk-native/build/libARCommands/obj/gen/Sources/ARCOMMANDS_Decoder.c.o
                0x00043800                ARCOMMANDS_Decoder_SetCommonAccessoryConfigCallback
 .text.ARCOMMANDS_Decoder_SetCommonChargerSetMaxChargeRateCb
                0x00043834       0x22 /home/ncs/CAPSTONE/out/arsdk-native/build/libARCommands/obj/gen/Sources/ARCOMMANDS_Decoder.c.o
                0x00043834                ARCOMMANDS_Decoder_SetCommonChargerSetMaxChargeRateCb
 *fill*         0x00043856        0x2 
 .text.ARCOMMANDS_Decoder_SetCommonChargerSetMaxChargeRateCallback
                0x00043858       0x34 /home/ncs/CAPSTONE/out/arsdk-native/build/libARCommands/obj/gen/Sources/ARCOMMANDS_Decoder.c.o
                0x00043858                ARCOMMANDS_Decoder_SetCommonChargerSetMaxChargeRateCallback
 .text.ARCOMMANDS_Decoder_SetCommonNetworkEventDisconnectionCb
                0x0004388c       0x22 /home/ncs/CAPSTONE/out/arsdk-native/build/libARCommands/obj/gen/Sources/ARCOMMANDS_Decoder.c.o
                0x0004388c                ARCOMMANDS_Decoder_SetCommonNetworkEventDisconnectionCb
 *fill*         0x000438ae        0x2 
 .text.ARCOMMANDS_Decoder_SetCommonNetworkEventDisconnectionCallback
                0x000438b0       0x34 /home/ncs/CAPSTONE/out/arsdk-native/build/libARCommands/obj/gen/Sources/ARCOMMANDS_Decoder.c.o
                0x000438b0                ARCOMMANDS_Decoder_SetCommonNetworkEventDisconnectionCallback
 .text.ARCOMMANDS_Decoder_SetCommonSettingsStateAllSettingsChangedCb
                0x000438e4       0x22 /home/ncs/CAPSTONE/out/arsdk-native/build/libARCommands/obj/gen/Sources/ARCOMMANDS_Decoder.c.o
                0x000438e4                ARCOMMANDS_Decoder_SetCommonSettingsStateAllSettingsChangedCb
 *fill*         0x00043906        0x2 
 .text.ARCOMMANDS_Decoder_SetCommonSettingsStateAllSettingsChangedCallback
                0x00043908       0x34 /home/ncs/CAPSTONE/out/arsdk-native/build/libARCommands/obj/gen/Sources/ARCOMMANDS_Decoder.c.o
                0x00043908                ARCOMMANDS_Decoder_SetCommonSettingsStateAllSettingsChangedCallback
 .text.ARCOMMANDS_Decoder_SetCommonSettingsStateResetChangedCb
                0x0004393c       0x22 /home/ncs/CAPSTONE/out/arsdk-native/build/libARCommands/obj/gen/Sources/ARCOMMANDS_Decoder.c.o
                0x0004393c                ARCOMMANDS_Decoder_SetCommonSettingsStateResetChangedCb
 *fill*         0x0004395e        0x2 
 .text.ARCOMMANDS_Decoder_SetCommonSettingsStateResetChangedCallback
                0x00043960       0x34 /home/ncs/CAPSTONE/out/arsdk-native/build/libARCommands/obj/gen/Sources/ARCOMMANDS_Decoder.c.o
                0x00043960                ARCOMMANDS_Decoder_SetCommonSettingsStateResetChangedCallback
 .text.ARCOMMANDS_Decoder_SetCommonSettingsStateProductNameChangedCb
                0x00043994       0x22 /home/ncs/CAPSTONE/out/arsdk-native/build/libARCommands/obj/gen/Sources/ARCOMMANDS_Decoder.c.o
                0x00043994                ARCOMMANDS_Decoder_SetCommonSettingsStateProductNameChangedCb
 *fill*         0x000439b6        0x2 
 .text.ARCOMMANDS_Decoder_SetCommonSettingsStateProductNameChangedCallback
                0x000439b8       0x34 /home/ncs/CAPSTONE/out/arsdk-native/build/libARCommands/obj/gen/Sources/ARCOMMANDS_Decoder.c.o
                0x000439b8                ARCOMMANDS_Decoder_SetCommonSettingsStateProductNameChangedCallback
 .text.ARCOMMANDS_Decoder_SetCommonSettingsStateProductVersionChangedCb
                0x000439ec       0x22 /home/ncs/CAPSTONE/out/arsdk-native/build/libARCommands/obj/gen/Sources/ARCOMMANDS_Decoder.c.o
                0x000439ec                ARCOMMANDS_Decoder_SetCommonSettingsStateProductVersionChangedCb
 *fill*         0x00043a0e        0x2 
 .text.ARCOMMANDS_Decoder_SetCommonSettingsStateProductVersionChangedCallback
                0x00043a10       0x34 /home/ncs/CAPSTONE/out/arsdk-native/build/libARCommands/obj/gen/Sources/ARCOMMANDS_Decoder.c.o
                0x00043a10                ARCOMMANDS_Decoder_SetCommonSettingsStateProductVersionChangedCallback
 .text.ARCOMMANDS_Decoder_SetCommonSettingsStateProductSerialHighChangedCb
                0x00043a44       0x22 /home/ncs/CAPSTONE/out/arsdk-native/build/libARCommands/obj/gen/Sources/ARCOMMANDS_Decoder.c.o
                0x00043a44                ARCOMMANDS_Decoder_SetCommonSettingsStateProductSerialHighChangedCb
 *fill*         0x00043a66        0x2 
 .text.ARCOMMANDS_Decoder_SetCommonSettingsStateProductSerialHighChangedCallback
                0x00043a68       0x34 /home/ncs/CAPSTONE/out/arsdk-native/build/libARCommands/obj/gen/Sources/ARCOMMANDS_Decoder.c.o
                0x00043a68                ARCOMMANDS_Decoder_SetCommonSettingsStateProductSerialHighChangedCallback
 .text.ARCOMMANDS_Decoder_SetCommonSettingsStateProductSerialLowChangedCb
                0x00043a9c       0x22 /home/ncs/CAPSTONE/out/arsdk-native/build/libARCommands/obj/gen/Sources/ARCOMMANDS_Decoder.c.o
                0x00043a9c                ARCOMMANDS_Decoder_SetCommonSettingsStateProductSerialLowChangedCb
 *fill*         0x00043abe        0x2 
 .text.ARCOMMANDS_Decoder_SetCommonSettingsStateProductSerialLowChangedCallback
                0x00043ac0       0x34 /home/ncs/CAPSTONE/out/arsdk-native/build/libARCommands/obj/gen/Sources/ARCOMMANDS_Decoder.c.o
                0x00043ac0                ARCOMMANDS_Decoder_SetCommonSettingsStateProductSerialLowChangedCallback
 .text.ARCOMMANDS_Decoder_SetCommonSettingsStateCountryChangedCb
                0x00043af4       0x22 /home/ncs/CAPSTONE/out/arsdk-native/build/libARCommands/obj/gen/Sources/ARCOMMANDS_Decoder.c.o
                0x00043af4                ARCOMMANDS_Decoder_SetCommonSettingsStateCountryChangedCb
 *fill*         0x00043b16        0x2 
 .text.ARCOMMANDS_Decoder_SetCommonSettingsStateCountryChangedCallback
                0x00043b18       0x34 /home/ncs/CAPSTONE/out/arsdk-native/build/libARCommands/obj/gen/Sources/ARCOMMANDS_Decoder.c.o
                0x00043b18                ARCOMMANDS_Decoder_SetCommonSettingsStateCountryChangedCallback
 .text.ARCOMMANDS_Decoder_SetCommonSettingsStateAutoCountryChangedCb
                0x00043b4c       0x22 /home/ncs/CAPSTONE/out/arsdk-native/build/libARCommands/obj/gen/Sources/ARCOMMANDS_Decoder.c.o
                0x00043b4c                ARCOMMANDS_Decoder_SetCommonSettingsStateAutoCountryChangedCb
 *fill*         0x00043b6e        0x2 
 .text.ARCOMMANDS_Decoder_SetCommonSettingsStateAutoCountryChangedCallback
                0x00043b70       0x34 /home/ncs/CAPSTONE/out/arsdk-native/build/libARCommands/obj/gen/Sources/ARCOMMANDS_Decoder.c.o
                0x00043b70                ARCOMMANDS_Decoder_SetCommonSettingsStateAutoCountryChangedCallback
 .text.ARCOMMANDS_Decoder_SetCommonCommonStateAllStatesChangedCb
                0x00043ba4       0x22 /home/ncs/CAPSTONE/out/arsdk-native/build/libARCommands/obj/gen/Sources/ARCOMMANDS_Decoder.c.o
                0x00043ba4                ARCOMMANDS_Decoder_SetCommonCommonStateAllStatesChangedCb
 *fill*         0x00043bc6        0x2 
 .text.ARCOMMANDS_Decoder_SetCommonCommonStateAllStatesChangedCallback
                0x00043bc8       0x34 /home/ncs/CAPSTONE/out/arsdk-native/build/libARCommands/obj/gen/Sources/ARCOMMANDS_Decoder.c.o
                0x00043bc8                ARCOMMANDS_Decoder_SetCommonCommonStateAllStatesChangedCallback
 .text.ARCOMMANDS_Decoder_SetCommonCommonStateBatteryStateChangedCb
                0x00043bfc       0x22 /home/ncs/CAPSTONE/out/arsdk-native/build/libARCommands/obj/gen/Sources/ARCOMMANDS_Decoder.c.o
                0x00043bfc                ARCOMMANDS_Decoder_SetCommonCommonStateBatteryStateChangedCb
 *fill*         0x00043c1e        0x2 
 .text.ARCOMMANDS_Decoder_SetCommonCommonStateBatteryStateChangedCallback
                0x00043c20       0x34 /home/ncs/CAPSTONE/out/arsdk-native/build/libARCommands/obj/gen/Sources/ARCOMMANDS_Decoder.c.o
                0x00043c20                ARCOMMANDS_Decoder_SetCommonCommonStateBatteryStateChangedCallback
 .text.ARCOMMANDS_Decoder_SetCommonCommonStateMassStorageStateListChangedCb
                0x00043c54       0x22 /home/ncs/CAPSTONE/out/arsdk-native/build/libARCommands/obj/gen/Sources/ARCOMMANDS_Decoder.c.o
                0x00043c54                ARCOMMANDS_Decoder_SetCommonCommonStateMassStorageStateListChangedCb
 *fill*         0x00043c76        0x2 
 .text.ARCOMMANDS_Decoder_SetCommonCommonStateMassStorageStateListChangedCallback
                0x00043c78       0x34 /home/ncs/CAPSTONE/out/arsdk-native/build/libARCommands/obj/gen/Sources/ARCOMMANDS_Decoder.c.o
                0x00043c78                ARCOMMANDS_Decoder_SetCommonCommonStateMassStorageStateListChangedCallback
 .text.ARCOMMANDS_Decoder_SetCommonCommonStateMassStorageInfoStateListChangedCb
                0x00043cac       0x22 /home/ncs/CAPSTONE/out/arsdk-native/build/libARCommands/obj/gen/Sources/ARCOMMANDS_Decoder.c.o
                0x00043cac                ARCOMMANDS_Decoder_SetCommonCommonStateMassStorageInfoStateListChangedCb
 *fill*         0x00043cce        0x2 
 .text.ARCOMMANDS_Decoder_SetCommonCommonStateMassStorageInfoStateListChangedCallback
                0x00043cd0       0x34 /home/ncs/CAPSTONE/out/arsdk-native/build/libARCommands/obj/gen/Sources/ARCOMMANDS_Decoder.c.o
                0x00043cd0                ARCOMMANDS_Decoder_SetCommonCommonStateMassStorageInfoStateListChangedCallback
 .text.ARCOMMANDS_Decoder_SetCommonCommonStateCurrentDateChangedCb
                0x00043d04       0x22 /home/ncs/CAPSTONE/out/arsdk-native/build/libARCommands/obj/gen/Sources/ARCOMMANDS_Decoder.c.o
                0x00043d04                ARCOMMANDS_Decoder_SetCommonCommonStateCurrentDateChangedCb
 *fill*         0x00043d26        0x2 
 .text.ARCOMMANDS_Decoder_SetCommonCommonStateCurrentDateChangedCallback
                0x00043d28       0x34 /home/ncs/CAPSTONE/out/arsdk-native/build/libARCommands/obj/gen/Sources/ARCOMMANDS_Decoder.c.o
                0x00043d28                ARCOMMANDS_Decoder_SetCommonCommonStateCurrentDateChangedCallback
 .text.ARCOMMANDS_Decoder_SetCommonCommonStateCurrentTimeChangedCb
                0x00043d5c       0x22 /home/ncs/CAPSTONE/out/arsdk-native/build/libARCommands/obj/gen/Sources/ARCOMMANDS_Decoder.c.o
                0x00043d5c                ARCOMMANDS_Decoder_SetCommonCommonStateCurrentTimeChangedCb
 *fill*         0x00043d7e        0x2 
 .text.ARCOMMANDS_Decoder_SetCommonCommonStateCurrentTimeChangedCallback
                0x00043d80       0x34 /home/ncs/CAPSTONE/out/arsdk-native/build/libARCommands/obj/gen/Sources/ARCOMMANDS_Decoder.c.o
                0x00043d80                ARCOMMANDS_Decoder_SetCommonCommonStateCurrentTimeChangedCallback
 .text.ARCOMMANDS_Decoder_SetCommonCommonStateMassStorageInfoRemainingListChangedCb
                0x00043db4       0x22 /home/ncs/CAPSTONE/out/arsdk-native/build/libARCommands/obj/gen/Sources/ARCOMMANDS_Decoder.c.o
                0x00043db4                ARCOMMANDS_Decoder_SetCommonCommonStateMassStorageInfoRemainingListChangedCb
 *fill*         0x00043dd6        0x2 
 .text.ARCOMMANDS_Decoder_SetCommonCommonStateMassStorageInfoRemainingListChangedCallback
                0x00043dd8       0x34 /home/ncs/CAPSTONE/out/arsdk-native/build/libARCommands/obj/gen/Sources/ARCOMMANDS_Decoder.c.o
                0x00043dd8                ARCOMMANDS_Decoder_SetCommonCommonStateMassStorageInfoRemainingListChangedCallback
 .text.ARCOMMANDS_Decoder_SetCommonCommonStateWifiSignalChangedCb
                0x00043e0c       0x22 /home/ncs/CAPSTONE/out/arsdk-native/build/libARCommands/obj/gen/Sources/ARCOMMANDS_Decoder.c.o
                0x00043e0c                ARCOMMANDS_Decoder_SetCommonCommonStateWifiSignalChangedCb
 *fill*         0x00043e2e        0x2 
 .text.ARCOMMANDS_Decoder_SetCommonCommonStateWifiSignalChangedCallback
                0x00043e30       0x34 /home/ncs/CAPSTONE/out/arsdk-native/build/libARCommands/obj/gen/Sources/ARCOMMANDS_Decoder.c.o
                0x00043e30                ARCOMMANDS_Decoder_SetCommonCommonStateWifiSignalChangedCallback
 .text.ARCOMMANDS_Decoder_SetCommonCommonStateSensorsStatesListChangedCb
                0x00043e64       0x22 /home/ncs/CAPSTONE/out/arsdk-native/build/libARCommands/obj/gen/Sources/ARCOMMANDS_Decoder.c.o
                0x00043e64                ARCOMMANDS_Decoder_SetCommonCommonStateSensorsStatesListChangedCb
 *fill*         0x00043e86        0x2 
 .text.ARCOMMANDS_Decoder_SetCommonCommonStateSensorsStatesListChangedCallback
                0x00043e88       0x34 /home/ncs/CAPSTONE/out/arsdk-native/build/libARCommands/obj/gen/Sources/ARCOMMANDS_Decoder.c.o
                0x00043e88                ARCOMMANDS_Decoder_SetCommonCommonStateSensorsStatesListChangedCallback
 .text.ARCOMMANDS_Decoder_SetCommonCommonStateProductModelCb
                0x00043ebc       0x22 /home/ncs/CAPSTONE/out/arsdk-native/build/libARCommands/obj/gen/Sources/ARCOMMANDS_Decoder.c.o
                0x00043ebc                ARCOMMANDS_Decoder_SetCommonCommonStateProductModelCb
 *fill*         0x00043ede        0x2 
 .text.ARCOMMANDS_Decoder_SetCommonCommonStateProductModelCallback
                0x00043ee0       0x34 /home/ncs/CAPSTONE/out/arsdk-native/build/libARCommands/obj/gen/Sources/ARCOMMANDS_Decoder.c.o
                0x00043ee0                ARCOMMANDS_Decoder_SetCommonCommonStateProductModelCallback
 .text.ARCOMMANDS_Decoder_SetCommonCommonStateCountryListKnownCb
                0x00043f14       0x22 /home/ncs/CAPSTONE/out/arsdk-native/build/libARCommands/obj/gen/Sources/ARCOMMANDS_Decoder.c.o
                0x00043f14                ARCOMMANDS_Decoder_SetCommonCommonStateCountryListKnownCb
 *fill*         0x00043f36        0x2 
 .text.ARCOMMANDS_Decoder_SetCommonCommonStateCountryListKnownCallback
                0x00043f38       0x34 /home/ncs/CAPSTONE/out/arsdk-native/build/libARCommands/obj/gen/Sources/ARCOMMANDS_Decoder.c.o
                0x00043f38                ARCOMMANDS_Decoder_SetCommonCommonStateCountryListKnownCallback
 .text.ARCOMMANDS_Decoder_SetCommonCommonStateDeprecatedMassStorageContentChangedCb
                0x00043f6c       0x22 /home/ncs/CAPSTONE/out/arsdk-native/build/libARCommands/obj/gen/Sources/ARCOMMANDS_Decoder.c.o
                0x00043f6c                ARCOMMANDS_Decoder_SetCommonCommonStateDeprecatedMassStorageContentChangedCb
 *fill*         0x00043f8e        0x2 
 .text.ARCOMMANDS_Decoder_SetCommonCommonStateDeprecatedMassStorageContentChangedCallback
                0x00043f90       0x34 /home/ncs/CAPSTONE/out/arsdk-native/build/libARCommands/obj/gen/Sources/ARCOMMANDS_Decoder.c.o
                0x00043f90                ARCOMMANDS_Decoder_SetCommonCommonStateDeprecatedMassStorageContentChangedCallback
 .text.ARCOMMANDS_Decoder_SetCommonCommonStateMassStorageContentCb
                0x00043fc4       0x22 /home/ncs/CAPSTONE/out/arsdk-native/build/libARCommands/obj/gen/Sources/ARCOMMANDS_Decoder.c.o
                0x00043fc4                ARCOMMANDS_Decoder_SetCommonCommonStateMassStorageContentCb
 *fill*         0x00043fe6        0x2 
 .text.ARCOMMANDS_Decoder_SetCommonCommonStateMassStorageContentCallback
                0x00043fe8       0x34 /home/ncs/CAPSTONE/out/arsdk-native/build/libARCommands/obj/gen/Sources/ARCOMMANDS_Decoder.c.o
                0x00043fe8                ARCOMMANDS_Decoder_SetCommonCommonStateMassStorageContentCallback
 .text.ARCOMMANDS_Decoder_SetCommonCommonStateMassStorageContentForCurrentRunCb
                0x0004401c       0x22 /home/ncs/CAPSTONE/out/arsdk-native/build/libARCommands/obj/gen/Sources/ARCOMMANDS_Decoder.c.o
                0x0004401c                ARCOMMANDS_Decoder_SetCommonCommonStateMassStorageContentForCurrentRunCb
 *fill*         0x0004403e        0x2 
 .text.ARCOMMANDS_Decoder_SetCommonCommonStateMassStorageContentForCurrentRunCallback
                0x00044040       0x34 /home/ncs/CAPSTONE/out/arsdk-native/build/libARCommands/obj/gen/Sources/ARCOMMANDS_Decoder.c.o
                0x00044040                ARCOMMANDS_Decoder_SetCommonCommonStateMassStorageContentForCurrentRunCallback
 .text.ARCOMMANDS_Decoder_SetCommonOverHeatStateOverHeatChangedCb
                0x00044074       0x22 /home/ncs/CAPSTONE/out/arsdk-native/build/libARCommands/obj/gen/Sources/ARCOMMANDS_Decoder.c.o
                0x00044074                ARCOMMANDS_Decoder_SetCommonOverHeatStateOverHeatChangedCb
 *fill*         0x00044096        0x2 
 .text.ARCOMMANDS_Decoder_SetCommonOverHeatStateOverHeatChangedCallback
                0x00044098       0x34 /home/ncs/CAPSTONE/out/arsdk-native/build/libARCommands/obj/gen/Sources/ARCOMMANDS_Decoder.c.o
                0x00044098                ARCOMMANDS_Decoder_SetCommonOverHeatStateOverHeatChangedCallback
 .text.ARCOMMANDS_Decoder_SetCommonOverHeatStateOverHeatRegulationChangedCb
                0x000440cc       0x22 /home/ncs/CAPSTONE/out/arsdk-native/build/libARCommands/obj/gen/Sources/ARCOMMANDS_Decoder.c.o
                0x000440cc                ARCOMMANDS_Decoder_SetCommonOverHeatStateOverHeatRegulationChangedCb
 *fill*         0x000440ee        0x2 
 .text.ARCOMMANDS_Decoder_SetCommonOverHeatStateOverHeatRegulationChangedCallback
                0x000440f0       0x34 /home/ncs/CAPSTONE/out/arsdk-native/build/libARCommands/obj/gen/Sources/ARCOMMANDS_Decoder.c.o
                0x000440f0                ARCOMMANDS_Decoder_SetCommonOverHeatStateOverHeatRegulationChangedCallback
 .text.ARCOMMANDS_Decoder_SetCommonWifiSettingsStateOutdoorSettingsChangedCb
                0x00044124       0x22 /home/ncs/CAPSTONE/out/arsdk-native/build/libARCommands/obj/gen/Sources/ARCOMMANDS_Decoder.c.o
                0x00044124                ARCOMMANDS_Decoder_SetCommonWifiSettingsStateOutdoorSettingsChangedCb
 *fill*         0x00044146        0x2 
 .text.ARCOMMANDS_Decoder_SetCommonWifiSettingsStateOutdoorSettingsChangedCallback
                0x00044148       0x34 /home/ncs/CAPSTONE/out/arsdk-native/build/libARCommands/obj/gen/Sources/ARCOMMANDS_Decoder.c.o
                0x00044148                ARCOMMANDS_Decoder_SetCommonWifiSettingsStateOutdoorSettingsChangedCallback
 .text.ARCOMMANDS_Decoder_SetCommonMavlinkStateMavlinkFilePlayingStateChangedCb
                0x0004417c       0x22 /home/ncs/CAPSTONE/out/arsdk-native/build/libARCommands/obj/gen/Sources/ARCOMMANDS_Decoder.c.o
                0x0004417c                ARCOMMANDS_Decoder_SetCommonMavlinkStateMavlinkFilePlayingStateChangedCb
 *fill*         0x0004419e        0x2 
 .text.ARCOMMANDS_Decoder_SetCommonMavlinkStateMavlinkFilePlayingStateChangedCallback
                0x000441a0       0x34 /home/ncs/CAPSTONE/out/arsdk-native/build/libARCommands/obj/gen/Sources/ARCOMMANDS_Decoder.c.o
                0x000441a0                ARCOMMANDS_Decoder_SetCommonMavlinkStateMavlinkFilePlayingStateChangedCallback
 .text.ARCOMMANDS_Decoder_SetCommonMavlinkStateMavlinkPlayErrorStateChangedCb
                0x000441d4       0x22 /home/ncs/CAPSTONE/out/arsdk-native/build/libARCommands/obj/gen/Sources/ARCOMMANDS_Decoder.c.o
                0x000441d4                ARCOMMANDS_Decoder_SetCommonMavlinkStateMavlinkPlayErrorStateChangedCb
 *fill*         0x000441f6        0x2 
 .text.ARCOMMANDS_Decoder_SetCommonMavlinkStateMavlinkPlayErrorStateChangedCallback
                0x000441f8       0x34 /home/ncs/CAPSTONE/out/arsdk-native/build/libARCommands/obj/gen/Sources/ARCOMMANDS_Decoder.c.o
                0x000441f8                ARCOMMANDS_Decoder_SetCommonMavlinkStateMavlinkPlayErrorStateChangedCallback
 .text.ARCOMMANDS_Decoder_SetCommonCalibrationStateMagnetoCalibrationStateChangedCb
                0x0004422c       0x22 /home/ncs/CAPSTONE/out/arsdk-native/build/libARCommands/obj/gen/Sources/ARCOMMANDS_Decoder.c.o
                0x0004422c                ARCOMMANDS_Decoder_SetCommonCalibrationStateMagnetoCalibrationStateChangedCb
 *fill*         0x0004424e        0x2 
 .text.ARCOMMANDS_Decoder_SetCommonCalibrationStateMagnetoCalibrationStateChangedCallback
                0x00044250       0x34 /home/ncs/CAPSTONE/out/arsdk-native/build/libARCommands/obj/gen/Sources/ARCOMMANDS_Decoder.c.o
                0x00044250                ARCOMMANDS_Decoder_SetCommonCalibrationStateMagnetoCalibrationStateChangedCallback
 .text.ARCOMMANDS_Decoder_SetCommonCalibrationStateMagnetoCalibrationRequiredStateCb
                0x00044284       0x22 /home/ncs/CAPSTONE/out/arsdk-native/build/libARCommands/obj/gen/Sources/ARCOMMANDS_Decoder.c.o
                0x00044284                ARCOMMANDS_Decoder_SetCommonCalibrationStateMagnetoCalibrationRequiredStateCb
 *fill*         0x000442a6        0x2 
 .text.ARCOMMANDS_Decoder_SetCommonCalibrationStateMagnetoCalibrationRequiredStateCallback
                0x000442a8       0x34 /home/ncs/CAPSTONE/out/arsdk-native/build/libARCommands/obj/gen/Sources/ARCOMMANDS_Decoder.c.o
                0x000442a8                ARCOMMANDS_Decoder_SetCommonCalibrationStateMagnetoCalibrationRequiredStateCallback
 .text.ARCOMMANDS_Decoder_SetCommonCalibrationStateMagnetoCalibrationAxisToCalibrateChangedCb
                0x000442dc       0x22 /home/ncs/CAPSTONE/out/arsdk-native/build/libARCommands/obj/gen/Sources/ARCOMMANDS_Decoder.c.o
                0x000442dc                ARCOMMANDS_Decoder_SetCommonCalibrationStateMagnetoCalibrationAxisToCalibrateChangedCb
 *fill*         0x000442fe        0x2 
 .text.ARCOMMANDS_Decoder_SetCommonCalibrationStateMagnetoCalibrationAxisToCalibrateChangedCallback
                0x00044300       0x34 /home/ncs/CAPSTONE/out/arsdk-native/build/libARCommands/obj/gen/Sources/ARCOMMANDS_Decoder.c.o
                0x00044300                ARCOMMANDS_Decoder_SetCommonCalibrationStateMagnetoCalibrationAxisToCalibrateChangedCallback
 .text.ARCOMMANDS_Decoder_SetCommonCalibrationStateMagnetoCalibrationStartedChangedCb
                0x00044334       0x22 /home/ncs/CAPSTONE/out/arsdk-native/build/libARCommands/obj/gen/Sources/ARCOMMANDS_Decoder.c.o
                0x00044334                ARCOMMANDS_Decoder_SetCommonCalibrationStateMagnetoCalibrationStartedChangedCb
 *fill*         0x00044356        0x2 
 .text.ARCOMMANDS_Decoder_SetCommonCalibrationStateMagnetoCalibrationStartedChangedCallback
                0x00044358       0x34 /home/ncs/CAPSTONE/out/arsdk-native/build/libARCommands/obj/gen/Sources/ARCOMMANDS_Decoder.c.o
                0x00044358                ARCOMMANDS_Decoder_SetCommonCalibrationStateMagnetoCalibrationStartedChangedCallback
 .text.ARCOMMANDS_Decoder_SetCommonCalibrationStatePitotCalibrationStateChangedCb
                0x0004438c       0x22 /home/ncs/CAPSTONE/out/arsdk-native/build/libARCommands/obj/gen/Sources/ARCOMMANDS_Decoder.c.o
                0x0004438c                ARCOMMANDS_Decoder_SetCommonCalibrationStatePitotCalibrationStateChangedCb
 *fill*         0x000443ae        0x2 
 .text.ARCOMMANDS_Decoder_SetCommonCalibrationStatePitotCalibrationStateChangedCallback
                0x000443b0       0x34 /home/ncs/CAPSTONE/out/arsdk-native/build/libARCommands/obj/gen/Sources/ARCOMMANDS_Decoder.c.o
                0x000443b0                ARCOMMANDS_Decoder_SetCommonCalibrationStatePitotCalibrationStateChangedCallback
 .text.ARCOMMANDS_Decoder_SetCommonCameraSettingsStateCameraSettingsChangedCb
                0x000443e4       0x22 /home/ncs/CAPSTONE/out/arsdk-native/build/libARCommands/obj/gen/Sources/ARCOMMANDS_Decoder.c.o
                0x000443e4                ARCOMMANDS_Decoder_SetCommonCameraSettingsStateCameraSettingsChangedCb
 *fill*         0x00044406        0x2 
 .text.ARCOMMANDS_Decoder_SetCommonCameraSettingsStateCameraSettingsChangedCallback
                0x00044408       0x34 /home/ncs/CAPSTONE/out/arsdk-native/build/libARCommands/obj/gen/Sources/ARCOMMANDS_Decoder.c.o
                0x00044408                ARCOMMANDS_Decoder_SetCommonCameraSettingsStateCameraSettingsChangedCallback
 .text.ARCOMMANDS_Decoder_SetCommonFlightPlanStateAvailabilityStateChangedCb
                0x0004443c       0x22 /home/ncs/CAPSTONE/out/arsdk-native/build/libARCommands/obj/gen/Sources/ARCOMMANDS_Decoder.c.o
                0x0004443c                ARCOMMANDS_Decoder_SetCommonFlightPlanStateAvailabilityStateChangedCb
 *fill*         0x0004445e        0x2 
 .text.ARCOMMANDS_Decoder_SetCommonFlightPlanStateAvailabilityStateChangedCallback
                0x00044460       0x34 /home/ncs/CAPSTONE/out/arsdk-native/build/libARCommands/obj/gen/Sources/ARCOMMANDS_Decoder.c.o
                0x00044460                ARCOMMANDS_Decoder_SetCommonFlightPlanStateAvailabilityStateChangedCallback
 .text.ARCOMMANDS_Decoder_SetCommonFlightPlanStateComponentStateListChangedCb
                0x00044494       0x22 /home/ncs/CAPSTONE/out/arsdk-native/build/libARCommands/obj/gen/Sources/ARCOMMANDS_Decoder.c.o
                0x00044494                ARCOMMANDS_Decoder_SetCommonFlightPlanStateComponentStateListChangedCb
 *fill*         0x000444b6        0x2 
 .text.ARCOMMANDS_Decoder_SetCommonFlightPlanStateComponentStateListChangedCallback
                0x000444b8       0x34 /home/ncs/CAPSTONE/out/arsdk-native/build/libARCommands/obj/gen/Sources/ARCOMMANDS_Decoder.c.o
                0x000444b8                ARCOMMANDS_Decoder_SetCommonFlightPlanStateComponentStateListChangedCallback
 .text.ARCOMMANDS_Decoder_SetCommonFlightPlanStateLockStateChangedCb
                0x000444ec       0x22 /home/ncs/CAPSTONE/out/arsdk-native/build/libARCommands/obj/gen/Sources/ARCOMMANDS_Decoder.c.o
                0x000444ec                ARCOMMANDS_Decoder_SetCommonFlightPlanStateLockStateChangedCb
 *fill*         0x0004450e        0x2 
 .text.ARCOMMANDS_Decoder_SetCommonFlightPlanStateLockStateChangedCallback
                0x00044510       0x34 /home/ncs/CAPSTONE/out/arsdk-native/build/libARCommands/obj/gen/Sources/ARCOMMANDS_Decoder.c.o
                0x00044510                ARCOMMANDS_Decoder_SetCommonFlightPlanStateLockStateChangedCallback
 .text.ARCOMMANDS_Decoder_SetCommonFlightPlanEventStartingErrorEventCb
                0x00044544       0x22 /home/ncs/CAPSTONE/out/arsdk-native/build/libARCommands/obj/gen/Sources/ARCOMMANDS_Decoder.c.o
                0x00044544                ARCOMMANDS_Decoder_SetCommonFlightPlanEventStartingErrorEventCb
 *fill*         0x00044566        0x2 
 .text.ARCOMMANDS_Decoder_SetCommonFlightPlanEventStartingErrorEventCallback
                0x00044568       0x34 /home/ncs/CAPSTONE/out/arsdk-native/build/libARCommands/obj/gen/Sources/ARCOMMANDS_Decoder.c.o
                0x00044568                ARCOMMANDS_Decoder_SetCommonFlightPlanEventStartingErrorEventCallback
 .text.ARCOMMANDS_Decoder_SetCommonFlightPlanEventSpeedBridleEventCb
                0x0004459c       0x22 /home/ncs/CAPSTONE/out/arsdk-native/build/libARCommands/obj/gen/Sources/ARCOMMANDS_Decoder.c.o
                0x0004459c                ARCOMMANDS_Decoder_SetCommonFlightPlanEventSpeedBridleEventCb
 *fill*         0x000445be        0x2 
 .text.ARCOMMANDS_Decoder_SetCommonFlightPlanEventSpeedBridleEventCallback
                0x000445c0       0x34 /home/ncs/CAPSTONE/out/arsdk-native/build/libARCommands/obj/gen/Sources/ARCOMMANDS_Decoder.c.o
                0x000445c0                ARCOMMANDS_Decoder_SetCommonFlightPlanEventSpeedBridleEventCallback
 .text.ARCOMMANDS_Decoder_SetCommonARLibsVersionsStateControllerLibARCommandsVersionCb
                0x000445f4       0x22 /home/ncs/CAPSTONE/out/arsdk-native/build/libARCommands/obj/gen/Sources/ARCOMMANDS_Decoder.c.o
                0x000445f4                ARCOMMANDS_Decoder_SetCommonARLibsVersionsStateControllerLibARCommandsVersionCb
 *fill*         0x00044616        0x2 
 .text.ARCOMMANDS_Decoder_SetCommonARLibsVersionsStateControllerLibARCommandsVersionCallback
                0x00044618       0x34 /home/ncs/CAPSTONE/out/arsdk-native/build/libARCommands/obj/gen/Sources/ARCOMMANDS_Decoder.c.o
                0x00044618                ARCOMMANDS_Decoder_SetCommonARLibsVersionsStateControllerLibARCommandsVersionCallback
 .text.ARCOMMANDS_Decoder_SetCommonARLibsVersionsStateSkyControllerLibARCommandsVersionCb
                0x0004464c       0x22 /home/ncs/CAPSTONE/out/arsdk-native/build/libARCommands/obj/gen/Sources/ARCOMMANDS_Decoder.c.o
                0x0004464c                ARCOMMANDS_Decoder_SetCommonARLibsVersionsStateSkyControllerLibARCommandsVersionCb
 *fill*         0x0004466e        0x2 
 .text.ARCOMMANDS_Decoder_SetCommonARLibsVersionsStateSkyControllerLibARCommandsVersionCallback
                0x00044670       0x34 /home/ncs/CAPSTONE/out/arsdk-native/build/libARCommands/obj/gen/Sources/ARCOMMANDS_Decoder.c.o
                0x00044670                ARCOMMANDS_Decoder_SetCommonARLibsVersionsStateSkyControllerLibARCommandsVersionCallback
 .text.ARCOMMANDS_Decoder_SetCommonARLibsVersionsStateDeviceLibARCommandsVersionCb
                0x000446a4       0x22 /home/ncs/CAPSTONE/out/arsdk-native/build/libARCommands/obj/gen/Sources/ARCOMMANDS_Decoder.c.o
                0x000446a4                ARCOMMANDS_Decoder_SetCommonARLibsVersionsStateDeviceLibARCommandsVersionCb
 *fill*         0x000446c6        0x2 
 .text.ARCOMMANDS_Decoder_SetCommonARLibsVersionsStateDeviceLibARCommandsVersionCallback
                0x000446c8       0x34 /home/ncs/CAPSTONE/out/arsdk-native/build/libARCommands/obj/gen/Sources/ARCOMMANDS_Decoder.c.o
                0x000446c8                ARCOMMANDS_Decoder_SetCommonARLibsVersionsStateDeviceLibARCommandsVersionCallback
 .text.ARCOMMANDS_Decoder_SetCommonAudioStateAudioStreamingRunningCb
                0x000446fc       0x22 /home/ncs/CAPSTONE/out/arsdk-native/build/libARCommands/obj/gen/Sources/ARCOMMANDS_Decoder.c.o
                0x000446fc                ARCOMMANDS_Decoder_SetCommonAudioStateAudioStreamingRunningCb
 *fill*         0x0004471e        0x2 
 .text.ARCOMMANDS_Decoder_SetCommonAudioStateAudioStreamingRunningCallback
                0x00044720       0x34 /home/ncs/CAPSTONE/out/arsdk-native/build/libARCommands/obj/gen/Sources/ARCOMMANDS_Decoder.c.o
                0x00044720                ARCOMMANDS_Decoder_SetCommonAudioStateAudioStreamingRunningCallback
 .text.ARCOMMANDS_Decoder_SetCommonHeadlightsStateIntensityChangedCb
                0x00044754       0x22 /home/ncs/CAPSTONE/out/arsdk-native/build/libARCommands/obj/gen/Sources/ARCOMMANDS_Decoder.c.o
                0x00044754                ARCOMMANDS_Decoder_SetCommonHeadlightsStateIntensityChangedCb
 *fill*         0x00044776        0x2 
 .text.ARCOMMANDS_Decoder_SetCommonHeadlightsStateIntensityChangedCallback
                0x00044778       0x34 /home/ncs/CAPSTONE/out/arsdk-native/build/libARCommands/obj/gen/Sources/ARCOMMANDS_Decoder.c.o
                0x00044778                ARCOMMANDS_Decoder_SetCommonHeadlightsStateIntensityChangedCallback
 .text.ARCOMMANDS_Decoder_SetCommonAnimationsStateListCb
                0x000447ac       0x22 /home/ncs/CAPSTONE/out/arsdk-native/build/libARCommands/obj/gen/Sources/ARCOMMANDS_Decoder.c.o
                0x000447ac                ARCOMMANDS_Decoder_SetCommonAnimationsStateListCb
 *fill*         0x000447ce        0x2 
 .text.ARCOMMANDS_Decoder_SetCommonAnimationsStateListCallback
                0x000447d0       0x34 /home/ncs/CAPSTONE/out/arsdk-native/build/libARCommands/obj/gen/Sources/ARCOMMANDS_Decoder.c.o
                0x000447d0                ARCOMMANDS_Decoder_SetCommonAnimationsStateListCallback
 .text.ARCOMMANDS_Decoder_SetCommonAccessoryStateSupportedAccessoriesListChangedCb
                0x00044804       0x22 /home/ncs/CAPSTONE/out/arsdk-native/build/libARCommands/obj/gen/Sources/ARCOMMANDS_Decoder.c.o
                0x00044804                ARCOMMANDS_Decoder_SetCommonAccessoryStateSupportedAccessoriesListChangedCb
 *fill*         0x00044826        0x2 
 .text.ARCOMMANDS_Decoder_SetCommonAccessoryStateSupportedAccessoriesListChangedCallback
                0x00044828       0x34 /home/ncs/CAPSTONE/out/arsdk-native/build/libARCommands/obj/gen/Sources/ARCOMMANDS_Decoder.c.o
                0x00044828                ARCOMMANDS_Decoder_SetCommonAccessoryStateSupportedAccessoriesListChangedCallback
 .text.ARCOMMANDS_Decoder_SetCommonAccessoryStateAccessoryConfigChangedCb
                0x0004485c       0x22 /home/ncs/CAPSTONE/out/arsdk-native/build/libARCommands/obj/gen/Sources/ARCOMMANDS_Decoder.c.o
                0x0004485c                ARCOMMANDS_Decoder_SetCommonAccessoryStateAccessoryConfigChangedCb
 *fill*         0x0004487e        0x2 
 .text.ARCOMMANDS_Decoder_SetCommonAccessoryStateAccessoryConfigChangedCallback
                0x00044880       0x34 /home/ncs/CAPSTONE/out/arsdk-native/build/libARCommands/obj/gen/Sources/ARCOMMANDS_Decoder.c.o
                0x00044880                ARCOMMANDS_Decoder_SetCommonAccessoryStateAccessoryConfigChangedCallback
 .text.ARCOMMANDS_Decoder_SetCommonAccessoryStateAccessoryConfigModificationEnabledCb
                0x000448b4       0x22 /home/ncs/CAPSTONE/out/arsdk-native/build/libARCommands/obj/gen/Sources/ARCOMMANDS_Decoder.c.o
                0x000448b4                ARCOMMANDS_Decoder_SetCommonAccessoryStateAccessoryConfigModificationEnabledCb
 *fill*         0x000448d6        0x2 
 .text.ARCOMMANDS_Decoder_SetCommonAccessoryStateAccessoryConfigModificationEnabledCallback
                0x000448d8       0x34 /home/ncs/CAPSTONE/out/arsdk-native/build/libARCommands/obj/gen/Sources/ARCOMMANDS_Decoder.c.o
                0x000448d8                ARCOMMANDS_Decoder_SetCommonAccessoryStateAccessoryConfigModificationEnabledCallback
 .text.ARCOMMANDS_Decoder_SetCommonChargerStateMaxChargeRateChangedCb
                0x0004490c       0x22 /home/ncs/CAPSTONE/out/arsdk-native/build/libARCommands/obj/gen/Sources/ARCOMMANDS_Decoder.c.o
                0x0004490c                ARCOMMANDS_Decoder_SetCommonChargerStateMaxChargeRateChangedCb
 *fill*         0x0004492e        0x2 
 .text.ARCOMMANDS_Decoder_SetCommonChargerStateMaxChargeRateChangedCallback
                0x00044930       0x34 /home/ncs/CAPSTONE/out/arsdk-native/build/libARCommands/obj/gen/Sources/ARCOMMANDS_Decoder.c.o
                0x00044930                ARCOMMANDS_Decoder_SetCommonChargerStateMaxChargeRateChangedCallback
 .text.ARCOMMANDS_Decoder_SetCommonChargerStateCurrentChargeStateChangedCb
                0x00044964       0x22 /home/ncs/CAPSTONE/out/arsdk-native/build/libARCommands/obj/gen/Sources/ARCOMMANDS_Decoder.c.o
                0x00044964                ARCOMMANDS_Decoder_SetCommonChargerStateCurrentChargeStateChangedCb
 *fill*         0x00044986        0x2 
 .text.ARCOMMANDS_Decoder_SetCommonChargerStateCurrentChargeStateChangedCallback
                0x00044988       0x34 /home/ncs/CAPSTONE/out/arsdk-native/build/libARCommands/obj/gen/Sources/ARCOMMANDS_Decoder.c.o
                0x00044988                ARCOMMANDS_Decoder_SetCommonChargerStateCurrentChargeStateChangedCallback
 .text.ARCOMMANDS_Decoder_SetCommonChargerStateLastChargeRateChangedCb
                0x000449bc       0x22 /home/ncs/CAPSTONE/out/arsdk-native/build/libARCommands/obj/gen/Sources/ARCOMMANDS_Decoder.c.o
                0x000449bc                ARCOMMANDS_Decoder_SetCommonChargerStateLastChargeRateChangedCb
 *fill*         0x000449de        0x2 
 .text.ARCOMMANDS_Decoder_SetCommonChargerStateLastChargeRateChangedCallback
                0x000449e0       0x34 /home/ncs/CAPSTONE/out/arsdk-native/build/libARCommands/obj/gen/Sources/ARCOMMANDS_Decoder.c.o
                0x000449e0                ARCOMMANDS_Decoder_SetCommonChargerStateLastChargeRateChangedCallback
 .text.ARCOMMANDS_Decoder_SetCommonChargerStateChargingInfoCb
                0x00044a14       0x22 /home/ncs/CAPSTONE/out/arsdk-native/build/libARCommands/obj/gen/Sources/ARCOMMANDS_Decoder.c.o
                0x00044a14                ARCOMMANDS_Decoder_SetCommonChargerStateChargingInfoCb
 *fill*         0x00044a36        0x2 
 .text.ARCOMMANDS_Decoder_SetCommonChargerStateChargingInfoCallback
                0x00044a38       0x34 /home/ncs/CAPSTONE/out/arsdk-native/build/libARCommands/obj/gen/Sources/ARCOMMANDS_Decoder.c.o
                0x00044a38                ARCOMMANDS_Decoder_SetCommonChargerStateChargingInfoCallback
 .text.ARCOMMANDS_Decoder_SetCommonRunStateRunIdChangedCb
                0x00044a6c       0x22 /home/ncs/CAPSTONE/out/arsdk-native/build/libARCommands/obj/gen/Sources/ARCOMMANDS_Decoder.c.o
                0x00044a6c                ARCOMMANDS_Decoder_SetCommonRunStateRunIdChangedCb
 *fill*         0x00044a8e        0x2 
 .text.ARCOMMANDS_Decoder_SetCommonRunStateRunIdChangedCallback
                0x00044a90       0x34 /home/ncs/CAPSTONE/out/arsdk-native/build/libARCommands/obj/gen/Sources/ARCOMMANDS_Decoder.c.o
                0x00044a90                ARCOMMANDS_Decoder_SetCommonRunStateRunIdChangedCallback
 .text.ARCOMMANDS_Decoder_SetControllerInfoGpsCb
                0x00044ac4       0x22 /home/ncs/CAPSTONE/out/arsdk-native/build/libARCommands/obj/gen/Sources/ARCOMMANDS_Decoder.c.o
                0x00044ac4                ARCOMMANDS_Decoder_SetControllerInfoGpsCb
 *fill*         0x00044ae6        0x2 
 .text.ARCOMMANDS_Decoder_SetControllerInfoGpsCallback
                0x00044ae8       0x34 /home/ncs/CAPSTONE/out/arsdk-native/build/libARCommands/obj/gen/Sources/ARCOMMANDS_Decoder.c.o
                0x00044ae8                ARCOMMANDS_Decoder_SetControllerInfoGpsCallback
 .text.ARCOMMANDS_Decoder_SetControllerInfoBarometerCb
                0x00044b1c       0x22 /home/ncs/CAPSTONE/out/arsdk-native/build/libARCommands/obj/gen/Sources/ARCOMMANDS_Decoder.c.o
                0x00044b1c                ARCOMMANDS_Decoder_SetControllerInfoBarometerCb
 *fill*         0x00044b3e        0x2 
 .text.ARCOMMANDS_Decoder_SetControllerInfoBarometerCallback
                0x00044b40       0x34 /home/ncs/CAPSTONE/out/arsdk-native/build/libARCommands/obj/gen/Sources/ARCOMMANDS_Decoder.c.o
                0x00044b40                ARCOMMANDS_Decoder_SetControllerInfoBarometerCallback
 .text.ARCOMMANDS_Decoder_SetDebugGetAllSettingsCb
                0x00044b74       0x22 /home/ncs/CAPSTONE/out/arsdk-native/build/libARCommands/obj/gen/Sources/ARCOMMANDS_Decoder.c.o
                0x00044b74                ARCOMMANDS_Decoder_SetDebugGetAllSettingsCb
 *fill*         0x00044b96        0x2 
 .text.ARCOMMANDS_Decoder_SetDebugGetAllSettingsCallback
                0x00044b98       0x34 /home/ncs/CAPSTONE/out/arsdk-native/build/libARCommands/obj/gen/Sources/ARCOMMANDS_Decoder.c.o
                0x00044b98                ARCOMMANDS_Decoder_SetDebugGetAllSettingsCallback
 .text.ARCOMMANDS_Decoder_SetDebugSetSettingCb
                0x00044bcc       0x22 /home/ncs/CAPSTONE/out/arsdk-native/build/libARCommands/obj/gen/Sources/ARCOMMANDS_Decoder.c.o
                0x00044bcc                ARCOMMANDS_Decoder_SetDebugSetSettingCb
 *fill*         0x00044bee        0x2 
 .text.ARCOMMANDS_Decoder_SetDebugSetSettingCallback
                0x00044bf0       0x34 /home/ncs/CAPSTONE/out/arsdk-native/build/libARCommands/obj/gen/Sources/ARCOMMANDS_Decoder.c.o
                0x00044bf0                ARCOMMANDS_Decoder_SetDebugSetSettingCallback
 .text.ARCOMMANDS_Decoder_SetDebugSettingsInfoCb
                0x00044c24       0x22 /home/ncs/CAPSTONE/out/arsdk-native/build/libARCommands/obj/gen/Sources/ARCOMMANDS_Decoder.c.o
                0x00044c24                ARCOMMANDS_Decoder_SetDebugSettingsInfoCb
 *fill*         0x00044c46        0x2 
 .text.ARCOMMANDS_Decoder_SetDebugSettingsInfoCallback
                0x00044c48       0x34 /home/ncs/CAPSTONE/out/arsdk-native/build/libARCommands/obj/gen/Sources/ARCOMMANDS_Decoder.c.o
                0x00044c48                ARCOMMANDS_Decoder_SetDebugSettingsInfoCallback
 .text.ARCOMMANDS_Decoder_SetDebugSettingsListCb
                0x00044c7c       0x22 /home/ncs/CAPSTONE/out/arsdk-native/build/libARCommands/obj/gen/Sources/ARCOMMANDS_Decoder.c.o
                0x00044c7c                ARCOMMANDS_Decoder_SetDebugSettingsListCb
 *fill*         0x00044c9e        0x2 
 .text.ARCOMMANDS_Decoder_SetDebugSettingsListCallback
                0x00044ca0       0x34 /home/ncs/CAPSTONE/out/arsdk-native/build/libARCommands/obj/gen/Sources/ARCOMMANDS_Decoder.c.o
                0x00044ca0                ARCOMMANDS_Decoder_SetDebugSettingsListCallback
 .text.ARCOMMANDS_Decoder_SetDroneManagerDiscoverDronesCb
                0x00044cd4       0x22 /home/ncs/CAPSTONE/out/arsdk-native/build/libARCommands/obj/gen/Sources/ARCOMMANDS_Decoder.c.o
                0x00044cd4                ARCOMMANDS_Decoder_SetDroneManagerDiscoverDronesCb
 *fill*         0x00044cf6        0x2 
 .text.ARCOMMANDS_Decoder_SetDroneManagerDiscoverDronesCallback
                0x00044cf8       0x34 /home/ncs/CAPSTONE/out/arsdk-native/build/libARCommands/obj/gen/Sources/ARCOMMANDS_Decoder.c.o
                0x00044cf8                ARCOMMANDS_Decoder_SetDroneManagerDiscoverDronesCallback
 .text.ARCOMMANDS_Decoder_SetDroneManagerConnectCb
                0x00044d2c       0x22 /home/ncs/CAPSTONE/out/arsdk-native/build/libARCommands/obj/gen/Sources/ARCOMMANDS_Decoder.c.o
                0x00044d2c                ARCOMMANDS_Decoder_SetDroneManagerConnectCb
 *fill*         0x00044d4e        0x2 
 .text.ARCOMMANDS_Decoder_SetDroneManagerConnectCallback
                0x00044d50       0x34 /home/ncs/CAPSTONE/out/arsdk-native/build/libARCommands/obj/gen/Sources/ARCOMMANDS_Decoder.c.o
                0x00044d50                ARCOMMANDS_Decoder_SetDroneManagerConnectCallback
 .text.ARCOMMANDS_Decoder_SetDroneManagerForgetCb
                0x00044d84       0x22 /home/ncs/CAPSTONE/out/arsdk-native/build/libARCommands/obj/gen/Sources/ARCOMMANDS_Decoder.c.o
                0x00044d84                ARCOMMANDS_Decoder_SetDroneManagerForgetCb
 *fill*         0x00044da6        0x2 
 .text.ARCOMMANDS_Decoder_SetDroneManagerForgetCallback
                0x00044da8       0x34 /home/ncs/CAPSTONE/out/arsdk-native/build/libARCommands/obj/gen/Sources/ARCOMMANDS_Decoder.c.o
                0x00044da8                ARCOMMANDS_Decoder_SetDroneManagerForgetCallback
 .text.ARCOMMANDS_Decoder_SetDroneManagerDroneListItemCb
                0x00044ddc       0x22 /home/ncs/CAPSTONE/out/arsdk-native/build/libARCommands/obj/gen/Sources/ARCOMMANDS_Decoder.c.o
                0x00044ddc                ARCOMMANDS_Decoder_SetDroneManagerDroneListItemCb
 *fill*         0x00044dfe        0x2 
 .text.ARCOMMANDS_Decoder_SetDroneManagerDroneListItemCallback
                0x00044e00       0x34 /home/ncs/CAPSTONE/out/arsdk-native/build/libARCommands/obj/gen/Sources/ARCOMMANDS_Decoder.c.o
                0x00044e00                ARCOMMANDS_Decoder_SetDroneManagerDroneListItemCallback
 .text.ARCOMMANDS_Decoder_SetDroneManagerConnectionStateCb
                0x00044e34       0x22 /home/ncs/CAPSTONE/out/arsdk-native/build/libARCommands/obj/gen/Sources/ARCOMMANDS_Decoder.c.o
                0x00044e34                ARCOMMANDS_Decoder_SetDroneManagerConnectionStateCb
 *fill*         0x00044e56        0x2 
 .text.ARCOMMANDS_Decoder_SetDroneManagerConnectionStateCallback
                0x00044e58       0x34 /home/ncs/CAPSTONE/out/arsdk-native/build/libARCommands/obj/gen/Sources/ARCOMMANDS_Decoder.c.o
                0x00044e58                ARCOMMANDS_Decoder_SetDroneManagerConnectionStateCallback
 .text.ARCOMMANDS_Decoder_SetDroneManagerAuthenticationFailedCb
                0x00044e8c       0x22 /home/ncs/CAPSTONE/out/arsdk-native/build/libARCommands/obj/gen/Sources/ARCOMMANDS_Decoder.c.o
                0x00044e8c                ARCOMMANDS_Decoder_SetDroneManagerAuthenticationFailedCb
 *fill*         0x00044eae        0x2 
 .text.ARCOMMANDS_Decoder_SetDroneManagerAuthenticationFailedCallback
                0x00044eb0       0x34 /home/ncs/CAPSTONE/out/arsdk-native/build/libARCommands/obj/gen/Sources/ARCOMMANDS_Decoder.c.o
                0x00044eb0                ARCOMMANDS_Decoder_SetDroneManagerAuthenticationFailedCallback
 .text.ARCOMMANDS_Decoder_SetDroneManagerConnectionRefusedCb
                0x00044ee4       0x22 /home/ncs/CAPSTONE/out/arsdk-native/build/libARCommands/obj/gen/Sources/ARCOMMANDS_Decoder.c.o
                0x00044ee4                ARCOMMANDS_Decoder_SetDroneManagerConnectionRefusedCb
 *fill*         0x00044f06        0x2 
 .text.ARCOMMANDS_Decoder_SetDroneManagerConnectionRefusedCallback
                0x00044f08       0x34 /home/ncs/CAPSTONE/out/arsdk-native/build/libARCommands/obj/gen/Sources/ARCOMMANDS_Decoder.c.o
                0x00044f08                ARCOMMANDS_Decoder_SetDroneManagerConnectionRefusedCallback
 .text.ARCOMMANDS_Decoder_SetJumpingSumoPilotingPCMDCb
                0x00044f3c       0x22 /home/ncs/CAPSTONE/out/arsdk-native/build/libARCommands/obj/gen/Sources/ARCOMMANDS_Decoder.c.o
                0x00044f3c                ARCOMMANDS_Decoder_SetJumpingSumoPilotingPCMDCb
 *fill*         0x00044f5e        0x2 
 .text.ARCOMMANDS_Decoder_SetJumpingSumoPilotingPCMDCallback
                0x00044f60       0x34 /home/ncs/CAPSTONE/out/arsdk-native/build/libARCommands/obj/gen/Sources/ARCOMMANDS_Decoder.c.o
                0x00044f60                ARCOMMANDS_Decoder_SetJumpingSumoPilotingPCMDCallback
 .text.ARCOMMANDS_Decoder_SetJumpingSumoPilotingPostureCb
                0x00044f94       0x22 /home/ncs/CAPSTONE/out/arsdk-native/build/libARCommands/obj/gen/Sources/ARCOMMANDS_Decoder.c.o
                0x00044f94                ARCOMMANDS_Decoder_SetJumpingSumoPilotingPostureCb
 *fill*         0x00044fb6        0x2 
 .text.ARCOMMANDS_Decoder_SetJumpingSumoPilotingPostureCallback
                0x00044fb8       0x34 /home/ncs/CAPSTONE/out/arsdk-native/build/libARCommands/obj/gen/Sources/ARCOMMANDS_Decoder.c.o
                0x00044fb8                ARCOMMANDS_Decoder_SetJumpingSumoPilotingPostureCallback
 .text.ARCOMMANDS_Decoder_SetJumpingSumoPilotingAddCapOffsetCb
                0x00044fec       0x22 /home/ncs/CAPSTONE/out/arsdk-native/build/libARCommands/obj/gen/Sources/ARCOMMANDS_Decoder.c.o
                0x00044fec                ARCOMMANDS_Decoder_SetJumpingSumoPilotingAddCapOffsetCb
 *fill*         0x0004500e        0x2 
 .text.ARCOMMANDS_Decoder_SetJumpingSumoPilotingAddCapOffsetCallback
                0x00045010       0x34 /home/ncs/CAPSTONE/out/arsdk-native/build/libARCommands/obj/gen/Sources/ARCOMMANDS_Decoder.c.o
                0x00045010                ARCOMMANDS_Decoder_SetJumpingSumoPilotingAddCapOffsetCallback
 .text.ARCOMMANDS_Decoder_SetJumpingSumoAnimationsJumpStopCb
                0x00045044       0x22 /home/ncs/CAPSTONE/out/arsdk-native/build/libARCommands/obj/gen/Sources/ARCOMMANDS_Decoder.c.o
                0x00045044                ARCOMMANDS_Decoder_SetJumpingSumoAnimationsJumpStopCb
 *fill*         0x00045066        0x2 
 .text.ARCOMMANDS_Decoder_SetJumpingSumoAnimationsJumpStopCallback
                0x00045068       0x34 /home/ncs/CAPSTONE/out/arsdk-native/build/libARCommands/obj/gen/Sources/ARCOMMANDS_Decoder.c.o
                0x00045068                ARCOMMANDS_Decoder_SetJumpingSumoAnimationsJumpStopCallback
 .text.ARCOMMANDS_Decoder_SetJumpingSumoAnimationsJumpCancelCb
                0x0004509c       0x22 /home/ncs/CAPSTONE/out/arsdk-native/build/libARCommands/obj/gen/Sources/ARCOMMANDS_Decoder.c.o
                0x0004509c                ARCOMMANDS_Decoder_SetJumpingSumoAnimationsJumpCancelCb
 *fill*         0x000450be        0x2 
 .text.ARCOMMANDS_Decoder_SetJumpingSumoAnimationsJumpCancelCallback
                0x000450c0       0x34 /home/ncs/CAPSTONE/out/arsdk-native/build/libARCommands/obj/gen/Sources/ARCOMMANDS_Decoder.c.o
                0x000450c0                ARCOMMANDS_Decoder_SetJumpingSumoAnimationsJumpCancelCallback
 .text.ARCOMMANDS_Decoder_SetJumpingSumoAnimationsJumpLoadCb
                0x000450f4       0x22 /home/ncs/CAPSTONE/out/arsdk-native/build/libARCommands/obj/gen/Sources/ARCOMMANDS_Decoder.c.o
                0x000450f4                ARCOMMANDS_Decoder_SetJumpingSumoAnimationsJumpLoadCb
 *fill*         0x00045116        0x2 
 .text.ARCOMMANDS_Decoder_SetJumpingSumoAnimationsJumpLoadCallback
                0x00045118       0x34 /home/ncs/CAPSTONE/out/arsdk-native/build/libARCommands/obj/gen/Sources/ARCOMMANDS_Decoder.c.o
                0x00045118                ARCOMMANDS_Decoder_SetJumpingSumoAnimationsJumpLoadCallback
 .text.ARCOMMANDS_Decoder_SetJumpingSumoAnimationsJumpCb
                0x0004514c       0x22 /home/ncs/CAPSTONE/out/arsdk-native/build/libARCommands/obj/gen/Sources/ARCOMMANDS_Decoder.c.o
                0x0004514c                ARCOMMANDS_Decoder_SetJumpingSumoAnimationsJumpCb
 *fill*         0x0004516e        0x2 
 .text.ARCOMMANDS_Decoder_SetJumpingSumoAnimationsJumpCallback
                0x00045170       0x34 /home/ncs/CAPSTONE/out/arsdk-native/build/libARCommands/obj/gen/Sources/ARCOMMANDS_Decoder.c.o
                0x00045170                ARCOMMANDS_Decoder_SetJumpingSumoAnimationsJumpCallback
 .text.ARCOMMANDS_Decoder_SetJumpingSumoAnimationsSimpleAnimationCb
                0x000451a4       0x22 /home/ncs/CAPSTONE/out/arsdk-native/build/libARCommands/obj/gen/Sources/ARCOMMANDS_Decoder.c.o
                0x000451a4                ARCOMMANDS_Decoder_SetJumpingSumoAnimationsSimpleAnimationCb
 *fill*         0x000451c6        0x2 
 .text.ARCOMMANDS_Decoder_SetJumpingSumoAnimationsSimpleAnimationCallback
                0x000451c8       0x34 /home/ncs/CAPSTONE/out/arsdk-native/build/libARCommands/obj/gen/Sources/ARCOMMANDS_Decoder.c.o
                0x000451c8                ARCOMMANDS_Decoder_SetJumpingSumoAnimationsSimpleAnimationCallback
 .text.ARCOMMANDS_Decoder_SetJumpingSumoMediaRecordPictureCb
                0x000451fc       0x22 /home/ncs/CAPSTONE/out/arsdk-native/build/libARCommands/obj/gen/Sources/ARCOMMANDS_Decoder.c.o
                0x000451fc                ARCOMMANDS_Decoder_SetJumpingSumoMediaRecordPictureCb
 *fill*         0x0004521e        0x2 
 .text.ARCOMMANDS_Decoder_SetJumpingSumoMediaRecordPictureCallback
                0x00045220       0x34 /home/ncs/CAPSTONE/out/arsdk-native/build/libARCommands/obj/gen/Sources/ARCOMMANDS_Decoder.c.o
                0x00045220                ARCOMMANDS_Decoder_SetJumpingSumoMediaRecordPictureCallback
 .text.ARCOMMANDS_Decoder_SetJumpingSumoMediaRecordVideoCb
                0x00045254       0x22 /home/ncs/CAPSTONE/out/arsdk-native/build/libARCommands/obj/gen/Sources/ARCOMMANDS_Decoder.c.o
                0x00045254                ARCOMMANDS_Decoder_SetJumpingSumoMediaRecordVideoCb
 *fill*         0x00045276        0x2 
 .text.ARCOMMANDS_Decoder_SetJumpingSumoMediaRecordVideoCallback
                0x00045278       0x34 /home/ncs/CAPSTONE/out/arsdk-native/build/libARCommands/obj/gen/Sources/ARCOMMANDS_Decoder.c.o
                0x00045278                ARCOMMANDS_Decoder_SetJumpingSumoMediaRecordVideoCallback
 .text.ARCOMMANDS_Decoder_SetJumpingSumoMediaRecordPictureV2Cb
                0x000452ac       0x22 /home/ncs/CAPSTONE/out/arsdk-native/build/libARCommands/obj/gen/Sources/ARCOMMANDS_Decoder.c.o
                0x000452ac                ARCOMMANDS_Decoder_SetJumpingSumoMediaRecordPictureV2Cb
 *fill*         0x000452ce        0x2 
 .text.ARCOMMANDS_Decoder_SetJumpingSumoMediaRecordPictureV2Callback
                0x000452d0       0x34 /home/ncs/CAPSTONE/out/arsdk-native/build/libARCommands/obj/gen/Sources/ARCOMMANDS_Decoder.c.o
                0x000452d0                ARCOMMANDS_Decoder_SetJumpingSumoMediaRecordPictureV2Callback
 .text.ARCOMMANDS_Decoder_SetJumpingSumoMediaRecordVideoV2Cb
                0x00045304       0x22 /home/ncs/CAPSTONE/out/arsdk-native/build/libARCommands/obj/gen/Sources/ARCOMMANDS_Decoder.c.o
                0x00045304                ARCOMMANDS_Decoder_SetJumpingSumoMediaRecordVideoV2Cb
 *fill*         0x00045326        0x2 
 .text.ARCOMMANDS_Decoder_SetJumpingSumoMediaRecordVideoV2Callback
                0x00045328       0x34 /home/ncs/CAPSTONE/out/arsdk-native/build/libARCommands/obj/gen/Sources/ARCOMMANDS_Decoder.c.o
                0x00045328                ARCOMMANDS_Decoder_SetJumpingSumoMediaRecordVideoV2Callback
 .text.ARCOMMANDS_Decoder_SetJumpingSumoNetworkSettingsWifiSelectionCb
                0x0004535c       0x22 /home/ncs/CAPSTONE/out/arsdk-native/build/libARCommands/obj/gen/Sources/ARCOMMANDS_Decoder.c.o
                0x0004535c                ARCOMMANDS_Decoder_SetJumpingSumoNetworkSettingsWifiSelectionCb
 *fill*         0x0004537e        0x2 
 .text.ARCOMMANDS_Decoder_SetJumpingSumoNetworkSettingsWifiSelectionCallback
                0x00045380       0x34 /home/ncs/CAPSTONE/out/arsdk-native/build/libARCommands/obj/gen/Sources/ARCOMMANDS_Decoder.c.o
                0x00045380                ARCOMMANDS_Decoder_SetJumpingSumoNetworkSettingsWifiSelectionCallback
 .text.ARCOMMANDS_Decoder_SetJumpingSumoNetworkWifiScanCb
                0x000453b4       0x22 /home/ncs/CAPSTONE/out/arsdk-native/build/libARCommands/obj/gen/Sources/ARCOMMANDS_Decoder.c.o
                0x000453b4                ARCOMMANDS_Decoder_SetJumpingSumoNetworkWifiScanCb
 *fill*         0x000453d6        0x2 
 .text.ARCOMMANDS_Decoder_SetJumpingSumoNetworkWifiScanCallback
                0x000453d8       0x34 /home/ncs/CAPSTONE/out/arsdk-native/build/libARCommands/obj/gen/Sources/ARCOMMANDS_Decoder.c.o
                0x000453d8                ARCOMMANDS_Decoder_SetJumpingSumoNetworkWifiScanCallback
 .text.ARCOMMANDS_Decoder_SetJumpingSumoNetworkWifiAuthChannelCb
                0x0004540c       0x22 /home/ncs/CAPSTONE/out/arsdk-native/build/libARCommands/obj/gen/Sources/ARCOMMANDS_Decoder.c.o
                0x0004540c                ARCOMMANDS_Decoder_SetJumpingSumoNetworkWifiAuthChannelCb
 *fill*         0x0004542e        0x2 
 .text.ARCOMMANDS_Decoder_SetJumpingSumoNetworkWifiAuthChannelCallback
                0x00045430       0x34 /home/ncs/CAPSTONE/out/arsdk-native/build/libARCommands/obj/gen/Sources/ARCOMMANDS_Decoder.c.o
                0x00045430                ARCOMMANDS_Decoder_SetJumpingSumoNetworkWifiAuthChannelCallback
 .text.ARCOMMANDS_Decoder_SetJumpingSumoAudioSettingsMasterVolumeCb
                0x00045464       0x22 /home/ncs/CAPSTONE/out/arsdk-native/build/libARCommands/obj/gen/Sources/ARCOMMANDS_Decoder.c.o
                0x00045464                ARCOMMANDS_Decoder_SetJumpingSumoAudioSettingsMasterVolumeCb
 *fill*         0x00045486        0x2 
 .text.ARCOMMANDS_Decoder_SetJumpingSumoAudioSettingsMasterVolumeCallback
                0x00045488       0x34 /home/ncs/CAPSTONE/out/arsdk-native/build/libARCommands/obj/gen/Sources/ARCOMMANDS_Decoder.c.o
                0x00045488                ARCOMMANDS_Decoder_SetJumpingSumoAudioSettingsMasterVolumeCallback
 .text.ARCOMMANDS_Decoder_SetJumpingSumoAudioSettingsThemeCb
                0x000454bc       0x22 /home/ncs/CAPSTONE/out/arsdk-native/build/libARCommands/obj/gen/Sources/ARCOMMANDS_Decoder.c.o
                0x000454bc                ARCOMMANDS_Decoder_SetJumpingSumoAudioSettingsThemeCb
 *fill*         0x000454de        0x2 
 .text.ARCOMMANDS_Decoder_SetJumpingSumoAudioSettingsThemeCallback
                0x000454e0       0x34 /home/ncs/CAPSTONE/out/arsdk-native/build/libARCommands/obj/gen/Sources/ARCOMMANDS_Decoder.c.o
                0x000454e0                ARCOMMANDS_Decoder_SetJumpingSumoAudioSettingsThemeCallback
 .text.ARCOMMANDS_Decoder_SetJumpingSumoRoadPlanAllScriptsMetadataCb
                0x00045514       0x22 /home/ncs/CAPSTONE/out/arsdk-native/build/libARCommands/obj/gen/Sources/ARCOMMANDS_Decoder.c.o
                0x00045514                ARCOMMANDS_Decoder_SetJumpingSumoRoadPlanAllScriptsMetadataCb
 *fill*         0x00045536        0x2 
 .text.ARCOMMANDS_Decoder_SetJumpingSumoRoadPlanAllScriptsMetadataCallback
                0x00045538       0x34 /home/ncs/CAPSTONE/out/arsdk-native/build/libARCommands/obj/gen/Sources/ARCOMMANDS_Decoder.c.o
                0x00045538                ARCOMMANDS_Decoder_SetJumpingSumoRoadPlanAllScriptsMetadataCallback
 .text.ARCOMMANDS_Decoder_SetJumpingSumoRoadPlanScriptUploadedCb
                0x0004556c       0x22 /home/ncs/CAPSTONE/out/arsdk-native/build/libARCommands/obj/gen/Sources/ARCOMMANDS_Decoder.c.o
                0x0004556c                ARCOMMANDS_Decoder_SetJumpingSumoRoadPlanScriptUploadedCb
 *fill*         0x0004558e        0x2 
 .text.ARCOMMANDS_Decoder_SetJumpingSumoRoadPlanScriptUploadedCallback
                0x00045590       0x34 /home/ncs/CAPSTONE/out/arsdk-native/build/libARCommands/obj/gen/Sources/ARCOMMANDS_Decoder.c.o
                0x00045590                ARCOMMANDS_Decoder_SetJumpingSumoRoadPlanScriptUploadedCallback
 .text.ARCOMMANDS_Decoder_SetJumpingSumoRoadPlanScriptDeleteCb
                0x000455c4       0x22 /home/ncs/CAPSTONE/out/arsdk-native/build/libARCommands/obj/gen/Sources/ARCOMMANDS_Decoder.c.o
                0x000455c4                ARCOMMANDS_Decoder_SetJumpingSumoRoadPlanScriptDeleteCb
 *fill*         0x000455e6        0x2 
 .text.ARCOMMANDS_Decoder_SetJumpingSumoRoadPlanScriptDeleteCallback
                0x000455e8       0x34 /home/ncs/CAPSTONE/out/arsdk-native/build/libARCommands/obj/gen/Sources/ARCOMMANDS_Decoder.c.o
                0x000455e8                ARCOMMANDS_Decoder_SetJumpingSumoRoadPlanScriptDeleteCallback
 .text.ARCOMMANDS_Decoder_SetJumpingSumoRoadPlanPlayScriptCb
                0x0004561c       0x22 /home/ncs/CAPSTONE/out/arsdk-native/build/libARCommands/obj/gen/Sources/ARCOMMANDS_Decoder.c.o
                0x0004561c                ARCOMMANDS_Decoder_SetJumpingSumoRoadPlanPlayScriptCb
 *fill*         0x0004563e        0x2 
 .text.ARCOMMANDS_Decoder_SetJumpingSumoRoadPlanPlayScriptCallback
                0x00045640       0x34 /home/ncs/CAPSTONE/out/arsdk-native/build/libARCommands/obj/gen/Sources/ARCOMMANDS_Decoder.c.o
                0x00045640                ARCOMMANDS_Decoder_SetJumpingSumoRoadPlanPlayScriptCallback
 .text.ARCOMMANDS_Decoder_SetJumpingSumoSpeedSettingsOutdoorCb
                0x00045674       0x22 /home/ncs/CAPSTONE/out/arsdk-native/build/libARCommands/obj/gen/Sources/ARCOMMANDS_Decoder.c.o
                0x00045674                ARCOMMANDS_Decoder_SetJumpingSumoSpeedSettingsOutdoorCb
 *fill*         0x00045696        0x2 
 .text.ARCOMMANDS_Decoder_SetJumpingSumoSpeedSettingsOutdoorCallback
                0x00045698       0x34 /home/ncs/CAPSTONE/out/arsdk-native/build/libARCommands/obj/gen/Sources/ARCOMMANDS_Decoder.c.o
                0x00045698                ARCOMMANDS_Decoder_SetJumpingSumoSpeedSettingsOutdoorCallback
 .text.ARCOMMANDS_Decoder_SetJumpingSumoMediaStreamingVideoEnableCb
                0x000456cc       0x22 /home/ncs/CAPSTONE/out/arsdk-native/build/libARCommands/obj/gen/Sources/ARCOMMANDS_Decoder.c.o
                0x000456cc                ARCOMMANDS_Decoder_SetJumpingSumoMediaStreamingVideoEnableCb
 *fill*         0x000456ee        0x2 
 .text.ARCOMMANDS_Decoder_SetJumpingSumoMediaStreamingVideoEnableCallback
                0x000456f0       0x34 /home/ncs/CAPSTONE/out/arsdk-native/build/libARCommands/obj/gen/Sources/ARCOMMANDS_Decoder.c.o
                0x000456f0                ARCOMMANDS_Decoder_SetJumpingSumoMediaStreamingVideoEnableCallback
 .text.ARCOMMANDS_Decoder_SetJumpingSumoVideoSettingsAutorecordCb
                0x00045724       0x22 /home/ncs/CAPSTONE/out/arsdk-native/build/libARCommands/obj/gen/Sources/ARCOMMANDS_Decoder.c.o
                0x00045724                ARCOMMANDS_Decoder_SetJumpingSumoVideoSettingsAutorecordCb
 *fill*         0x00045746        0x2 
 .text.ARCOMMANDS_Decoder_SetJumpingSumoVideoSettingsAutorecordCallback
                0x00045748       0x34 /home/ncs/CAPSTONE/out/arsdk-native/build/libARCommands/obj/gen/Sources/ARCOMMANDS_Decoder.c.o
                0x00045748                ARCOMMANDS_Decoder_SetJumpingSumoVideoSettingsAutorecordCallback
 .text.ARCOMMANDS_Decoder_SetJumpingSumoPilotingStatePostureChangedCb
                0x0004577c       0x22 /home/ncs/CAPSTONE/out/arsdk-native/build/libARCommands/obj/gen/Sources/ARCOMMANDS_Decoder.c.o
                0x0004577c                ARCOMMANDS_Decoder_SetJumpingSumoPilotingStatePostureChangedCb
 *fill*         0x0004579e        0x2 
 .text.ARCOMMANDS_Decoder_SetJumpingSumoPilotingStatePostureChangedCallback
                0x000457a0       0x34 /home/ncs/CAPSTONE/out/arsdk-native/build/libARCommands/obj/gen/Sources/ARCOMMANDS_Decoder.c.o
                0x000457a0                ARCOMMANDS_Decoder_SetJumpingSumoPilotingStatePostureChangedCallback
 .text.ARCOMMANDS_Decoder_SetJumpingSumoPilotingStateAlertStateChangedCb
                0x000457d4       0x22 /home/ncs/CAPSTONE/out/arsdk-native/build/libARCommands/obj/gen/Sources/ARCOMMANDS_Decoder.c.o
                0x000457d4                ARCOMMANDS_Decoder_SetJumpingSumoPilotingStateAlertStateChangedCb
 *fill*         0x000457f6        0x2 
 .text.ARCOMMANDS_Decoder_SetJumpingSumoPilotingStateAlertStateChangedCallback
                0x000457f8       0x34 /home/ncs/CAPSTONE/out/arsdk-native/build/libARCommands/obj/gen/Sources/ARCOMMANDS_Decoder.c.o
                0x000457f8                ARCOMMANDS_Decoder_SetJumpingSumoPilotingStateAlertStateChangedCallback
 .text.ARCOMMANDS_Decoder_SetJumpingSumoPilotingStateSpeedChangedCb
                0x0004582c       0x22 /home/ncs/CAPSTONE/out/arsdk-native/build/libARCommands/obj/gen/Sources/ARCOMMANDS_Decoder.c.o
                0x0004582c                ARCOMMANDS_Decoder_SetJumpingSumoPilotingStateSpeedChangedCb
 *fill*         0x0004584e        0x2 
 .text.ARCOMMANDS_Decoder_SetJumpingSumoPilotingStateSpeedChangedCallback
                0x00045850       0x34 /home/ncs/CAPSTONE/out/arsdk-native/build/libARCommands/obj/gen/Sources/ARCOMMANDS_Decoder.c.o
                0x00045850                ARCOMMANDS_Decoder_SetJumpingSumoPilotingStateSpeedChangedCallback
 .text.ARCOMMANDS_Decoder_SetJumpingSumoAnimationsStateJumpLoadChangedCb
                0x00045884       0x22 /home/ncs/CAPSTONE/out/arsdk-native/build/libARCommands/obj/gen/Sources/ARCOMMANDS_Decoder.c.o
                0x00045884                ARCOMMANDS_Decoder_SetJumpingSumoAnimationsStateJumpLoadChangedCb
 *fill*         0x000458a6        0x2 
 .text.ARCOMMANDS_Decoder_SetJumpingSumoAnimationsStateJumpLoadChangedCallback
                0x000458a8       0x34 /home/ncs/CAPSTONE/out/arsdk-native/build/libARCommands/obj/gen/Sources/ARCOMMANDS_Decoder.c.o
                0x000458a8                ARCOMMANDS_Decoder_SetJumpingSumoAnimationsStateJumpLoadChangedCallback
 .text.ARCOMMANDS_Decoder_SetJumpingSumoAnimationsStateJumpTypeChangedCb
                0x000458dc       0x22 /home/ncs/CAPSTONE/out/arsdk-native/build/libARCommands/obj/gen/Sources/ARCOMMANDS_Decoder.c.o
                0x000458dc                ARCOMMANDS_Decoder_SetJumpingSumoAnimationsStateJumpTypeChangedCb
 *fill*         0x000458fe        0x2 
 .text.ARCOMMANDS_Decoder_SetJumpingSumoAnimationsStateJumpTypeChangedCallback
                0x00045900       0x34 /home/ncs/CAPSTONE/out/arsdk-native/build/libARCommands/obj/gen/Sources/ARCOMMANDS_Decoder.c.o
                0x00045900                ARCOMMANDS_Decoder_SetJumpingSumoAnimationsStateJumpTypeChangedCallback
 .text.ARCOMMANDS_Decoder_SetJumpingSumoAnimationsStateJumpMotorProblemChangedCb
                0x00045934       0x22 /home/ncs/CAPSTONE/out/arsdk-native/build/libARCommands/obj/gen/Sources/ARCOMMANDS_Decoder.c.o
                0x00045934                ARCOMMANDS_Decoder_SetJumpingSumoAnimationsStateJumpMotorProblemChangedCb
 *fill*         0x00045956        0x2 
 .text.ARCOMMANDS_Decoder_SetJumpingSumoAnimationsStateJumpMotorProblemChangedCallback
                0x00045958       0x34 /home/ncs/CAPSTONE/out/arsdk-native/build/libARCommands/obj/gen/Sources/ARCOMMANDS_Decoder.c.o
                0x00045958                ARCOMMANDS_Decoder_SetJumpingSumoAnimationsStateJumpMotorProblemChangedCallback
 .text.ARCOMMANDS_Decoder_SetJumpingSumoSettingsStateProductGPSVersionChangedCb
                0x0004598c       0x22 /home/ncs/CAPSTONE/out/arsdk-native/build/libARCommands/obj/gen/Sources/ARCOMMANDS_Decoder.c.o
                0x0004598c                ARCOMMANDS_Decoder_SetJumpingSumoSettingsStateProductGPSVersionChangedCb
 *fill*         0x000459ae        0x2 
 .text.ARCOMMANDS_Decoder_SetJumpingSumoSettingsStateProductGPSVersionChangedCallback
                0x000459b0       0x34 /home/ncs/CAPSTONE/out/arsdk-native/build/libARCommands/obj/gen/Sources/ARCOMMANDS_Decoder.c.o
                0x000459b0                ARCOMMANDS_Decoder_SetJumpingSumoSettingsStateProductGPSVersionChangedCallback
 .text.ARCOMMANDS_Decoder_SetJumpingSumoMediaRecordStatePictureStateChangedCb
                0x000459e4       0x22 /home/ncs/CAPSTONE/out/arsdk-native/build/libARCommands/obj/gen/Sources/ARCOMMANDS_Decoder.c.o
                0x000459e4                ARCOMMANDS_Decoder_SetJumpingSumoMediaRecordStatePictureStateChangedCb
 *fill*         0x00045a06        0x2 
 .text.ARCOMMANDS_Decoder_SetJumpingSumoMediaRecordStatePictureStateChangedCallback
                0x00045a08       0x34 /home/ncs/CAPSTONE/out/arsdk-native/build/libARCommands/obj/gen/Sources/ARCOMMANDS_Decoder.c.o
                0x00045a08                ARCOMMANDS_Decoder_SetJumpingSumoMediaRecordStatePictureStateChangedCallback
 .text.ARCOMMANDS_Decoder_SetJumpingSumoMediaRecordStateVideoStateChangedCb
                0x00045a3c       0x22 /home/ncs/CAPSTONE/out/arsdk-native/build/libARCommands/obj/gen/Sources/ARCOMMANDS_Decoder.c.o
                0x00045a3c                ARCOMMANDS_Decoder_SetJumpingSumoMediaRecordStateVideoStateChangedCb
 *fill*         0x00045a5e        0x2 
 .text.ARCOMMANDS_Decoder_SetJumpingSumoMediaRecordStateVideoStateChangedCallback
                0x00045a60       0x34 /home/ncs/CAPSTONE/out/arsdk-native/build/libARCommands/obj/gen/Sources/ARCOMMANDS_Decoder.c.o
                0x00045a60                ARCOMMANDS_Decoder_SetJumpingSumoMediaRecordStateVideoStateChangedCallback
 .text.ARCOMMANDS_Decoder_SetJumpingSumoMediaRecordStatePictureStateChangedV2Cb
                0x00045a94       0x22 /home/ncs/CAPSTONE/out/arsdk-native/build/libARCommands/obj/gen/Sources/ARCOMMANDS_Decoder.c.o
                0x00045a94                ARCOMMANDS_Decoder_SetJumpingSumoMediaRecordStatePictureStateChangedV2Cb
 *fill*         0x00045ab6        0x2 
 .text.ARCOMMANDS_Decoder_SetJumpingSumoMediaRecordStatePictureStateChangedV2Callback
                0x00045ab8       0x34 /home/ncs/CAPSTONE/out/arsdk-native/build/libARCommands/obj/gen/Sources/ARCOMMANDS_Decoder.c.o
                0x00045ab8                ARCOMMANDS_Decoder_SetJumpingSumoMediaRecordStatePictureStateChangedV2Callback
 .text.ARCOMMANDS_Decoder_SetJumpingSumoMediaRecordStateVideoStateChangedV2Cb
                0x00045aec       0x22 /home/ncs/CAPSTONE/out/arsdk-native/build/libARCommands/obj/gen/Sources/ARCOMMANDS_Decoder.c.o
                0x00045aec                ARCOMMANDS_Decoder_SetJumpingSumoMediaRecordStateVideoStateChangedV2Cb
 *fill*         0x00045b0e        0x2 
 .text.ARCOMMANDS_Decoder_SetJumpingSumoMediaRecordStateVideoStateChangedV2Callback
                0x00045b10       0x34 /home/ncs/CAPSTONE/out/arsdk-native/build/libARCommands/obj/gen/Sources/ARCOMMANDS_Decoder.c.o
                0x00045b10                ARCOMMANDS_Decoder_SetJumpingSumoMediaRecordStateVideoStateChangedV2Callback
 .text.ARCOMMANDS_Decoder_SetJumpingSumoMediaRecordEventPictureEventChangedCb
                0x00045b44       0x22 /home/ncs/CAPSTONE/out/arsdk-native/build/libARCommands/obj/gen/Sources/ARCOMMANDS_Decoder.c.o
                0x00045b44                ARCOMMANDS_Decoder_SetJumpingSumoMediaRecordEventPictureEventChangedCb
 *fill*         0x00045b66        0x2 
 .text.ARCOMMANDS_Decoder_SetJumpingSumoMediaRecordEventPictureEventChangedCallback
                0x00045b68       0x34 /home/ncs/CAPSTONE/out/arsdk-native/build/libARCommands/obj/gen/Sources/ARCOMMANDS_Decoder.c.o
                0x00045b68                ARCOMMANDS_Decoder_SetJumpingSumoMediaRecordEventPictureEventChangedCallback
 .text.ARCOMMANDS_Decoder_SetJumpingSumoMediaRecordEventVideoEventChangedCb
                0x00045b9c       0x22 /home/ncs/CAPSTONE/out/arsdk-native/build/libARCommands/obj/gen/Sources/ARCOMMANDS_Decoder.c.o
                0x00045b9c                ARCOMMANDS_Decoder_SetJumpingSumoMediaRecordEventVideoEventChangedCb
 *fill*         0x00045bbe        0x2 
 .text.ARCOMMANDS_Decoder_SetJumpingSumoMediaRecordEventVideoEventChangedCallback
                0x00045bc0       0x34 /home/ncs/CAPSTONE/out/arsdk-native/build/libARCommands/obj/gen/Sources/ARCOMMANDS_Decoder.c.o
                0x00045bc0                ARCOMMANDS_Decoder_SetJumpingSumoMediaRecordEventVideoEventChangedCallback
 .text.ARCOMMANDS_Decoder_SetJumpingSumoNetworkSettingsStateWifiSelectionChangedCb
                0x00045bf4       0x22 /home/ncs/CAPSTONE/out/arsdk-native/build/libARCommands/obj/gen/Sources/ARCOMMANDS_Decoder.c.o
                0x00045bf4                ARCOMMANDS_Decoder_SetJumpingSumoNetworkSettingsStateWifiSelectionChangedCb
 *fill*         0x00045c16        0x2 
 .text.ARCOMMANDS_Decoder_SetJumpingSumoNetworkSettingsStateWifiSelectionChangedCallback
                0x00045c18       0x34 /home/ncs/CAPSTONE/out/arsdk-native/build/libARCommands/obj/gen/Sources/ARCOMMANDS_Decoder.c.o
                0x00045c18                ARCOMMANDS_Decoder_SetJumpingSumoNetworkSettingsStateWifiSelectionChangedCallback
 .text.ARCOMMANDS_Decoder_SetJumpingSumoNetworkStateWifiScanListChangedCb
                0x00045c4c       0x22 /home/ncs/CAPSTONE/out/arsdk-native/build/libARCommands/obj/gen/Sources/ARCOMMANDS_Decoder.c.o
                0x00045c4c                ARCOMMANDS_Decoder_SetJumpingSumoNetworkStateWifiScanListChangedCb
 *fill*         0x00045c6e        0x2 
 .text.ARCOMMANDS_Decoder_SetJumpingSumoNetworkStateWifiScanListChangedCallback
                0x00045c70       0x34 /home/ncs/CAPSTONE/out/arsdk-native/build/libARCommands/obj/gen/Sources/ARCOMMANDS_Decoder.c.o
                0x00045c70                ARCOMMANDS_Decoder_SetJumpingSumoNetworkStateWifiScanListChangedCallback
 .text.ARCOMMANDS_Decoder_SetJumpingSumoNetworkStateAllWifiScanChangedCb
                0x00045ca4       0x22 /home/ncs/CAPSTONE/out/arsdk-native/build/libARCommands/obj/gen/Sources/ARCOMMANDS_Decoder.c.o
                0x00045ca4                ARCOMMANDS_Decoder_SetJumpingSumoNetworkStateAllWifiScanChangedCb
 *fill*         0x00045cc6        0x2 
 .text.ARCOMMANDS_Decoder_SetJumpingSumoNetworkStateAllWifiScanChangedCallback
                0x00045cc8       0x34 /home/ncs/CAPSTONE/out/arsdk-native/build/libARCommands/obj/gen/Sources/ARCOMMANDS_Decoder.c.o
                0x00045cc8                ARCOMMANDS_Decoder_SetJumpingSumoNetworkStateAllWifiScanChangedCallback
 .text.ARCOMMANDS_Decoder_SetJumpingSumoNetworkStateWifiAuthChannelListChangedCb
                0x00045cfc       0x22 /home/ncs/CAPSTONE/out/arsdk-native/build/libARCommands/obj/gen/Sources/ARCOMMANDS_Decoder.c.o
                0x00045cfc                ARCOMMANDS_Decoder_SetJumpingSumoNetworkStateWifiAuthChannelListChangedCb
 *fill*         0x00045d1e        0x2 
 .text.ARCOMMANDS_Decoder_SetJumpingSumoNetworkStateWifiAuthChannelListChangedCallback
                0x00045d20       0x34 /home/ncs/CAPSTONE/out/arsdk-native/build/libARCommands/obj/gen/Sources/ARCOMMANDS_Decoder.c.o
                0x00045d20                ARCOMMANDS_Decoder_SetJumpingSumoNetworkStateWifiAuthChannelListChangedCallback
 .text.ARCOMMANDS_Decoder_SetJumpingSumoNetworkStateAllWifiAuthChannelChangedCb
                0x00045d54       0x22 /home/ncs/CAPSTONE/out/arsdk-native/build/libARCommands/obj/gen/Sources/ARCOMMANDS_Decoder.c.o
                0x00045d54                ARCOMMANDS_Decoder_SetJumpingSumoNetworkStateAllWifiAuthChannelChangedCb
 *fill*         0x00045d76        0x2 
 .text.ARCOMMANDS_Decoder_SetJumpingSumoNetworkStateAllWifiAuthChannelChangedCallback
                0x00045d78       0x34 /home/ncs/CAPSTONE/out/arsdk-native/build/libARCommands/obj/gen/Sources/ARCOMMANDS_Decoder.c.o
                0x00045d78                ARCOMMANDS_Decoder_SetJumpingSumoNetworkStateAllWifiAuthChannelChangedCallback
 .text.ARCOMMANDS_Decoder_SetJumpingSumoNetworkStateLinkQualityChangedCb
                0x00045dac       0x22 /home/ncs/CAPSTONE/out/arsdk-native/build/libARCommands/obj/gen/Sources/ARCOMMANDS_Decoder.c.o
                0x00045dac                ARCOMMANDS_Decoder_SetJumpingSumoNetworkStateLinkQualityChangedCb
 *fill*         0x00045dce        0x2 
 .text.ARCOMMANDS_Decoder_SetJumpingSumoNetworkStateLinkQualityChangedCallback
                0x00045dd0       0x34 /home/ncs/CAPSTONE/out/arsdk-native/build/libARCommands/obj/gen/Sources/ARCOMMANDS_Decoder.c.o
                0x00045dd0                ARCOMMANDS_Decoder_SetJumpingSumoNetworkStateLinkQualityChangedCallback
 .text.ARCOMMANDS_Decoder_SetJumpingSumoAudioSettingsStateMasterVolumeChangedCb
                0x00045e04       0x22 /home/ncs/CAPSTONE/out/arsdk-native/build/libARCommands/obj/gen/Sources/ARCOMMANDS_Decoder.c.o
                0x00045e04                ARCOMMANDS_Decoder_SetJumpingSumoAudioSettingsStateMasterVolumeChangedCb
 *fill*         0x00045e26        0x2 
 .text.ARCOMMANDS_Decoder_SetJumpingSumoAudioSettingsStateMasterVolumeChangedCallback
                0x00045e28       0x34 /home/ncs/CAPSTONE/out/arsdk-native/build/libARCommands/obj/gen/Sources/ARCOMMANDS_Decoder.c.o
                0x00045e28                ARCOMMANDS_Decoder_SetJumpingSumoAudioSettingsStateMasterVolumeChangedCallback
 .text.ARCOMMANDS_Decoder_SetJumpingSumoAudioSettingsStateThemeChangedCb
                0x00045e5c       0x22 /home/ncs/CAPSTONE/out/arsdk-native/build/libARCommands/obj/gen/Sources/ARCOMMANDS_Decoder.c.o
                0x00045e5c                ARCOMMANDS_Decoder_SetJumpingSumoAudioSettingsStateThemeChangedCb
 *fill*         0x00045e7e        0x2 
 .text.ARCOMMANDS_Decoder_SetJumpingSumoAudioSettingsStateThemeChangedCallback
                0x00045e80       0x34 /home/ncs/CAPSTONE/out/arsdk-native/build/libARCommands/obj/gen/Sources/ARCOMMANDS_Decoder.c.o
                0x00045e80                ARCOMMANDS_Decoder_SetJumpingSumoAudioSettingsStateThemeChangedCallback
 .text.ARCOMMANDS_Decoder_SetJumpingSumoRoadPlanStateScriptMetadataListChangedCb
                0x00045eb4       0x22 /home/ncs/CAPSTONE/out/arsdk-native/build/libARCommands/obj/gen/Sources/ARCOMMANDS_Decoder.c.o
                0x00045eb4                ARCOMMANDS_Decoder_SetJumpingSumoRoadPlanStateScriptMetadataListChangedCb
 *fill*         0x00045ed6        0x2 
 .text.ARCOMMANDS_Decoder_SetJumpingSumoRoadPlanStateScriptMetadataListChangedCallback
                0x00045ed8       0x34 /home/ncs/CAPSTONE/out/arsdk-native/build/libARCommands/obj/gen/Sources/ARCOMMANDS_Decoder.c.o
                0x00045ed8                ARCOMMANDS_Decoder_SetJumpingSumoRoadPlanStateScriptMetadataListChangedCallback
 .text.ARCOMMANDS_Decoder_SetJumpingSumoRoadPlanStateAllScriptsMetadataChangedCb
                0x00045f0c       0x22 /home/ncs/CAPSTONE/out/arsdk-native/build/libARCommands/obj/gen/Sources/ARCOMMANDS_Decoder.c.o
                0x00045f0c                ARCOMMANDS_Decoder_SetJumpingSumoRoadPlanStateAllScriptsMetadataChangedCb
 *fill*         0x00045f2e        0x2 
 .text.ARCOMMANDS_Decoder_SetJumpingSumoRoadPlanStateAllScriptsMetadataChangedCallback
                0x00045f30       0x34 /home/ncs/CAPSTONE/out/arsdk-native/build/libARCommands/obj/gen/Sources/ARCOMMANDS_Decoder.c.o
                0x00045f30                ARCOMMANDS_Decoder_SetJumpingSumoRoadPlanStateAllScriptsMetadataChangedCallback
 .text.ARCOMMANDS_Decoder_SetJumpingSumoRoadPlanStateScriptUploadChangedCb
                0x00045f64       0x22 /home/ncs/CAPSTONE/out/arsdk-native/build/libARCommands/obj/gen/Sources/ARCOMMANDS_Decoder.c.o
                0x00045f64                ARCOMMANDS_Decoder_SetJumpingSumoRoadPlanStateScriptUploadChangedCb
 *fill*         0x00045f86        0x2 
 .text.ARCOMMANDS_Decoder_SetJumpingSumoRoadPlanStateScriptUploadChangedCallback
                0x00045f88       0x34 /home/ncs/CAPSTONE/out/arsdk-native/build/libARCommands/obj/gen/Sources/ARCOMMANDS_Decoder.c.o
                0x00045f88                ARCOMMANDS_Decoder_SetJumpingSumoRoadPlanStateScriptUploadChangedCallback
 .text.ARCOMMANDS_Decoder_SetJumpingSumoRoadPlanStateScriptDeleteChangedCb
                0x00045fbc       0x22 /home/ncs/CAPSTONE/out/arsdk-native/build/libARCommands/obj/gen/Sources/ARCOMMANDS_Decoder.c.o
                0x00045fbc                ARCOMMANDS_Decoder_SetJumpingSumoRoadPlanStateScriptDeleteChangedCb
 *fill*         0x00045fde        0x2 
 .text.ARCOMMANDS_Decoder_SetJumpingSumoRoadPlanStateScriptDeleteChangedCallback
                0x00045fe0       0x34 /home/ncs/CAPSTONE/out/arsdk-native/build/libARCommands/obj/gen/Sources/ARCOMMANDS_Decoder.c.o
                0x00045fe0                ARCOMMANDS_Decoder_SetJumpingSumoRoadPlanStateScriptDeleteChangedCallback
 .text.ARCOMMANDS_Decoder_SetJumpingSumoRoadPlanStatePlayScriptChangedCb
                0x00046014       0x22 /home/ncs/CAPSTONE/out/arsdk-native/build/libARCommands/obj/gen/Sources/ARCOMMANDS_Decoder.c.o
                0x00046014                ARCOMMANDS_Decoder_SetJumpingSumoRoadPlanStatePlayScriptChangedCb
 *fill*         0x00046036        0x2 
 .text.ARCOMMANDS_Decoder_SetJumpingSumoRoadPlanStatePlayScriptChangedCallback
                0x00046038       0x34 /home/ncs/CAPSTONE/out/arsdk-native/build/libARCommands/obj/gen/Sources/ARCOMMANDS_Decoder.c.o
                0x00046038                ARCOMMANDS_Decoder_SetJumpingSumoRoadPlanStatePlayScriptChangedCallback
 .text.ARCOMMANDS_Decoder_SetJumpingSumoSpeedSettingsStateOutdoorChangedCb
                0x0004606c       0x22 /home/ncs/CAPSTONE/out/arsdk-native/build/libARCommands/obj/gen/Sources/ARCOMMANDS_Decoder.c.o
                0x0004606c                ARCOMMANDS_Decoder_SetJumpingSumoSpeedSettingsStateOutdoorChangedCb
 *fill*         0x0004608e        0x2 
 .text.ARCOMMANDS_Decoder_SetJumpingSumoSpeedSettingsStateOutdoorChangedCallback
                0x00046090       0x34 /home/ncs/CAPSTONE/out/arsdk-native/build/libARCommands/obj/gen/Sources/ARCOMMANDS_Decoder.c.o
                0x00046090                ARCOMMANDS_Decoder_SetJumpingSumoSpeedSettingsStateOutdoorChangedCallback
 .text.ARCOMMANDS_Decoder_SetJumpingSumoMediaStreamingStateVideoEnableChangedCb
                0x000460c4       0x22 /home/ncs/CAPSTONE/out/arsdk-native/build/libARCommands/obj/gen/Sources/ARCOMMANDS_Decoder.c.o
                0x000460c4                ARCOMMANDS_Decoder_SetJumpingSumoMediaStreamingStateVideoEnableChangedCb
 *fill*         0x000460e6        0x2 
 .text.ARCOMMANDS_Decoder_SetJumpingSumoMediaStreamingStateVideoEnableChangedCallback
                0x000460e8       0x34 /home/ncs/CAPSTONE/out/arsdk-native/build/libARCommands/obj/gen/Sources/ARCOMMANDS_Decoder.c.o
                0x000460e8                ARCOMMANDS_Decoder_SetJumpingSumoMediaStreamingStateVideoEnableChangedCallback
 .text.ARCOMMANDS_Decoder_SetJumpingSumoVideoSettingsStateAutorecordChangedCb
                0x0004611c       0x22 /home/ncs/CAPSTONE/out/arsdk-native/build/libARCommands/obj/gen/Sources/ARCOMMANDS_Decoder.c.o
                0x0004611c                ARCOMMANDS_Decoder_SetJumpingSumoVideoSettingsStateAutorecordChangedCb
 *fill*         0x0004613e        0x2 
 .text.ARCOMMANDS_Decoder_SetJumpingSumoVideoSettingsStateAutorecordChangedCallback
                0x00046140       0x34 /home/ncs/CAPSTONE/out/arsdk-native/build/libARCommands/obj/gen/Sources/ARCOMMANDS_Decoder.c.o
                0x00046140                ARCOMMANDS_Decoder_SetJumpingSumoVideoSettingsStateAutorecordChangedCallback
 .text.ARCOMMANDS_Decoder_SetMapperGrabCb
                0x00046174       0x22 /home/ncs/CAPSTONE/out/arsdk-native/build/libARCommands/obj/gen/Sources/ARCOMMANDS_Decoder.c.o
                0x00046174                ARCOMMANDS_Decoder_SetMapperGrabCb
 *fill*         0x00046196        0x2 
 .text.ARCOMMANDS_Decoder_SetMapperGrabCallback
                0x00046198       0x34 /home/ncs/CAPSTONE/out/arsdk-native/build/libARCommands/obj/gen/Sources/ARCOMMANDS_Decoder.c.o
                0x00046198                ARCOMMANDS_Decoder_SetMapperGrabCallback
 .text.ARCOMMANDS_Decoder_SetMapperMapButtonActionCb
                0x000461cc       0x22 /home/ncs/CAPSTONE/out/arsdk-native/build/libARCommands/obj/gen/Sources/ARCOMMANDS_Decoder.c.o
                0x000461cc                ARCOMMANDS_Decoder_SetMapperMapButtonActionCb
 *fill*         0x000461ee        0x2 
 .text.ARCOMMANDS_Decoder_SetMapperMapButtonActionCallback
                0x000461f0       0x34 /home/ncs/CAPSTONE/out/arsdk-native/build/libARCommands/obj/gen/Sources/ARCOMMANDS_Decoder.c.o
                0x000461f0                ARCOMMANDS_Decoder_SetMapperMapButtonActionCallback
 .text.ARCOMMANDS_Decoder_SetMapperMapAxisActionCb
                0x00046224       0x22 /home/ncs/CAPSTONE/out/arsdk-native/build/libARCommands/obj/gen/Sources/ARCOMMANDS_Decoder.c.o
                0x00046224                ARCOMMANDS_Decoder_SetMapperMapAxisActionCb
 *fill*         0x00046246        0x2 
 .text.ARCOMMANDS_Decoder_SetMapperMapAxisActionCallback
                0x00046248       0x34 /home/ncs/CAPSTONE/out/arsdk-native/build/libARCommands/obj/gen/Sources/ARCOMMANDS_Decoder.c.o
                0x00046248                ARCOMMANDS_Decoder_SetMapperMapAxisActionCallback
 .text.ARCOMMANDS_Decoder_SetMapperResetMappingCb
                0x0004627c       0x22 /home/ncs/CAPSTONE/out/arsdk-native/build/libARCommands/obj/gen/Sources/ARCOMMANDS_Decoder.c.o
                0x0004627c                ARCOMMANDS_Decoder_SetMapperResetMappingCb
 *fill*         0x0004629e        0x2 
 .text.ARCOMMANDS_Decoder_SetMapperResetMappingCallback
                0x000462a0       0x34 /home/ncs/CAPSTONE/out/arsdk-native/build/libARCommands/obj/gen/Sources/ARCOMMANDS_Decoder.c.o
                0x000462a0                ARCOMMANDS_Decoder_SetMapperResetMappingCallback
 .text.ARCOMMANDS_Decoder_SetMapperSetExpoCb
                0x000462d4       0x22 /home/ncs/CAPSTONE/out/arsdk-native/build/libARCommands/obj/gen/Sources/ARCOMMANDS_Decoder.c.o
                0x000462d4                ARCOMMANDS_Decoder_SetMapperSetExpoCb
 *fill*         0x000462f6        0x2 
 .text.ARCOMMANDS_Decoder_SetMapperSetExpoCallback
                0x000462f8       0x34 /home/ncs/CAPSTONE/out/arsdk-native/build/libARCommands/obj/gen/Sources/ARCOMMANDS_Decoder.c.o
                0x000462f8                ARCOMMANDS_Decoder_SetMapperSetExpoCallback
 .text.ARCOMMANDS_Decoder_SetMapperSetInvertedCb
                0x0004632c       0x22 /home/ncs/CAPSTONE/out/arsdk-native/build/libARCommands/obj/gen/Sources/ARCOMMANDS_Decoder.c.o
                0x0004632c                ARCOMMANDS_Decoder_SetMapperSetInvertedCb
 *fill*         0x0004634e        0x2 
 .text.ARCOMMANDS_Decoder_SetMapperSetInvertedCallback
                0x00046350       0x34 /home/ncs/CAPSTONE/out/arsdk-native/build/libARCommands/obj/gen/Sources/ARCOMMANDS_Decoder.c.o
                0x00046350                ARCOMMANDS_Decoder_SetMapperSetInvertedCallback
 .text.ARCOMMANDS_Decoder_SetMapperGrabStateCb
                0x00046384       0x22 /home/ncs/CAPSTONE/out/arsdk-native/build/libARCommands/obj/gen/Sources/ARCOMMANDS_Decoder.c.o
                0x00046384                ARCOMMANDS_Decoder_SetMapperGrabStateCb
 *fill*         0x000463a6        0x2 
 .text.ARCOMMANDS_Decoder_SetMapperGrabStateCallback
                0x000463a8       0x34 /home/ncs/CAPSTONE/out/arsdk-native/build/libARCommands/obj/gen/Sources/ARCOMMANDS_Decoder.c.o
                0x000463a8                ARCOMMANDS_Decoder_SetMapperGrabStateCallback
 .text.ARCOMMANDS_Decoder_SetMapperGrabButtonEventCb
                0x000463dc       0x22 /home/ncs/CAPSTONE/out/arsdk-native/build/libARCommands/obj/gen/Sources/ARCOMMANDS_Decoder.c.o
                0x000463dc                ARCOMMANDS_Decoder_SetMapperGrabButtonEventCb
 *fill*         0x000463fe        0x2 
 .text.ARCOMMANDS_Decoder_SetMapperGrabButtonEventCallback
                0x00046400       0x34 /home/ncs/CAPSTONE/out/arsdk-native/build/libARCommands/obj/gen/Sources/ARCOMMANDS_Decoder.c.o
                0x00046400                ARCOMMANDS_Decoder_SetMapperGrabButtonEventCallback
 .text.ARCOMMANDS_Decoder_SetMapperGrabAxisEventCb
                0x00046434       0x22 /home/ncs/CAPSTONE/out/arsdk-native/build/libARCommands/obj/gen/Sources/ARCOMMANDS_Decoder.c.o
                0x00046434                ARCOMMANDS_Decoder_SetMapperGrabAxisEventCb
 *fill*         0x00046456        0x2 
 .text.ARCOMMANDS_Decoder_SetMapperGrabAxisEventCallback
                0x00046458       0x34 /home/ncs/CAPSTONE/out/arsdk-native/build/libARCommands/obj/gen/Sources/ARCOMMANDS_Decoder.c.o
                0x00046458                ARCOMMANDS_Decoder_SetMapperGrabAxisEventCallback
 .text.ARCOMMANDS_Decoder_SetMapperButtonMappingItemCb
                0x0004648c       0x22 /home/ncs/CAPSTONE/out/arsdk-native/build/libARCommands/obj/gen/Sources/ARCOMMANDS_Decoder.c.o
                0x0004648c                ARCOMMANDS_Decoder_SetMapperButtonMappingItemCb
 *fill*         0x000464ae        0x2 
 .text.ARCOMMANDS_Decoder_SetMapperButtonMappingItemCallback
                0x000464b0       0x34 /home/ncs/CAPSTONE/out/arsdk-native/build/libARCommands/obj/gen/Sources/ARCOMMANDS_Decoder.c.o
                0x000464b0                ARCOMMANDS_Decoder_SetMapperButtonMappingItemCallback
 .text.ARCOMMANDS_Decoder_SetMapperAxisMappingItemCb
                0x000464e4       0x22 /home/ncs/CAPSTONE/out/arsdk-native/build/libARCommands/obj/gen/Sources/ARCOMMANDS_Decoder.c.o
                0x000464e4                ARCOMMANDS_Decoder_SetMapperAxisMappingItemCb
 *fill*         0x00046506        0x2 
 .text.ARCOMMANDS_Decoder_SetMapperAxisMappingItemCallback
                0x00046508       0x34 /home/ncs/CAPSTONE/out/arsdk-native/build/libARCommands/obj/gen/Sources/ARCOMMANDS_Decoder.c.o
                0x00046508                ARCOMMANDS_Decoder_SetMapperAxisMappingItemCallback
 .text.ARCOMMANDS_Decoder_SetMapperApplicationAxisEventCb
                0x0004653c       0x22 /home/ncs/CAPSTONE/out/arsdk-native/build/libARCommands/obj/gen/Sources/ARCOMMANDS_Decoder.c.o
                0x0004653c                ARCOMMANDS_Decoder_SetMapperApplicationAxisEventCb
 *fill*         0x0004655e        0x2 
 .text.ARCOMMANDS_Decoder_SetMapperApplicationAxisEventCallback
                0x00046560       0x34 /home/ncs/CAPSTONE/out/arsdk-native/build/libARCommands/obj/gen/Sources/ARCOMMANDS_Decoder.c.o
                0x00046560                ARCOMMANDS_Decoder_SetMapperApplicationAxisEventCallback
 .text.ARCOMMANDS_Decoder_SetMapperApplicationButtonEventCb
                0x00046594       0x22 /home/ncs/CAPSTONE/out/arsdk-native/build/libARCommands/obj/gen/Sources/ARCOMMANDS_Decoder.c.o
                0x00046594                ARCOMMANDS_Decoder_SetMapperApplicationButtonEventCb
 *fill*         0x000465b6        0x2 
 .text.ARCOMMANDS_Decoder_SetMapperApplicationButtonEventCallback
                0x000465b8       0x34 /home/ncs/CAPSTONE/out/arsdk-native/build/libARCommands/obj/gen/Sources/ARCOMMANDS_Decoder.c.o
                0x000465b8                ARCOMMANDS_Decoder_SetMapperApplicationButtonEventCallback
 .text.ARCOMMANDS_Decoder_SetMapperExpoMapItemCb
                0x000465ec       0x22 /home/ncs/CAPSTONE/out/arsdk-native/build/libARCommands/obj/gen/Sources/ARCOMMANDS_Decoder.c.o
                0x000465ec                ARCOMMANDS_Decoder_SetMapperExpoMapItemCb
 *fill*         0x0004660e        0x2 
 .text.ARCOMMANDS_Decoder_SetMapperExpoMapItemCallback
                0x00046610       0x34 /home/ncs/CAPSTONE/out/arsdk-native/build/libARCommands/obj/gen/Sources/ARCOMMANDS_Decoder.c.o
                0x00046610                ARCOMMANDS_Decoder_SetMapperExpoMapItemCallback
 .text.ARCOMMANDS_Decoder_SetMapperInvertedMapItemCb
                0x00046644       0x22 /home/ncs/CAPSTONE/out/arsdk-native/build/libARCommands/obj/gen/Sources/ARCOMMANDS_Decoder.c.o
                0x00046644                ARCOMMANDS_Decoder_SetMapperInvertedMapItemCb
 *fill*         0x00046666        0x2 
 .text.ARCOMMANDS_Decoder_SetMapperInvertedMapItemCallback
                0x00046668       0x34 /home/ncs/CAPSTONE/out/arsdk-native/build/libARCommands/obj/gen/Sources/ARCOMMANDS_Decoder.c.o
                0x00046668                ARCOMMANDS_Decoder_SetMapperInvertedMapItemCallback
 .text.ARCOMMANDS_Decoder_SetMiniDronePilotingFlatTrimCb
                0x0004669c       0x22 /home/ncs/CAPSTONE/out/arsdk-native/build/libARCommands/obj/gen/Sources/ARCOMMANDS_Decoder.c.o
                0x0004669c                ARCOMMANDS_Decoder_SetMiniDronePilotingFlatTrimCb
 *fill*         0x000466be        0x2 
 .text.ARCOMMANDS_Decoder_SetMiniDronePilotingFlatTrimCallback
                0x000466c0       0x34 /home/ncs/CAPSTONE/out/arsdk-native/build/libARCommands/obj/gen/Sources/ARCOMMANDS_Decoder.c.o
                0x000466c0                ARCOMMANDS_Decoder_SetMiniDronePilotingFlatTrimCallback
 .text.ARCOMMANDS_Decoder_SetMiniDronePilotingTakeOffCb
                0x000466f4       0x22 /home/ncs/CAPSTONE/out/arsdk-native/build/libARCommands/obj/gen/Sources/ARCOMMANDS_Decoder.c.o
                0x000466f4                ARCOMMANDS_Decoder_SetMiniDronePilotingTakeOffCb
 *fill*         0x00046716        0x2 
 .text.ARCOMMANDS_Decoder_SetMiniDronePilotingTakeOffCallback
                0x00046718       0x34 /home/ncs/CAPSTONE/out/arsdk-native/build/libARCommands/obj/gen/Sources/ARCOMMANDS_Decoder.c.o
                0x00046718                ARCOMMANDS_Decoder_SetMiniDronePilotingTakeOffCallback
 .text.ARCOMMANDS_Decoder_SetMiniDronePilotingPCMDCb
                0x0004674c       0x22 /home/ncs/CAPSTONE/out/arsdk-native/build/libARCommands/obj/gen/Sources/ARCOMMANDS_Decoder.c.o
                0x0004674c                ARCOMMANDS_Decoder_SetMiniDronePilotingPCMDCb
 *fill*         0x0004676e        0x2 
 .text.ARCOMMANDS_Decoder_SetMiniDronePilotingPCMDCallback
                0x00046770       0x34 /home/ncs/CAPSTONE/out/arsdk-native/build/libARCommands/obj/gen/Sources/ARCOMMANDS_Decoder.c.o
                0x00046770                ARCOMMANDS_Decoder_SetMiniDronePilotingPCMDCallback
 .text.ARCOMMANDS_Decoder_SetMiniDronePilotingLandingCb
                0x000467a4       0x22 /home/ncs/CAPSTONE/out/arsdk-native/build/libARCommands/obj/gen/Sources/ARCOMMANDS_Decoder.c.o
                0x000467a4                ARCOMMANDS_Decoder_SetMiniDronePilotingLandingCb
 *fill*         0x000467c6        0x2 
 .text.ARCOMMANDS_Decoder_SetMiniDronePilotingLandingCallback
                0x000467c8       0x34 /home/ncs/CAPSTONE/out/arsdk-native/build/libARCommands/obj/gen/Sources/ARCOMMANDS_Decoder.c.o
                0x000467c8                ARCOMMANDS_Decoder_SetMiniDronePilotingLandingCallback
 .text.ARCOMMANDS_Decoder_SetMiniDronePilotingEmergencyCb
                0x000467fc       0x22 /home/ncs/CAPSTONE/out/arsdk-native/build/libARCommands/obj/gen/Sources/ARCOMMANDS_Decoder.c.o
                0x000467fc                ARCOMMANDS_Decoder_SetMiniDronePilotingEmergencyCb
 *fill*         0x0004681e        0x2 
 .text.ARCOMMANDS_Decoder_SetMiniDronePilotingEmergencyCallback
                0x00046820       0x34 /home/ncs/CAPSTONE/out/arsdk-native/build/libARCommands/obj/gen/Sources/ARCOMMANDS_Decoder.c.o
                0x00046820                ARCOMMANDS_Decoder_SetMiniDronePilotingEmergencyCallback
 .text.ARCOMMANDS_Decoder_SetMiniDronePilotingAutoTakeOffModeCb
                0x00046854       0x22 /home/ncs/CAPSTONE/out/arsdk-native/build/libARCommands/obj/gen/Sources/ARCOMMANDS_Decoder.c.o
                0x00046854                ARCOMMANDS_Decoder_SetMiniDronePilotingAutoTakeOffModeCb
 *fill*         0x00046876        0x2 
 .text.ARCOMMANDS_Decoder_SetMiniDronePilotingAutoTakeOffModeCallback
                0x00046878       0x34 /home/ncs/CAPSTONE/out/arsdk-native/build/libARCommands/obj/gen/Sources/ARCOMMANDS_Decoder.c.o
                0x00046878                ARCOMMANDS_Decoder_SetMiniDronePilotingAutoTakeOffModeCallback
 .text.ARCOMMANDS_Decoder_SetMiniDronePilotingFlyingModeCb
                0x000468ac       0x22 /home/ncs/CAPSTONE/out/arsdk-native/build/libARCommands/obj/gen/Sources/ARCOMMANDS_Decoder.c.o
                0x000468ac                ARCOMMANDS_Decoder_SetMiniDronePilotingFlyingModeCb
 *fill*         0x000468ce        0x2 
 .text.ARCOMMANDS_Decoder_SetMiniDronePilotingFlyingModeCallback
                0x000468d0       0x34 /home/ncs/CAPSTONE/out/arsdk-native/build/libARCommands/obj/gen/Sources/ARCOMMANDS_Decoder.c.o
                0x000468d0                ARCOMMANDS_Decoder_SetMiniDronePilotingFlyingModeCallback
 .text.ARCOMMANDS_Decoder_SetMiniDronePilotingPlaneGearBoxCb
                0x00046904       0x22 /home/ncs/CAPSTONE/out/arsdk-native/build/libARCommands/obj/gen/Sources/ARCOMMANDS_Decoder.c.o
                0x00046904                ARCOMMANDS_Decoder_SetMiniDronePilotingPlaneGearBoxCb
 *fill*         0x00046926        0x2 
 .text.ARCOMMANDS_Decoder_SetMiniDronePilotingPlaneGearBoxCallback
                0x00046928       0x34 /home/ncs/CAPSTONE/out/arsdk-native/build/libARCommands/obj/gen/Sources/ARCOMMANDS_Decoder.c.o
                0x00046928                ARCOMMANDS_Decoder_SetMiniDronePilotingPlaneGearBoxCallback
 .text.ARCOMMANDS_Decoder_SetMiniDroneAnimationsFlipCb
                0x0004695c       0x22 /home/ncs/CAPSTONE/out/arsdk-native/build/libARCommands/obj/gen/Sources/ARCOMMANDS_Decoder.c.o
                0x0004695c                ARCOMMANDS_Decoder_SetMiniDroneAnimationsFlipCb
 *fill*         0x0004697e        0x2 
 .text.ARCOMMANDS_Decoder_SetMiniDroneAnimationsFlipCallback
                0x00046980       0x34 /home/ncs/CAPSTONE/out/arsdk-native/build/libARCommands/obj/gen/Sources/ARCOMMANDS_Decoder.c.o
                0x00046980                ARCOMMANDS_Decoder_SetMiniDroneAnimationsFlipCallback
 .text.ARCOMMANDS_Decoder_SetMiniDroneAnimationsCapCb
                0x000469b4       0x22 /home/ncs/CAPSTONE/out/arsdk-native/build/libARCommands/obj/gen/Sources/ARCOMMANDS_Decoder.c.o
                0x000469b4                ARCOMMANDS_Decoder_SetMiniDroneAnimationsCapCb
 *fill*         0x000469d6        0x2 
 .text.ARCOMMANDS_Decoder_SetMiniDroneAnimationsCapCallback
                0x000469d8       0x34 /home/ncs/CAPSTONE/out/arsdk-native/build/libARCommands/obj/gen/Sources/ARCOMMANDS_Decoder.c.o
                0x000469d8                ARCOMMANDS_Decoder_SetMiniDroneAnimationsCapCallback
 .text.ARCOMMANDS_Decoder_SetMiniDroneMediaRecordPictureCb
                0x00046a0c       0x22 /home/ncs/CAPSTONE/out/arsdk-native/build/libARCommands/obj/gen/Sources/ARCOMMANDS_Decoder.c.o
                0x00046a0c                ARCOMMANDS_Decoder_SetMiniDroneMediaRecordPictureCb
 *fill*         0x00046a2e        0x2 
 .text.ARCOMMANDS_Decoder_SetMiniDroneMediaRecordPictureCallback
                0x00046a30       0x34 /home/ncs/CAPSTONE/out/arsdk-native/build/libARCommands/obj/gen/Sources/ARCOMMANDS_Decoder.c.o
                0x00046a30                ARCOMMANDS_Decoder_SetMiniDroneMediaRecordPictureCallback
 .text.ARCOMMANDS_Decoder_SetMiniDroneMediaRecordPictureV2Cb
                0x00046a64       0x22 /home/ncs/CAPSTONE/out/arsdk-native/build/libARCommands/obj/gen/Sources/ARCOMMANDS_Decoder.c.o
                0x00046a64                ARCOMMANDS_Decoder_SetMiniDroneMediaRecordPictureV2Cb
 *fill*         0x00046a86        0x2 
 .text.ARCOMMANDS_Decoder_SetMiniDroneMediaRecordPictureV2Callback
                0x00046a88       0x34 /home/ncs/CAPSTONE/out/arsdk-native/build/libARCommands/obj/gen/Sources/ARCOMMANDS_Decoder.c.o
                0x00046a88                ARCOMMANDS_Decoder_SetMiniDroneMediaRecordPictureV2Callback
 .text.ARCOMMANDS_Decoder_SetMiniDronePilotingSettingsMaxAltitudeCb
                0x00046abc       0x22 /home/ncs/CAPSTONE/out/arsdk-native/build/libARCommands/obj/gen/Sources/ARCOMMANDS_Decoder.c.o
                0x00046abc                ARCOMMANDS_Decoder_SetMiniDronePilotingSettingsMaxAltitudeCb
 *fill*         0x00046ade        0x2 
 .text.ARCOMMANDS_Decoder_SetMiniDronePilotingSettingsMaxAltitudeCallback
                0x00046ae0       0x34 /home/ncs/CAPSTONE/out/arsdk-native/build/libARCommands/obj/gen/Sources/ARCOMMANDS_Decoder.c.o
                0x00046ae0                ARCOMMANDS_Decoder_SetMiniDronePilotingSettingsMaxAltitudeCallback
 .text.ARCOMMANDS_Decoder_SetMiniDronePilotingSettingsMaxTiltCb
                0x00046b14       0x22 /home/ncs/CAPSTONE/out/arsdk-native/build/libARCommands/obj/gen/Sources/ARCOMMANDS_Decoder.c.o
                0x00046b14                ARCOMMANDS_Decoder_SetMiniDronePilotingSettingsMaxTiltCb
 *fill*         0x00046b36        0x2 
 .text.ARCOMMANDS_Decoder_SetMiniDronePilotingSettingsMaxTiltCallback
                0x00046b38       0x34 /home/ncs/CAPSTONE/out/arsdk-native/build/libARCommands/obj/gen/Sources/ARCOMMANDS_Decoder.c.o
                0x00046b38                ARCOMMANDS_Decoder_SetMiniDronePilotingSettingsMaxTiltCallback
 .text.ARCOMMANDS_Decoder_SetMiniDronePilotingSettingsPlaneModePitchCb
                0x00046b6c       0x22 /home/ncs/CAPSTONE/out/arsdk-native/build/libARCommands/obj/gen/Sources/ARCOMMANDS_Decoder.c.o
                0x00046b6c                ARCOMMANDS_Decoder_SetMiniDronePilotingSettingsPlaneModePitchCb
 *fill*         0x00046b8e        0x2 
 .text.ARCOMMANDS_Decoder_SetMiniDronePilotingSettingsPlaneModePitchCallback
                0x00046b90       0x34 /home/ncs/CAPSTONE/out/arsdk-native/build/libARCommands/obj/gen/Sources/ARCOMMANDS_Decoder.c.o
                0x00046b90                ARCOMMANDS_Decoder_SetMiniDronePilotingSettingsPlaneModePitchCallback
 .text.ARCOMMANDS_Decoder_SetMiniDroneSpeedSettingsMaxVerticalSpeedCb
                0x00046bc4       0x22 /home/ncs/CAPSTONE/out/arsdk-native/build/libARCommands/obj/gen/Sources/ARCOMMANDS_Decoder.c.o
                0x00046bc4                ARCOMMANDS_Decoder_SetMiniDroneSpeedSettingsMaxVerticalSpeedCb
 *fill*         0x00046be6        0x2 
 .text.ARCOMMANDS_Decoder_SetMiniDroneSpeedSettingsMaxVerticalSpeedCallback
                0x00046be8       0x34 /home/ncs/CAPSTONE/out/arsdk-native/build/libARCommands/obj/gen/Sources/ARCOMMANDS_Decoder.c.o
                0x00046be8                ARCOMMANDS_Decoder_SetMiniDroneSpeedSettingsMaxVerticalSpeedCallback
 .text.ARCOMMANDS_Decoder_SetMiniDroneSpeedSettingsMaxRotationSpeedCb
                0x00046c1c       0x22 /home/ncs/CAPSTONE/out/arsdk-native/build/libARCommands/obj/gen/Sources/ARCOMMANDS_Decoder.c.o
                0x00046c1c                ARCOMMANDS_Decoder_SetMiniDroneSpeedSettingsMaxRotationSpeedCb
 *fill*         0x00046c3e        0x2 
 .text.ARCOMMANDS_Decoder_SetMiniDroneSpeedSettingsMaxRotationSpeedCallback
                0x00046c40       0x34 /home/ncs/CAPSTONE/out/arsdk-native/build/libARCommands/obj/gen/Sources/ARCOMMANDS_Decoder.c.o
                0x00046c40                ARCOMMANDS_Decoder_SetMiniDroneSpeedSettingsMaxRotationSpeedCallback
 .text.ARCOMMANDS_Decoder_SetMiniDroneSpeedSettingsWheelsCb
                0x00046c74       0x22 /home/ncs/CAPSTONE/out/arsdk-native/build/libARCommands/obj/gen/Sources/ARCOMMANDS_Decoder.c.o
                0x00046c74                ARCOMMANDS_Decoder_SetMiniDroneSpeedSettingsWheelsCb
 *fill*         0x00046c96        0x2 
 .text.ARCOMMANDS_Decoder_SetMiniDroneSpeedSettingsWheelsCallback
                0x00046c98       0x34 /home/ncs/CAPSTONE/out/arsdk-native/build/libARCommands/obj/gen/Sources/ARCOMMANDS_Decoder.c.o
                0x00046c98                ARCOMMANDS_Decoder_SetMiniDroneSpeedSettingsWheelsCallback
 .text.ARCOMMANDS_Decoder_SetMiniDroneSpeedSettingsMaxHorizontalSpeedCb
                0x00046ccc       0x22 /home/ncs/CAPSTONE/out/arsdk-native/build/libARCommands/obj/gen/Sources/ARCOMMANDS_Decoder.c.o
                0x00046ccc                ARCOMMANDS_Decoder_SetMiniDroneSpeedSettingsMaxHorizontalSpeedCb
 *fill*         0x00046cee        0x2 
 .text.ARCOMMANDS_Decoder_SetMiniDroneSpeedSettingsMaxHorizontalSpeedCallback
                0x00046cf0       0x34 /home/ncs/CAPSTONE/out/arsdk-native/build/libARCommands/obj/gen/Sources/ARCOMMANDS_Decoder.c.o
                0x00046cf0                ARCOMMANDS_Decoder_SetMiniDroneSpeedSettingsMaxHorizontalSpeedCallback
 .text.ARCOMMANDS_Decoder_SetMiniDroneSpeedSettingsMaxPlaneModeRotationSpeedCb
                0x00046d24       0x22 /home/ncs/CAPSTONE/out/arsdk-native/build/libARCommands/obj/gen/Sources/ARCOMMANDS_Decoder.c.o
                0x00046d24                ARCOMMANDS_Decoder_SetMiniDroneSpeedSettingsMaxPlaneModeRotationSpeedCb
 *fill*         0x00046d46        0x2 
 .text.ARCOMMANDS_Decoder_SetMiniDroneSpeedSettingsMaxPlaneModeRotationSpeedCallback
                0x00046d48       0x34 /home/ncs/CAPSTONE/out/arsdk-native/build/libARCommands/obj/gen/Sources/ARCOMMANDS_Decoder.c.o
                0x00046d48                ARCOMMANDS_Decoder_SetMiniDroneSpeedSettingsMaxPlaneModeRotationSpeedCallback
 .text.ARCOMMANDS_Decoder_SetMiniDroneSettingsCutOutModeCb
                0x00046d7c       0x22 /home/ncs/CAPSTONE/out/arsdk-native/build/libARCommands/obj/gen/Sources/ARCOMMANDS_Decoder.c.o
                0x00046d7c                ARCOMMANDS_Decoder_SetMiniDroneSettingsCutOutModeCb
 *fill*         0x00046d9e        0x2 
 .text.ARCOMMANDS_Decoder_SetMiniDroneSettingsCutOutModeCallback
                0x00046da0       0x34 /home/ncs/CAPSTONE/out/arsdk-native/build/libARCommands/obj/gen/Sources/ARCOMMANDS_Decoder.c.o
                0x00046da0                ARCOMMANDS_Decoder_SetMiniDroneSettingsCutOutModeCallback
 .text.ARCOMMANDS_Decoder_SetMiniDroneGPSControllerLatitudeForRunCb
                0x00046dd4       0x22 /home/ncs/CAPSTONE/out/arsdk-native/build/libARCommands/obj/gen/Sources/ARCOMMANDS_Decoder.c.o
                0x00046dd4                ARCOMMANDS_Decoder_SetMiniDroneGPSControllerLatitudeForRunCb
 *fill*         0x00046df6        0x2 
 .text.ARCOMMANDS_Decoder_SetMiniDroneGPSControllerLatitudeForRunCallback
                0x00046df8       0x34 /home/ncs/CAPSTONE/out/arsdk-native/build/libARCommands/obj/gen/Sources/ARCOMMANDS_Decoder.c.o
                0x00046df8                ARCOMMANDS_Decoder_SetMiniDroneGPSControllerLatitudeForRunCallback
 .text.ARCOMMANDS_Decoder_SetMiniDroneGPSControllerLongitudeForRunCb
                0x00046e2c       0x22 /home/ncs/CAPSTONE/out/arsdk-native/build/libARCommands/obj/gen/Sources/ARCOMMANDS_Decoder.c.o
                0x00046e2c                ARCOMMANDS_Decoder_SetMiniDroneGPSControllerLongitudeForRunCb
 *fill*         0x00046e4e        0x2 
 .text.ARCOMMANDS_Decoder_SetMiniDroneGPSControllerLongitudeForRunCallback
                0x00046e50       0x34 /home/ncs/CAPSTONE/out/arsdk-native/build/libARCommands/obj/gen/Sources/ARCOMMANDS_Decoder.c.o
                0x00046e50                ARCOMMANDS_Decoder_SetMiniDroneGPSControllerLongitudeForRunCallback
 .text.ARCOMMANDS_Decoder_SetMiniDroneConfigurationControllerTypeCb
                0x00046e84       0x22 /home/ncs/CAPSTONE/out/arsdk-native/build/libARCommands/obj/gen/Sources/ARCOMMANDS_Decoder.c.o
                0x00046e84                ARCOMMANDS_Decoder_SetMiniDroneConfigurationControllerTypeCb
 *fill*         0x00046ea6        0x2 
 .text.ARCOMMANDS_Decoder_SetMiniDroneConfigurationControllerTypeCallback
                0x00046ea8       0x34 /home/ncs/CAPSTONE/out/arsdk-native/build/libARCommands/obj/gen/Sources/ARCOMMANDS_Decoder.c.o
                0x00046ea8                ARCOMMANDS_Decoder_SetMiniDroneConfigurationControllerTypeCallback
 .text.ARCOMMANDS_Decoder_SetMiniDroneConfigurationControllerNameCb
                0x00046edc       0x22 /home/ncs/CAPSTONE/out/arsdk-native/build/libARCommands/obj/gen/Sources/ARCOMMANDS_Decoder.c.o
                0x00046edc                ARCOMMANDS_Decoder_SetMiniDroneConfigurationControllerNameCb
 *fill*         0x00046efe        0x2 
 .text.ARCOMMANDS_Decoder_SetMiniDroneConfigurationControllerNameCallback
                0x00046f00       0x34 /home/ncs/CAPSTONE/out/arsdk-native/build/libARCommands/obj/gen/Sources/ARCOMMANDS_Decoder.c.o
                0x00046f00                ARCOMMANDS_Decoder_SetMiniDroneConfigurationControllerNameCallback
 .text.ARCOMMANDS_Decoder_SetMiniDroneUsbAccessoryLightControlCb
                0x00046f34       0x22 /home/ncs/CAPSTONE/out/arsdk-native/build/libARCommands/obj/gen/Sources/ARCOMMANDS_Decoder.c.o
                0x00046f34                ARCOMMANDS_Decoder_SetMiniDroneUsbAccessoryLightControlCb
 *fill*         0x00046f56        0x2 
 .text.ARCOMMANDS_Decoder_SetMiniDroneUsbAccessoryLightControlCallback
                0x00046f58       0x34 /home/ncs/CAPSTONE/out/arsdk-native/build/libARCommands/obj/gen/Sources/ARCOMMANDS_Decoder.c.o
                0x00046f58                ARCOMMANDS_Decoder_SetMiniDroneUsbAccessoryLightControlCallback
 .text.ARCOMMANDS_Decoder_SetMiniDroneUsbAccessoryClawControlCb
                0x00046f8c       0x22 /home/ncs/CAPSTONE/out/arsdk-native/build/libARCommands/obj/gen/Sources/ARCOMMANDS_Decoder.c.o
                0x00046f8c                ARCOMMANDS_Decoder_SetMiniDroneUsbAccessoryClawControlCb
 *fill*         0x00046fae        0x2 
 .text.ARCOMMANDS_Decoder_SetMiniDroneUsbAccessoryClawControlCallback
                0x00046fb0       0x34 /home/ncs/CAPSTONE/out/arsdk-native/build/libARCommands/obj/gen/Sources/ARCOMMANDS_Decoder.c.o
                0x00046fb0                ARCOMMANDS_Decoder_SetMiniDroneUsbAccessoryClawControlCallback
 .text.ARCOMMANDS_Decoder_SetMiniDroneUsbAccessoryGunControlCb
                0x00046fe4       0x22 /home/ncs/CAPSTONE/out/arsdk-native/build/libARCommands/obj/gen/Sources/ARCOMMANDS_Decoder.c.o
                0x00046fe4                ARCOMMANDS_Decoder_SetMiniDroneUsbAccessoryGunControlCb
 *fill*         0x00047006        0x2 
 .text.ARCOMMANDS_Decoder_SetMiniDroneUsbAccessoryGunControlCallback
                0x00047008       0x34 /home/ncs/CAPSTONE/out/arsdk-native/build/libARCommands/obj/gen/Sources/ARCOMMANDS_Decoder.c.o
                0x00047008                ARCOMMANDS_Decoder_SetMiniDroneUsbAccessoryGunControlCallback
 .text.ARCOMMANDS_Decoder_SetMiniDroneRemoteControllerSetPairedRemoteCb
                0x0004703c       0x22 /home/ncs/CAPSTONE/out/arsdk-native/build/libARCommands/obj/gen/Sources/ARCOMMANDS_Decoder.c.o
                0x0004703c                ARCOMMANDS_Decoder_SetMiniDroneRemoteControllerSetPairedRemoteCb
 *fill*         0x0004705e        0x2 
 .text.ARCOMMANDS_Decoder_SetMiniDroneRemoteControllerSetPairedRemoteCallback
                0x00047060       0x34 /home/ncs/CAPSTONE/out/arsdk-native/build/libARCommands/obj/gen/Sources/ARCOMMANDS_Decoder.c.o
                0x00047060                ARCOMMANDS_Decoder_SetMiniDroneRemoteControllerSetPairedRemoteCallback
 .text.ARCOMMANDS_Decoder_SetMiniDronePilotingStateFlatTrimChangedCb
                0x00047094       0x22 /home/ncs/CAPSTONE/out/arsdk-native/build/libARCommands/obj/gen/Sources/ARCOMMANDS_Decoder.c.o
                0x00047094                ARCOMMANDS_Decoder_SetMiniDronePilotingStateFlatTrimChangedCb
 *fill*         0x000470b6        0x2 
 .text.ARCOMMANDS_Decoder_SetMiniDronePilotingStateFlatTrimChangedCallback
                0x000470b8       0x34 /home/ncs/CAPSTONE/out/arsdk-native/build/libARCommands/obj/gen/Sources/ARCOMMANDS_Decoder.c.o
                0x000470b8                ARCOMMANDS_Decoder_SetMiniDronePilotingStateFlatTrimChangedCallback
 .text.ARCOMMANDS_Decoder_SetMiniDronePilotingStateFlyingStateChangedCb
                0x000470ec       0x22 /home/ncs/CAPSTONE/out/arsdk-native/build/libARCommands/obj/gen/Sources/ARCOMMANDS_Decoder.c.o
                0x000470ec                ARCOMMANDS_Decoder_SetMiniDronePilotingStateFlyingStateChangedCb
 *fill*         0x0004710e        0x2 
 .text.ARCOMMANDS_Decoder_SetMiniDronePilotingStateFlyingStateChangedCallback
                0x00047110       0x34 /home/ncs/CAPSTONE/out/arsdk-native/build/libARCommands/obj/gen/Sources/ARCOMMANDS_Decoder.c.o
                0x00047110                ARCOMMANDS_Decoder_SetMiniDronePilotingStateFlyingStateChangedCallback
 .text.ARCOMMANDS_Decoder_SetMiniDronePilotingStateAlertStateChangedCb
                0x00047144       0x22 /home/ncs/CAPSTONE/out/arsdk-native/build/libARCommands/obj/gen/Sources/ARCOMMANDS_Decoder.c.o
                0x00047144                ARCOMMANDS_Decoder_SetMiniDronePilotingStateAlertStateChangedCb
 *fill*         0x00047166        0x2 
 .text.ARCOMMANDS_Decoder_SetMiniDronePilotingStateAlertStateChangedCallback
                0x00047168       0x34 /home/ncs/CAPSTONE/out/arsdk-native/build/libARCommands/obj/gen/Sources/ARCOMMANDS_Decoder.c.o
                0x00047168                ARCOMMANDS_Decoder_SetMiniDronePilotingStateAlertStateChangedCallback
 .text.ARCOMMANDS_Decoder_SetMiniDronePilotingStateAutoTakeOffModeChangedCb
                0x0004719c       0x22 /home/ncs/CAPSTONE/out/arsdk-native/build/libARCommands/obj/gen/Sources/ARCOMMANDS_Decoder.c.o
                0x0004719c                ARCOMMANDS_Decoder_SetMiniDronePilotingStateAutoTakeOffModeChangedCb
 *fill*         0x000471be        0x2 
 .text.ARCOMMANDS_Decoder_SetMiniDronePilotingStateAutoTakeOffModeChangedCallback
                0x000471c0       0x34 /home/ncs/CAPSTONE/out/arsdk-native/build/libARCommands/obj/gen/Sources/ARCOMMANDS_Decoder.c.o
                0x000471c0                ARCOMMANDS_Decoder_SetMiniDronePilotingStateAutoTakeOffModeChangedCallback
 .text.ARCOMMANDS_Decoder_SetMiniDronePilotingStateFlyingModeChangedCb
                0x000471f4       0x22 /home/ncs/CAPSTONE/out/arsdk-native/build/libARCommands/obj/gen/Sources/ARCOMMANDS_Decoder.c.o
                0x000471f4                ARCOMMANDS_Decoder_SetMiniDronePilotingStateFlyingModeChangedCb
 *fill*         0x00047216        0x2 
 .text.ARCOMMANDS_Decoder_SetMiniDronePilotingStateFlyingModeChangedCallback
                0x00047218       0x34 /home/ncs/CAPSTONE/out/arsdk-native/build/libARCommands/obj/gen/Sources/ARCOMMANDS_Decoder.c.o
                0x00047218                ARCOMMANDS_Decoder_SetMiniDronePilotingStateFlyingModeChangedCallback
 .text.ARCOMMANDS_Decoder_SetMiniDronePilotingStatePlaneGearBoxChangedCb
                0x0004724c       0x22 /home/ncs/CAPSTONE/out/arsdk-native/build/libARCommands/obj/gen/Sources/ARCOMMANDS_Decoder.c.o
                0x0004724c                ARCOMMANDS_Decoder_SetMiniDronePilotingStatePlaneGearBoxChangedCb
 *fill*         0x0004726e        0x2 
 .text.ARCOMMANDS_Decoder_SetMiniDronePilotingStatePlaneGearBoxChangedCallback
                0x00047270       0x34 /home/ncs/CAPSTONE/out/arsdk-native/build/libARCommands/obj/gen/Sources/ARCOMMANDS_Decoder.c.o
                0x00047270                ARCOMMANDS_Decoder_SetMiniDronePilotingStatePlaneGearBoxChangedCallback
 .text.ARCOMMANDS_Decoder_SetMiniDroneMediaRecordStatePictureStateChangedCb
                0x000472a4       0x22 /home/ncs/CAPSTONE/out/arsdk-native/build/libARCommands/obj/gen/Sources/ARCOMMANDS_Decoder.c.o
                0x000472a4                ARCOMMANDS_Decoder_SetMiniDroneMediaRecordStatePictureStateChangedCb
 *fill*         0x000472c6        0x2 
 .text.ARCOMMANDS_Decoder_SetMiniDroneMediaRecordStatePictureStateChangedCallback
                0x000472c8       0x34 /home/ncs/CAPSTONE/out/arsdk-native/build/libARCommands/obj/gen/Sources/ARCOMMANDS_Decoder.c.o
                0x000472c8                ARCOMMANDS_Decoder_SetMiniDroneMediaRecordStatePictureStateChangedCallback
 .text.ARCOMMANDS_Decoder_SetMiniDroneMediaRecordStatePictureStateChangedV2Cb
                0x000472fc       0x22 /home/ncs/CAPSTONE/out/arsdk-native/build/libARCommands/obj/gen/Sources/ARCOMMANDS_Decoder.c.o
                0x000472fc                ARCOMMANDS_Decoder_SetMiniDroneMediaRecordStatePictureStateChangedV2Cb
 *fill*         0x0004731e        0x2 
 .text.ARCOMMANDS_Decoder_SetMiniDroneMediaRecordStatePictureStateChangedV2Callback
                0x00047320       0x34 /home/ncs/CAPSTONE/out/arsdk-native/build/libARCommands/obj/gen/Sources/ARCOMMANDS_Decoder.c.o
                0x00047320                ARCOMMANDS_Decoder_SetMiniDroneMediaRecordStatePictureStateChangedV2Callback
 .text.ARCOMMANDS_Decoder_SetMiniDroneMediaRecordEventPictureEventChangedCb
                0x00047354       0x22 /home/ncs/CAPSTONE/out/arsdk-native/build/libARCommands/obj/gen/Sources/ARCOMMANDS_Decoder.c.o
                0x00047354                ARCOMMANDS_Decoder_SetMiniDroneMediaRecordEventPictureEventChangedCb
 *fill*         0x00047376        0x2 
 .text.ARCOMMANDS_Decoder_SetMiniDroneMediaRecordEventPictureEventChangedCallback
                0x00047378       0x34 /home/ncs/CAPSTONE/out/arsdk-native/build/libARCommands/obj/gen/Sources/ARCOMMANDS_Decoder.c.o
                0x00047378                ARCOMMANDS_Decoder_SetMiniDroneMediaRecordEventPictureEventChangedCallback
 .text.ARCOMMANDS_Decoder_SetMiniDronePilotingSettingsStateMaxAltitudeChangedCb
                0x000473ac       0x22 /home/ncs/CAPSTONE/out/arsdk-native/build/libARCommands/obj/gen/Sources/ARCOMMANDS_Decoder.c.o
                0x000473ac                ARCOMMANDS_Decoder_SetMiniDronePilotingSettingsStateMaxAltitudeChangedCb
 *fill*         0x000473ce        0x2 
 .text.ARCOMMANDS_Decoder_SetMiniDronePilotingSettingsStateMaxAltitudeChangedCallback
                0x000473d0       0x34 /home/ncs/CAPSTONE/out/arsdk-native/build/libARCommands/obj/gen/Sources/ARCOMMANDS_Decoder.c.o
                0x000473d0                ARCOMMANDS_Decoder_SetMiniDronePilotingSettingsStateMaxAltitudeChangedCallback
 .text.ARCOMMANDS_Decoder_SetMiniDronePilotingSettingsStateMaxTiltChangedCb
                0x00047404       0x22 /home/ncs/CAPSTONE/out/arsdk-native/build/libARCommands/obj/gen/Sources/ARCOMMANDS_Decoder.c.o
                0x00047404                ARCOMMANDS_Decoder_SetMiniDronePilotingSettingsStateMaxTiltChangedCb
 *fill*         0x00047426        0x2 
 .text.ARCOMMANDS_Decoder_SetMiniDronePilotingSettingsStateMaxTiltChangedCallback
                0x00047428       0x34 /home/ncs/CAPSTONE/out/arsdk-native/build/libARCommands/obj/gen/Sources/ARCOMMANDS_Decoder.c.o
                0x00047428                ARCOMMANDS_Decoder_SetMiniDronePilotingSettingsStateMaxTiltChangedCallback
 .text.ARCOMMANDS_Decoder_SetMiniDronePilotingSettingsStatePlaneModePitchChangedCb
                0x0004745c       0x22 /home/ncs/CAPSTONE/out/arsdk-native/build/libARCommands/obj/gen/Sources/ARCOMMANDS_Decoder.c.o
                0x0004745c                ARCOMMANDS_Decoder_SetMiniDronePilotingSettingsStatePlaneModePitchChangedCb
 *fill*         0x0004747e        0x2 
 .text.ARCOMMANDS_Decoder_SetMiniDronePilotingSettingsStatePlaneModePitchChangedCallback
                0x00047480       0x34 /home/ncs/CAPSTONE/out/arsdk-native/build/libARCommands/obj/gen/Sources/ARCOMMANDS_Decoder.c.o
                0x00047480                ARCOMMANDS_Decoder_SetMiniDronePilotingSettingsStatePlaneModePitchChangedCallback
 .text.ARCOMMANDS_Decoder_SetMiniDroneSpeedSettingsStateMaxVerticalSpeedChangedCb
                0x000474b4       0x22 /home/ncs/CAPSTONE/out/arsdk-native/build/libARCommands/obj/gen/Sources/ARCOMMANDS_Decoder.c.o
                0x000474b4                ARCOMMANDS_Decoder_SetMiniDroneSpeedSettingsStateMaxVerticalSpeedChangedCb
 *fill*         0x000474d6        0x2 
 .text.ARCOMMANDS_Decoder_SetMiniDroneSpeedSettingsStateMaxVerticalSpeedChangedCallback
                0x000474d8       0x34 /home/ncs/CAPSTONE/out/arsdk-native/build/libARCommands/obj/gen/Sources/ARCOMMANDS_Decoder.c.o
                0x000474d8                ARCOMMANDS_Decoder_SetMiniDroneSpeedSettingsStateMaxVerticalSpeedChangedCallback
 .text.ARCOMMANDS_Decoder_SetMiniDroneSpeedSettingsStateMaxRotationSpeedChangedCb
                0x0004750c       0x22 /home/ncs/CAPSTONE/out/arsdk-native/build/libARCommands/obj/gen/Sources/ARCOMMANDS_Decoder.c.o
                0x0004750c                ARCOMMANDS_Decoder_SetMiniDroneSpeedSettingsStateMaxRotationSpeedChangedCb
 *fill*         0x0004752e        0x2 
 .text.ARCOMMANDS_Decoder_SetMiniDroneSpeedSettingsStateMaxRotationSpeedChangedCallback
                0x00047530       0x34 /home/ncs/CAPSTONE/out/arsdk-native/build/libARCommands/obj/gen/Sources/ARCOMMANDS_Decoder.c.o
                0x00047530                ARCOMMANDS_Decoder_SetMiniDroneSpeedSettingsStateMaxRotationSpeedChangedCallback
 .text.ARCOMMANDS_Decoder_SetMiniDroneSpeedSettingsStateWheelsChangedCb
                0x00047564       0x22 /home/ncs/CAPSTONE/out/arsdk-native/build/libARCommands/obj/gen/Sources/ARCOMMANDS_Decoder.c.o
                0x00047564                ARCOMMANDS_Decoder_SetMiniDroneSpeedSettingsStateWheelsChangedCb
 *fill*         0x00047586        0x2 
 .text.ARCOMMANDS_Decoder_SetMiniDroneSpeedSettingsStateWheelsChangedCallback
                0x00047588       0x34 /home/ncs/CAPSTONE/out/arsdk-native/build/libARCommands/obj/gen/Sources/ARCOMMANDS_Decoder.c.o
                0x00047588                ARCOMMANDS_Decoder_SetMiniDroneSpeedSettingsStateWheelsChangedCallback
 .text.ARCOMMANDS_Decoder_SetMiniDroneSpeedSettingsStateMaxHorizontalSpeedChangedCb
                0x000475bc       0x22 /home/ncs/CAPSTONE/out/arsdk-native/build/libARCommands/obj/gen/Sources/ARCOMMANDS_Decoder.c.o
                0x000475bc                ARCOMMANDS_Decoder_SetMiniDroneSpeedSettingsStateMaxHorizontalSpeedChangedCb
 *fill*         0x000475de        0x2 
 .text.ARCOMMANDS_Decoder_SetMiniDroneSpeedSettingsStateMaxHorizontalSpeedChangedCallback
                0x000475e0       0x34 /home/ncs/CAPSTONE/out/arsdk-native/build/libARCommands/obj/gen/Sources/ARCOMMANDS_Decoder.c.o
                0x000475e0                ARCOMMANDS_Decoder_SetMiniDroneSpeedSettingsStateMaxHorizontalSpeedChangedCallback
 .text.ARCOMMANDS_Decoder_SetMiniDroneSpeedSettingsStateMaxPlaneModeRotationSpeedChangedCb
                0x00047614       0x22 /home/ncs/CAPSTONE/out/arsdk-native/build/libARCommands/obj/gen/Sources/ARCOMMANDS_Decoder.c.o
                0x00047614                ARCOMMANDS_Decoder_SetMiniDroneSpeedSettingsStateMaxPlaneModeRotationSpeedChangedCb
 *fill*         0x00047636        0x2 
 .text.ARCOMMANDS_Decoder_SetMiniDroneSpeedSettingsStateMaxPlaneModeRotationSpeedChangedCallback
                0x00047638       0x34 /home/ncs/CAPSTONE/out/arsdk-native/build/libARCommands/obj/gen/Sources/ARCOMMANDS_Decoder.c.o
                0x00047638                ARCOMMANDS_Decoder_SetMiniDroneSpeedSettingsStateMaxPlaneModeRotationSpeedChangedCallback
 .text.ARCOMMANDS_Decoder_SetMiniDroneSettingsStateProductMotorsVersionChangedCb
                0x0004766c       0x22 /home/ncs/CAPSTONE/out/arsdk-native/build/libARCommands/obj/gen/Sources/ARCOMMANDS_Decoder.c.o
                0x0004766c                ARCOMMANDS_Decoder_SetMiniDroneSettingsStateProductMotorsVersionChangedCb
 *fill*         0x0004768e        0x2 
 .text.ARCOMMANDS_Decoder_SetMiniDroneSettingsStateProductMotorsVersionChangedCallback
                0x00047690       0x34 /home/ncs/CAPSTONE/out/arsdk-native/build/libARCommands/obj/gen/Sources/ARCOMMANDS_Decoder.c.o
                0x00047690                ARCOMMANDS_Decoder_SetMiniDroneSettingsStateProductMotorsVersionChangedCallback
 .text.ARCOMMANDS_Decoder_SetMiniDroneSettingsStateProductInertialVersionChangedCb
                0x000476c4       0x22 /home/ncs/CAPSTONE/out/arsdk-native/build/libARCommands/obj/gen/Sources/ARCOMMANDS_Decoder.c.o
                0x000476c4                ARCOMMANDS_Decoder_SetMiniDroneSettingsStateProductInertialVersionChangedCb
 *fill*         0x000476e6        0x2 
 .text.ARCOMMANDS_Decoder_SetMiniDroneSettingsStateProductInertialVersionChangedCallback
                0x000476e8       0x34 /home/ncs/CAPSTONE/out/arsdk-native/build/libARCommands/obj/gen/Sources/ARCOMMANDS_Decoder.c.o
                0x000476e8                ARCOMMANDS_Decoder_SetMiniDroneSettingsStateProductInertialVersionChangedCallback
 .text.ARCOMMANDS_Decoder_SetMiniDroneSettingsStateCutOutModeChangedCb
                0x0004771c       0x22 /home/ncs/CAPSTONE/out/arsdk-native/build/libARCommands/obj/gen/Sources/ARCOMMANDS_Decoder.c.o
                0x0004771c                ARCOMMANDS_Decoder_SetMiniDroneSettingsStateCutOutModeChangedCb
 *fill*         0x0004773e        0x2 
 .text.ARCOMMANDS_Decoder_SetMiniDroneSettingsStateCutOutModeChangedCallback
                0x00047740       0x34 /home/ncs/CAPSTONE/out/arsdk-native/build/libARCommands/obj/gen/Sources/ARCOMMANDS_Decoder.c.o
                0x00047740                ARCOMMANDS_Decoder_SetMiniDroneSettingsStateCutOutModeChangedCallback
 .text.ARCOMMANDS_Decoder_SetMiniDroneFloodControlStateFloodControlChangedCb
                0x00047774       0x22 /home/ncs/CAPSTONE/out/arsdk-native/build/libARCommands/obj/gen/Sources/ARCOMMANDS_Decoder.c.o
                0x00047774                ARCOMMANDS_Decoder_SetMiniDroneFloodControlStateFloodControlChangedCb
 *fill*         0x00047796        0x2 
 .text.ARCOMMANDS_Decoder_SetMiniDroneFloodControlStateFloodControlChangedCallback
                0x00047798       0x34 /home/ncs/CAPSTONE/out/arsdk-native/build/libARCommands/obj/gen/Sources/ARCOMMANDS_Decoder.c.o
                0x00047798                ARCOMMANDS_Decoder_SetMiniDroneFloodControlStateFloodControlChangedCallback
 .text.ARCOMMANDS_Decoder_SetMiniDroneUsbAccessoryStateLightStateCb
                0x000477cc       0x22 /home/ncs/CAPSTONE/out/arsdk-native/build/libARCommands/obj/gen/Sources/ARCOMMANDS_Decoder.c.o
                0x000477cc                ARCOMMANDS_Decoder_SetMiniDroneUsbAccessoryStateLightStateCb
 *fill*         0x000477ee        0x2 
 .text.ARCOMMANDS_Decoder_SetMiniDroneUsbAccessoryStateLightStateCallback
                0x000477f0       0x34 /home/ncs/CAPSTONE/out/arsdk-native/build/libARCommands/obj/gen/Sources/ARCOMMANDS_Decoder.c.o
                0x000477f0                ARCOMMANDS_Decoder_SetMiniDroneUsbAccessoryStateLightStateCallback
 .text.ARCOMMANDS_Decoder_SetMiniDroneUsbAccessoryStateClawStateCb
                0x00047824       0x22 /home/ncs/CAPSTONE/out/arsdk-native/build/libARCommands/obj/gen/Sources/ARCOMMANDS_Decoder.c.o
                0x00047824                ARCOMMANDS_Decoder_SetMiniDroneUsbAccessoryStateClawStateCb
 *fill*         0x00047846        0x2 
 .text.ARCOMMANDS_Decoder_SetMiniDroneUsbAccessoryStateClawStateCallback
                0x00047848       0x34 /home/ncs/CAPSTONE/out/arsdk-native/build/libARCommands/obj/gen/Sources/ARCOMMANDS_Decoder.c.o
                0x00047848                ARCOMMANDS_Decoder_SetMiniDroneUsbAccessoryStateClawStateCallback
 .text.ARCOMMANDS_Decoder_SetMiniDroneUsbAccessoryStateGunStateCb
                0x0004787c       0x22 /home/ncs/CAPSTONE/out/arsdk-native/build/libARCommands/obj/gen/Sources/ARCOMMANDS_Decoder.c.o
                0x0004787c                ARCOMMANDS_Decoder_SetMiniDroneUsbAccessoryStateGunStateCb
 *fill*         0x0004789e        0x2 
 .text.ARCOMMANDS_Decoder_SetMiniDroneUsbAccessoryStateGunStateCallback
                0x000478a0       0x34 /home/ncs/CAPSTONE/out/arsdk-native/build/libARCommands/obj/gen/Sources/ARCOMMANDS_Decoder.c.o
                0x000478a0                ARCOMMANDS_Decoder_SetMiniDroneUsbAccessoryStateGunStateCallback
 .text.ARCOMMANDS_Decoder_SetMiniDroneNavigationDataStateDronePositionCb
                0x000478d4       0x22 /home/ncs/CAPSTONE/out/arsdk-native/build/libARCommands/obj/gen/Sources/ARCOMMANDS_Decoder.c.o
                0x000478d4                ARCOMMANDS_Decoder_SetMiniDroneNavigationDataStateDronePositionCb
 *fill*         0x000478f6        0x2 
 .text.ARCOMMANDS_Decoder_SetMiniDroneNavigationDataStateDronePositionCallback
                0x000478f8       0x34 /home/ncs/CAPSTONE/out/arsdk-native/build/libARCommands/obj/gen/Sources/ARCOMMANDS_Decoder.c.o
                0x000478f8                ARCOMMANDS_Decoder_SetMiniDroneNavigationDataStateDronePositionCallback
 .text.ARCOMMANDS_Decoder_SetPowerupPilotingPCMDCb
                0x0004792c       0x22 /home/ncs/CAPSTONE/out/arsdk-native/build/libARCommands/obj/gen/Sources/ARCOMMANDS_Decoder.c.o
                0x0004792c                ARCOMMANDS_Decoder_SetPowerupPilotingPCMDCb
 *fill*         0x0004794e        0x2 
 .text.ARCOMMANDS_Decoder_SetPowerupPilotingPCMDCallback
                0x00047950       0x34 /home/ncs/CAPSTONE/out/arsdk-native/build/libARCommands/obj/gen/Sources/ARCOMMANDS_Decoder.c.o
                0x00047950                ARCOMMANDS_Decoder_SetPowerupPilotingPCMDCallback
 .text.ARCOMMANDS_Decoder_SetPowerupPilotingUserTakeOffCb
                0x00047984       0x22 /home/ncs/CAPSTONE/out/arsdk-native/build/libARCommands/obj/gen/Sources/ARCOMMANDS_Decoder.c.o
                0x00047984                ARCOMMANDS_Decoder_SetPowerupPilotingUserTakeOffCb
 *fill*         0x000479a6        0x2 
 .text.ARCOMMANDS_Decoder_SetPowerupPilotingUserTakeOffCallback
                0x000479a8       0x34 /home/ncs/CAPSTONE/out/arsdk-native/build/libARCommands/obj/gen/Sources/ARCOMMANDS_Decoder.c.o
                0x000479a8                ARCOMMANDS_Decoder_SetPowerupPilotingUserTakeOffCallback
 .text.ARCOMMANDS_Decoder_SetPowerupPilotingMotorModeCb
                0x000479dc       0x22 /home/ncs/CAPSTONE/out/arsdk-native/build/libARCommands/obj/gen/Sources/ARCOMMANDS_Decoder.c.o
                0x000479dc                ARCOMMANDS_Decoder_SetPowerupPilotingMotorModeCb
 *fill*         0x000479fe        0x2 
 .text.ARCOMMANDS_Decoder_SetPowerupPilotingMotorModeCallback
                0x00047a00       0x34 /home/ncs/CAPSTONE/out/arsdk-native/build/libARCommands/obj/gen/Sources/ARCOMMANDS_Decoder.c.o
                0x00047a00                ARCOMMANDS_Decoder_SetPowerupPilotingMotorModeCallback
 .text.ARCOMMANDS_Decoder_SetPowerupPilotingSettingsSetCb
                0x00047a34       0x22 /home/ncs/CAPSTONE/out/arsdk-native/build/libARCommands/obj/gen/Sources/ARCOMMANDS_Decoder.c.o
                0x00047a34                ARCOMMANDS_Decoder_SetPowerupPilotingSettingsSetCb
 *fill*         0x00047a56        0x2 
 .text.ARCOMMANDS_Decoder_SetPowerupPilotingSettingsSetCallback
                0x00047a58       0x34 /home/ncs/CAPSTONE/out/arsdk-native/build/libARCommands/obj/gen/Sources/ARCOMMANDS_Decoder.c.o
                0x00047a58                ARCOMMANDS_Decoder_SetPowerupPilotingSettingsSetCallback
 .text.ARCOMMANDS_Decoder_SetPowerupMediaRecordPictureV2Cb
                0x00047a8c       0x22 /home/ncs/CAPSTONE/out/arsdk-native/build/libARCommands/obj/gen/Sources/ARCOMMANDS_Decoder.c.o
                0x00047a8c                ARCOMMANDS_Decoder_SetPowerupMediaRecordPictureV2Cb
 *fill*         0x00047aae        0x2 
 .text.ARCOMMANDS_Decoder_SetPowerupMediaRecordPictureV2Callback
                0x00047ab0       0x34 /home/ncs/CAPSTONE/out/arsdk-native/build/libARCommands/obj/gen/Sources/ARCOMMANDS_Decoder.c.o
                0x00047ab0                ARCOMMANDS_Decoder_SetPowerupMediaRecordPictureV2Callback
 .text.ARCOMMANDS_Decoder_SetPowerupMediaRecordVideoV2Cb
                0x00047ae4       0x22 /home/ncs/CAPSTONE/out/arsdk-native/build/libARCommands/obj/gen/Sources/ARCOMMANDS_Decoder.c.o
                0x00047ae4                ARCOMMANDS_Decoder_SetPowerupMediaRecordVideoV2Cb
 *fill*         0x00047b06        0x2 
 .text.ARCOMMANDS_Decoder_SetPowerupMediaRecordVideoV2Callback
                0x00047b08       0x34 /home/ncs/CAPSTONE/out/arsdk-native/build/libARCommands/obj/gen/Sources/ARCOMMANDS_Decoder.c.o
                0x00047b08                ARCOMMANDS_Decoder_SetPowerupMediaRecordVideoV2Callback
 .text.ARCOMMANDS_Decoder_SetPowerupNetworkSettingsWifiSelectionCb
                0x00047b3c       0x22 /home/ncs/CAPSTONE/out/arsdk-native/build/libARCommands/obj/gen/Sources/ARCOMMANDS_Decoder.c.o
                0x00047b3c                ARCOMMANDS_Decoder_SetPowerupNetworkSettingsWifiSelectionCb
 *fill*         0x00047b5e        0x2 
 .text.ARCOMMANDS_Decoder_SetPowerupNetworkSettingsWifiSelectionCallback
                0x00047b60       0x34 /home/ncs/CAPSTONE/out/arsdk-native/build/libARCommands/obj/gen/Sources/ARCOMMANDS_Decoder.c.o
                0x00047b60                ARCOMMANDS_Decoder_SetPowerupNetworkSettingsWifiSelectionCallback
 .text.ARCOMMANDS_Decoder_SetPowerupNetworkWifiScanCb
                0x00047b94       0x22 /home/ncs/CAPSTONE/out/arsdk-native/build/libARCommands/obj/gen/Sources/ARCOMMANDS_Decoder.c.o
                0x00047b94                ARCOMMANDS_Decoder_SetPowerupNetworkWifiScanCb
 *fill*         0x00047bb6        0x2 
 .text.ARCOMMANDS_Decoder_SetPowerupNetworkWifiScanCallback
                0x00047bb8       0x34 /home/ncs/CAPSTONE/out/arsdk-native/build/libARCommands/obj/gen/Sources/ARCOMMANDS_Decoder.c.o
                0x00047bb8                ARCOMMANDS_Decoder_SetPowerupNetworkWifiScanCallback
 .text.ARCOMMANDS_Decoder_SetPowerupNetworkWifiAuthChannelCb
                0x00047bec       0x22 /home/ncs/CAPSTONE/out/arsdk-native/build/libARCommands/obj/gen/Sources/ARCOMMANDS_Decoder.c.o
                0x00047bec                ARCOMMANDS_Decoder_SetPowerupNetworkWifiAuthChannelCb
 *fill*         0x00047c0e        0x2 
 .text.ARCOMMANDS_Decoder_SetPowerupNetworkWifiAuthChannelCallback
                0x00047c10       0x34 /home/ncs/CAPSTONE/out/arsdk-native/build/libARCommands/obj/gen/Sources/ARCOMMANDS_Decoder.c.o
                0x00047c10                ARCOMMANDS_Decoder_SetPowerupNetworkWifiAuthChannelCallback
 .text.ARCOMMANDS_Decoder_SetPowerupMediaStreamingVideoEnableCb
                0x00047c44       0x22 /home/ncs/CAPSTONE/out/arsdk-native/build/libARCommands/obj/gen/Sources/ARCOMMANDS_Decoder.c.o
                0x00047c44                ARCOMMANDS_Decoder_SetPowerupMediaStreamingVideoEnableCb
 *fill*         0x00047c66        0x2 
 .text.ARCOMMANDS_Decoder_SetPowerupMediaStreamingVideoEnableCallback
                0x00047c68       0x34 /home/ncs/CAPSTONE/out/arsdk-native/build/libARCommands/obj/gen/Sources/ARCOMMANDS_Decoder.c.o
                0x00047c68                ARCOMMANDS_Decoder_SetPowerupMediaStreamingVideoEnableCallback
 .text.ARCOMMANDS_Decoder_SetPowerupVideoSettingsAutorecordCb
                0x00047c9c       0x22 /home/ncs/CAPSTONE/out/arsdk-native/build/libARCommands/obj/gen/Sources/ARCOMMANDS_Decoder.c.o
                0x00047c9c                ARCOMMANDS_Decoder_SetPowerupVideoSettingsAutorecordCb
 *fill*         0x00047cbe        0x2 
 .text.ARCOMMANDS_Decoder_SetPowerupVideoSettingsAutorecordCallback
                0x00047cc0       0x34 /home/ncs/CAPSTONE/out/arsdk-native/build/libARCommands/obj/gen/Sources/ARCOMMANDS_Decoder.c.o
                0x00047cc0                ARCOMMANDS_Decoder_SetPowerupVideoSettingsAutorecordCallback
 .text.ARCOMMANDS_Decoder_SetPowerupVideoSettingsVideoModeCb
                0x00047cf4       0x22 /home/ncs/CAPSTONE/out/arsdk-native/build/libARCommands/obj/gen/Sources/ARCOMMANDS_Decoder.c.o
                0x00047cf4                ARCOMMANDS_Decoder_SetPowerupVideoSettingsVideoModeCb
 *fill*         0x00047d16        0x2 
 .text.ARCOMMANDS_Decoder_SetPowerupVideoSettingsVideoModeCallback
                0x00047d18       0x34 /home/ncs/CAPSTONE/out/arsdk-native/build/libARCommands/obj/gen/Sources/ARCOMMANDS_Decoder.c.o
                0x00047d18                ARCOMMANDS_Decoder_SetPowerupVideoSettingsVideoModeCallback
 .text.ARCOMMANDS_Decoder_SetPowerupSoundsBuzzCb
                0x00047d4c       0x22 /home/ncs/CAPSTONE/out/arsdk-native/build/libARCommands/obj/gen/Sources/ARCOMMANDS_Decoder.c.o
                0x00047d4c                ARCOMMANDS_Decoder_SetPowerupSoundsBuzzCb
 *fill*         0x00047d6e        0x2 
 .text.ARCOMMANDS_Decoder_SetPowerupSoundsBuzzCallback
                0x00047d70       0x34 /home/ncs/CAPSTONE/out/arsdk-native/build/libARCommands/obj/gen/Sources/ARCOMMANDS_Decoder.c.o
                0x00047d70                ARCOMMANDS_Decoder_SetPowerupSoundsBuzzCallback
 .text.ARCOMMANDS_Decoder_SetPowerupPilotingStateAlertStateChangedCb
                0x00047da4       0x22 /home/ncs/CAPSTONE/out/arsdk-native/build/libARCommands/obj/gen/Sources/ARCOMMANDS_Decoder.c.o
                0x00047da4                ARCOMMANDS_Decoder_SetPowerupPilotingStateAlertStateChangedCb
 *fill*         0x00047dc6        0x2 
 .text.ARCOMMANDS_Decoder_SetPowerupPilotingStateAlertStateChangedCallback
                0x00047dc8       0x34 /home/ncs/CAPSTONE/out/arsdk-native/build/libARCommands/obj/gen/Sources/ARCOMMANDS_Decoder.c.o
                0x00047dc8                ARCOMMANDS_Decoder_SetPowerupPilotingStateAlertStateChangedCallback
 .text.ARCOMMANDS_Decoder_SetPowerupPilotingStateFlyingStateChangedCb
                0x00047dfc       0x22 /home/ncs/CAPSTONE/out/arsdk-native/build/libARCommands/obj/gen/Sources/ARCOMMANDS_Decoder.c.o
                0x00047dfc                ARCOMMANDS_Decoder_SetPowerupPilotingStateFlyingStateChangedCb
 *fill*         0x00047e1e        0x2 
 .text.ARCOMMANDS_Decoder_SetPowerupPilotingStateFlyingStateChangedCallback
                0x00047e20       0x34 /home/ncs/CAPSTONE/out/arsdk-native/build/libARCommands/obj/gen/Sources/ARCOMMANDS_Decoder.c.o
                0x00047e20                ARCOMMANDS_Decoder_SetPowerupPilotingStateFlyingStateChangedCallback
 .text.ARCOMMANDS_Decoder_SetPowerupPilotingStateMotorModeChangedCb
                0x00047e54       0x22 /home/ncs/CAPSTONE/out/arsdk-native/build/libARCommands/obj/gen/Sources/ARCOMMANDS_Decoder.c.o
                0x00047e54                ARCOMMANDS_Decoder_SetPowerupPilotingStateMotorModeChangedCb
 *fill*         0x00047e76        0x2 
 .text.ARCOMMANDS_Decoder_SetPowerupPilotingStateMotorModeChangedCallback
                0x00047e78       0x34 /home/ncs/CAPSTONE/out/arsdk-native/build/libARCommands/obj/gen/Sources/ARCOMMANDS_Decoder.c.o
                0x00047e78                ARCOMMANDS_Decoder_SetPowerupPilotingStateMotorModeChangedCallback
 .text.ARCOMMANDS_Decoder_SetPowerupPilotingStateAttitudeChangedCb
                0x00047eac       0x22 /home/ncs/CAPSTONE/out/arsdk-native/build/libARCommands/obj/gen/Sources/ARCOMMANDS_Decoder.c.o
                0x00047eac                ARCOMMANDS_Decoder_SetPowerupPilotingStateAttitudeChangedCb
 *fill*         0x00047ece        0x2 
 .text.ARCOMMANDS_Decoder_SetPowerupPilotingStateAttitudeChangedCallback
                0x00047ed0       0x34 /home/ncs/CAPSTONE/out/arsdk-native/build/libARCommands/obj/gen/Sources/ARCOMMANDS_Decoder.c.o
                0x00047ed0                ARCOMMANDS_Decoder_SetPowerupPilotingStateAttitudeChangedCallback
 .text.ARCOMMANDS_Decoder_SetPowerupPilotingStateAltitudeChangedCb
                0x00047f04       0x22 /home/ncs/CAPSTONE/out/arsdk-native/build/libARCommands/obj/gen/Sources/ARCOMMANDS_Decoder.c.o
                0x00047f04                ARCOMMANDS_Decoder_SetPowerupPilotingStateAltitudeChangedCb
 *fill*         0x00047f26        0x2 
 .text.ARCOMMANDS_Decoder_SetPowerupPilotingStateAltitudeChangedCallback
                0x00047f28       0x34 /home/ncs/CAPSTONE/out/arsdk-native/build/libARCommands/obj/gen/Sources/ARCOMMANDS_Decoder.c.o
                0x00047f28                ARCOMMANDS_Decoder_SetPowerupPilotingStateAltitudeChangedCallback
 .text.ARCOMMANDS_Decoder_SetPowerupPilotingSettingsStateSettingChangedCb
                0x00047f5c       0x22 /home/ncs/CAPSTONE/out/arsdk-native/build/libARCommands/obj/gen/Sources/ARCOMMANDS_Decoder.c.o
                0x00047f5c                ARCOMMANDS_Decoder_SetPowerupPilotingSettingsStateSettingChangedCb
 *fill*         0x00047f7e        0x2 
 .text.ARCOMMANDS_Decoder_SetPowerupPilotingSettingsStateSettingChangedCallback
                0x00047f80       0x34 /home/ncs/CAPSTONE/out/arsdk-native/build/libARCommands/obj/gen/Sources/ARCOMMANDS_Decoder.c.o
                0x00047f80                ARCOMMANDS_Decoder_SetPowerupPilotingSettingsStateSettingChangedCallback
 .text.ARCOMMANDS_Decoder_SetPowerupMediaRecordStatePictureStateChangedV2Cb
                0x00047fb4       0x22 /home/ncs/CAPSTONE/out/arsdk-native/build/libARCommands/obj/gen/Sources/ARCOMMANDS_Decoder.c.o
                0x00047fb4                ARCOMMANDS_Decoder_SetPowerupMediaRecordStatePictureStateChangedV2Cb
 *fill*         0x00047fd6        0x2 
 .text.ARCOMMANDS_Decoder_SetPowerupMediaRecordStatePictureStateChangedV2Callback
                0x00047fd8       0x34 /home/ncs/CAPSTONE/out/arsdk-native/build/libARCommands/obj/gen/Sources/ARCOMMANDS_Decoder.c.o
                0x00047fd8                ARCOMMANDS_Decoder_SetPowerupMediaRecordStatePictureStateChangedV2Callback
 .text.ARCOMMANDS_Decoder_SetPowerupMediaRecordStateVideoStateChangedV2Cb
                0x0004800c       0x22 /home/ncs/CAPSTONE/out/arsdk-native/build/libARCommands/obj/gen/Sources/ARCOMMANDS_Decoder.c.o
                0x0004800c                ARCOMMANDS_Decoder_SetPowerupMediaRecordStateVideoStateChangedV2Cb
 *fill*         0x0004802e        0x2 
 .text.ARCOMMANDS_Decoder_SetPowerupMediaRecordStateVideoStateChangedV2Callback
                0x00048030       0x34 /home/ncs/CAPSTONE/out/arsdk-native/build/libARCommands/obj/gen/Sources/ARCOMMANDS_Decoder.c.o
                0x00048030                ARCOMMANDS_Decoder_SetPowerupMediaRecordStateVideoStateChangedV2Callback
 .text.ARCOMMANDS_Decoder_SetPowerupMediaRecordEventPictureEventChangedCb
                0x00048064       0x22 /home/ncs/CAPSTONE/out/arsdk-native/build/libARCommands/obj/gen/Sources/ARCOMMANDS_Decoder.c.o
                0x00048064                ARCOMMANDS_Decoder_SetPowerupMediaRecordEventPictureEventChangedCb
 *fill*         0x00048086        0x2 
 .text.ARCOMMANDS_Decoder_SetPowerupMediaRecordEventPictureEventChangedCallback
                0x00048088       0x34 /home/ncs/CAPSTONE/out/arsdk-native/build/libARCommands/obj/gen/Sources/ARCOMMANDS_Decoder.c.o
                0x00048088                ARCOMMANDS_Decoder_SetPowerupMediaRecordEventPictureEventChangedCallback
 .text.ARCOMMANDS_Decoder_SetPowerupMediaRecordEventVideoEventChangedCb
                0x000480bc       0x22 /home/ncs/CAPSTONE/out/arsdk-native/build/libARCommands/obj/gen/Sources/ARCOMMANDS_Decoder.c.o
                0x000480bc                ARCOMMANDS_Decoder_SetPowerupMediaRecordEventVideoEventChangedCb
 *fill*         0x000480de        0x2 
 .text.ARCOMMANDS_Decoder_SetPowerupMediaRecordEventVideoEventChangedCallback
                0x000480e0       0x34 /home/ncs/CAPSTONE/out/arsdk-native/build/libARCommands/obj/gen/Sources/ARCOMMANDS_Decoder.c.o
                0x000480e0                ARCOMMANDS_Decoder_SetPowerupMediaRecordEventVideoEventChangedCallback
 .text.ARCOMMANDS_Decoder_SetPowerupNetworkSettingsStateWifiSelectionChangedCb
                0x00048114       0x22 /home/ncs/CAPSTONE/out/arsdk-native/build/libARCommands/obj/gen/Sources/ARCOMMANDS_Decoder.c.o
                0x00048114                ARCOMMANDS_Decoder_SetPowerupNetworkSettingsStateWifiSelectionChangedCb
 *fill*         0x00048136        0x2 
 .text.ARCOMMANDS_Decoder_SetPowerupNetworkSettingsStateWifiSelectionChangedCallback
                0x00048138       0x34 /home/ncs/CAPSTONE/out/arsdk-native/build/libARCommands/obj/gen/Sources/ARCOMMANDS_Decoder.c.o
                0x00048138                ARCOMMANDS_Decoder_SetPowerupNetworkSettingsStateWifiSelectionChangedCallback
 .text.ARCOMMANDS_Decoder_SetPowerupNetworkStateWifiScanListChangedCb
                0x0004816c       0x22 /home/ncs/CAPSTONE/out/arsdk-native/build/libARCommands/obj/gen/Sources/ARCOMMANDS_Decoder.c.o
                0x0004816c                ARCOMMANDS_Decoder_SetPowerupNetworkStateWifiScanListChangedCb
 *fill*         0x0004818e        0x2 
 .text.ARCOMMANDS_Decoder_SetPowerupNetworkStateWifiScanListChangedCallback
                0x00048190       0x34 /home/ncs/CAPSTONE/out/arsdk-native/build/libARCommands/obj/gen/Sources/ARCOMMANDS_Decoder.c.o
                0x00048190                ARCOMMANDS_Decoder_SetPowerupNetworkStateWifiScanListChangedCallback
 .text.ARCOMMANDS_Decoder_SetPowerupNetworkStateAllWifiScanChangedCb
                0x000481c4       0x22 /home/ncs/CAPSTONE/out/arsdk-native/build/libARCommands/obj/gen/Sources/ARCOMMANDS_Decoder.c.o
                0x000481c4                ARCOMMANDS_Decoder_SetPowerupNetworkStateAllWifiScanChangedCb
 *fill*         0x000481e6        0x2 
 .text.ARCOMMANDS_Decoder_SetPowerupNetworkStateAllWifiScanChangedCallback
                0x000481e8       0x34 /home/ncs/CAPSTONE/out/arsdk-native/build/libARCommands/obj/gen/Sources/ARCOMMANDS_Decoder.c.o
                0x000481e8                ARCOMMANDS_Decoder_SetPowerupNetworkStateAllWifiScanChangedCallback
 .text.ARCOMMANDS_Decoder_SetPowerupNetworkStateWifiAuthChannelListChangedCb
                0x0004821c       0x22 /home/ncs/CAPSTONE/out/arsdk-native/build/libARCommands/obj/gen/Sources/ARCOMMANDS_Decoder.c.o
                0x0004821c                ARCOMMANDS_Decoder_SetPowerupNetworkStateWifiAuthChannelListChangedCb
 *fill*         0x0004823e        0x2 
 .text.ARCOMMANDS_Decoder_SetPowerupNetworkStateWifiAuthChannelListChangedCallback
                0x00048240       0x34 /home/ncs/CAPSTONE/out/arsdk-native/build/libARCommands/obj/gen/Sources/ARCOMMANDS_Decoder.c.o
                0x00048240                ARCOMMANDS_Decoder_SetPowerupNetworkStateWifiAuthChannelListChangedCallback
 .text.ARCOMMANDS_Decoder_SetPowerupNetworkStateAllWifiAuthChannelChangedCb
                0x00048274       0x22 /home/ncs/CAPSTONE/out/arsdk-native/build/libARCommands/obj/gen/Sources/ARCOMMANDS_Decoder.c.o
                0x00048274                ARCOMMANDS_Decoder_SetPowerupNetworkStateAllWifiAuthChannelChangedCb
 *fill*         0x00048296        0x2 
 .text.ARCOMMANDS_Decoder_SetPowerupNetworkStateAllWifiAuthChannelChangedCallback
                0x00048298       0x34 /home/ncs/CAPSTONE/out/arsdk-native/build/libARCommands/obj/gen/Sources/ARCOMMANDS_Decoder.c.o
                0x00048298                ARCOMMANDS_Decoder_SetPowerupNetworkStateAllWifiAuthChannelChangedCallback
 .text.ARCOMMANDS_Decoder_SetPowerupNetworkStateLinkQualityChangedCb
                0x000482cc       0x22 /home/ncs/CAPSTONE/out/arsdk-native/build/libARCommands/obj/gen/Sources/ARCOMMANDS_Decoder.c.o
                0x000482cc                ARCOMMANDS_Decoder_SetPowerupNetworkStateLinkQualityChangedCb
 *fill*         0x000482ee        0x2 
 .text.ARCOMMANDS_Decoder_SetPowerupNetworkStateLinkQualityChangedCallback
                0x000482f0       0x34 /home/ncs/CAPSTONE/out/arsdk-native/build/libARCommands/obj/gen/Sources/ARCOMMANDS_Decoder.c.o
                0x000482f0                ARCOMMANDS_Decoder_SetPowerupNetworkStateLinkQualityChangedCallback
 .text.ARCOMMANDS_Decoder_SetPowerupMediaStreamingStateVideoEnableChangedCb
                0x00048324       0x22 /home/ncs/CAPSTONE/out/arsdk-native/build/libARCommands/obj/gen/Sources/ARCOMMANDS_Decoder.c.o
                0x00048324                ARCOMMANDS_Decoder_SetPowerupMediaStreamingStateVideoEnableChangedCb
 *fill*         0x00048346        0x2 
 .text.ARCOMMANDS_Decoder_SetPowerupMediaStreamingStateVideoEnableChangedCallback
                0x00048348       0x34 /home/ncs/CAPSTONE/out/arsdk-native/build/libARCommands/obj/gen/Sources/ARCOMMANDS_Decoder.c.o
                0x00048348                ARCOMMANDS_Decoder_SetPowerupMediaStreamingStateVideoEnableChangedCallback
 .text.ARCOMMANDS_Decoder_SetPowerupVideoSettingsStateAutorecordChangedCb
                0x0004837c       0x22 /home/ncs/CAPSTONE/out/arsdk-native/build/libARCommands/obj/gen/Sources/ARCOMMANDS_Decoder.c.o
                0x0004837c                ARCOMMANDS_Decoder_SetPowerupVideoSettingsStateAutorecordChangedCb
 *fill*         0x0004839e        0x2 
 .text.ARCOMMANDS_Decoder_SetPowerupVideoSettingsStateAutorecordChangedCallback
                0x000483a0       0x34 /home/ncs/CAPSTONE/out/arsdk-native/build/libARCommands/obj/gen/Sources/ARCOMMANDS_Decoder.c.o
                0x000483a0                ARCOMMANDS_Decoder_SetPowerupVideoSettingsStateAutorecordChangedCallback
 .text.ARCOMMANDS_Decoder_SetPowerupVideoSettingsStateVideoModeChangedCb
                0x000483d4       0x22 /home/ncs/CAPSTONE/out/arsdk-native/build/libARCommands/obj/gen/Sources/ARCOMMANDS_Decoder.c.o
                0x000483d4                ARCOMMANDS_Decoder_SetPowerupVideoSettingsStateVideoModeChangedCb
 *fill*         0x000483f6        0x2 
 .text.ARCOMMANDS_Decoder_SetPowerupVideoSettingsStateVideoModeChangedCallback
                0x000483f8       0x34 /home/ncs/CAPSTONE/out/arsdk-native/build/libARCommands/obj/gen/Sources/ARCOMMANDS_Decoder.c.o
                0x000483f8                ARCOMMANDS_Decoder_SetPowerupVideoSettingsStateVideoModeChangedCallback
 .text.ARCOMMANDS_Decoder_SetPowerupSoundsStateBuzzChangedCb
                0x0004842c       0x22 /home/ncs/CAPSTONE/out/arsdk-native/build/libARCommands/obj/gen/Sources/ARCOMMANDS_Decoder.c.o
                0x0004842c                ARCOMMANDS_Decoder_SetPowerupSoundsStateBuzzChangedCb
 *fill*         0x0004844e        0x2 
 .text.ARCOMMANDS_Decoder_SetPowerupSoundsStateBuzzChangedCallback
                0x00048450       0x34 /home/ncs/CAPSTONE/out/arsdk-native/build/libARCommands/obj/gen/Sources/ARCOMMANDS_Decoder.c.o
                0x00048450                ARCOMMANDS_Decoder_SetPowerupSoundsStateBuzzChangedCallback
 .text.ARCOMMANDS_Decoder_SetProProBoughtFeaturesCb
                0x00048484       0x22 /home/ncs/CAPSTONE/out/arsdk-native/build/libARCommands/obj/gen/Sources/ARCOMMANDS_Decoder.c.o
                0x00048484                ARCOMMANDS_Decoder_SetProProBoughtFeaturesCb
 *fill*         0x000484a6        0x2 
 .text.ARCOMMANDS_Decoder_SetProProBoughtFeaturesCallback
                0x000484a8       0x34 /home/ncs/CAPSTONE/out/arsdk-native/build/libARCommands/obj/gen/Sources/ARCOMMANDS_Decoder.c.o
                0x000484a8                ARCOMMANDS_Decoder_SetProProBoughtFeaturesCallback
 .text.ARCOMMANDS_Decoder_SetProProResponseCb
                0x000484dc       0x22 /home/ncs/CAPSTONE/out/arsdk-native/build/libARCommands/obj/gen/Sources/ARCOMMANDS_Decoder.c.o
                0x000484dc                ARCOMMANDS_Decoder_SetProProResponseCb
 *fill*         0x000484fe        0x2 
 .text.ARCOMMANDS_Decoder_SetProProResponseCallback
                0x00048500       0x34 /home/ncs/CAPSTONE/out/arsdk-native/build/libARCommands/obj/gen/Sources/ARCOMMANDS_Decoder.c.o
                0x00048500                ARCOMMANDS_Decoder_SetProProResponseCallback
 .text.ARCOMMANDS_Decoder_SetProProActivateFeaturesCb
                0x00048534       0x22 /home/ncs/CAPSTONE/out/arsdk-native/build/libARCommands/obj/gen/Sources/ARCOMMANDS_Decoder.c.o
                0x00048534                ARCOMMANDS_Decoder_SetProProActivateFeaturesCb
 *fill*         0x00048556        0x2 
 .text.ARCOMMANDS_Decoder_SetProProActivateFeaturesCallback
                0x00048558       0x34 /home/ncs/CAPSTONE/out/arsdk-native/build/libARCommands/obj/gen/Sources/ARCOMMANDS_Decoder.c.o
                0x00048558                ARCOMMANDS_Decoder_SetProProActivateFeaturesCallback
 .text.ARCOMMANDS_Decoder_SetProProStateSupportedFeaturesCb
                0x0004858c       0x22 /home/ncs/CAPSTONE/out/arsdk-native/build/libARCommands/obj/gen/Sources/ARCOMMANDS_Decoder.c.o
                0x0004858c                ARCOMMANDS_Decoder_SetProProStateSupportedFeaturesCb
 *fill*         0x000485ae        0x2 
 .text.ARCOMMANDS_Decoder_SetProProStateSupportedFeaturesCallback
                0x000485b0       0x34 /home/ncs/CAPSTONE/out/arsdk-native/build/libARCommands/obj/gen/Sources/ARCOMMANDS_Decoder.c.o
                0x000485b0                ARCOMMANDS_Decoder_SetProProStateSupportedFeaturesCallback
 .text.ARCOMMANDS_Decoder_SetProProStateFeaturesActivatedCb
                0x000485e4       0x22 /home/ncs/CAPSTONE/out/arsdk-native/build/libARCommands/obj/gen/Sources/ARCOMMANDS_Decoder.c.o
                0x000485e4                ARCOMMANDS_Decoder_SetProProStateFeaturesActivatedCb
 *fill*         0x00048606        0x2 
 .text.ARCOMMANDS_Decoder_SetProProStateFeaturesActivatedCallback
                0x00048608       0x34 /home/ncs/CAPSTONE/out/arsdk-native/build/libARCommands/obj/gen/Sources/ARCOMMANDS_Decoder.c.o
                0x00048608                ARCOMMANDS_Decoder_SetProProStateFeaturesActivatedCallback
 .text.ARCOMMANDS_Decoder_SetProProEventChallengeEventCb
                0x0004863c       0x22 /home/ncs/CAPSTONE/out/arsdk-native/build/libARCommands/obj/gen/Sources/ARCOMMANDS_Decoder.c.o
                0x0004863c                ARCOMMANDS_Decoder_SetProProEventChallengeEventCb
 *fill*         0x0004865e        0x2 
 .text.ARCOMMANDS_Decoder_SetProProEventChallengeEventCallback
                0x00048660       0x34 /home/ncs/CAPSTONE/out/arsdk-native/build/libARCommands/obj/gen/Sources/ARCOMMANDS_Decoder.c.o
                0x00048660                ARCOMMANDS_Decoder_SetProProEventChallengeEventCallback
 .text.ARCOMMANDS_Decoder_SetRcMonitorChannelsCb
                0x00048694       0x22 /home/ncs/CAPSTONE/out/arsdk-native/build/libARCommands/obj/gen/Sources/ARCOMMANDS_Decoder.c.o
                0x00048694                ARCOMMANDS_Decoder_SetRcMonitorChannelsCb
 *fill*         0x000486b6        0x2 
 .text.ARCOMMANDS_Decoder_SetRcMonitorChannelsCallback
                0x000486b8       0x34 /home/ncs/CAPSTONE/out/arsdk-native/build/libARCommands/obj/gen/Sources/ARCOMMANDS_Decoder.c.o
                0x000486b8                ARCOMMANDS_Decoder_SetRcMonitorChannelsCallback
 .text.ARCOMMANDS_Decoder_SetRcStartCalibrationCb
                0x000486ec       0x22 /home/ncs/CAPSTONE/out/arsdk-native/build/libARCommands/obj/gen/Sources/ARCOMMANDS_Decoder.c.o
                0x000486ec                ARCOMMANDS_Decoder_SetRcStartCalibrationCb
 *fill*         0x0004870e        0x2 
 .text.ARCOMMANDS_Decoder_SetRcStartCalibrationCallback
                0x00048710       0x34 /home/ncs/CAPSTONE/out/arsdk-native/build/libARCommands/obj/gen/Sources/ARCOMMANDS_Decoder.c.o
                0x00048710                ARCOMMANDS_Decoder_SetRcStartCalibrationCallback
 .text.ARCOMMANDS_Decoder_SetRcInvertChannelCb
                0x00048744       0x22 /home/ncs/CAPSTONE/out/arsdk-native/build/libARCommands/obj/gen/Sources/ARCOMMANDS_Decoder.c.o
                0x00048744                ARCOMMANDS_Decoder_SetRcInvertChannelCb
 *fill*         0x00048766        0x2 
 .text.ARCOMMANDS_Decoder_SetRcInvertChannelCallback
                0x00048768       0x34 /home/ncs/CAPSTONE/out/arsdk-native/build/libARCommands/obj/gen/Sources/ARCOMMANDS_Decoder.c.o
                0x00048768                ARCOMMANDS_Decoder_SetRcInvertChannelCallback
 .text.ARCOMMANDS_Decoder_SetRcAbortCalibrationCb
                0x0004879c       0x22 /home/ncs/CAPSTONE/out/arsdk-native/build/libARCommands/obj/gen/Sources/ARCOMMANDS_Decoder.c.o
                0x0004879c                ARCOMMANDS_Decoder_SetRcAbortCalibrationCb
 *fill*         0x000487be        0x2 
 .text.ARCOMMANDS_Decoder_SetRcAbortCalibrationCallback
                0x000487c0       0x34 /home/ncs/CAPSTONE/out/arsdk-native/build/libARCommands/obj/gen/Sources/ARCOMMANDS_Decoder.c.o
                0x000487c0                ARCOMMANDS_Decoder_SetRcAbortCalibrationCallback
 .text.ARCOMMANDS_Decoder_SetRcResetCalibrationCb
                0x000487f4       0x22 /home/ncs/CAPSTONE/out/arsdk-native/build/libARCommands/obj/gen/Sources/ARCOMMANDS_Decoder.c.o
                0x000487f4                ARCOMMANDS_Decoder_SetRcResetCalibrationCb
 *fill*         0x00048816        0x2 
 .text.ARCOMMANDS_Decoder_SetRcResetCalibrationCallback
                0x00048818       0x34 /home/ncs/CAPSTONE/out/arsdk-native/build/libARCommands/obj/gen/Sources/ARCOMMANDS_Decoder.c.o
                0x00048818                ARCOMMANDS_Decoder_SetRcResetCalibrationCallback
 .text.ARCOMMANDS_Decoder_SetRcReceiverStateCb
                0x0004884c       0x22 /home/ncs/CAPSTONE/out/arsdk-native/build/libARCommands/obj/gen/Sources/ARCOMMANDS_Decoder.c.o
                0x0004884c                ARCOMMANDS_Decoder_SetRcReceiverStateCb
 *fill*         0x0004886e        0x2 
 .text.ARCOMMANDS_Decoder_SetRcReceiverStateCallback
                0x00048870       0x34 /home/ncs/CAPSTONE/out/arsdk-native/build/libARCommands/obj/gen/Sources/ARCOMMANDS_Decoder.c.o
                0x00048870                ARCOMMANDS_Decoder_SetRcReceiverStateCallback
 .text.ARCOMMANDS_Decoder_SetRcChannelsMonitorStateCb
                0x000488a4       0x22 /home/ncs/CAPSTONE/out/arsdk-native/build/libARCommands/obj/gen/Sources/ARCOMMANDS_Decoder.c.o
                0x000488a4                ARCOMMANDS_Decoder_SetRcChannelsMonitorStateCb
 *fill*         0x000488c6        0x2 
 .text.ARCOMMANDS_Decoder_SetRcChannelsMonitorStateCallback
                0x000488c8       0x34 /home/ncs/CAPSTONE/out/arsdk-native/build/libARCommands/obj/gen/Sources/ARCOMMANDS_Decoder.c.o
                0x000488c8                ARCOMMANDS_Decoder_SetRcChannelsMonitorStateCallback
 .text.ARCOMMANDS_Decoder_SetRcChannelValueCb
                0x000488fc       0x22 /home/ncs/CAPSTONE/out/arsdk-native/build/libARCommands/obj/gen/Sources/ARCOMMANDS_Decoder.c.o
                0x000488fc                ARCOMMANDS_Decoder_SetRcChannelValueCb
 *fill*         0x0004891e        0x2 
 .text.ARCOMMANDS_Decoder_SetRcChannelValueCallback
                0x00048920       0x34 /home/ncs/CAPSTONE/out/arsdk-native/build/libARCommands/obj/gen/Sources/ARCOMMANDS_Decoder.c.o
                0x00048920                ARCOMMANDS_Decoder_SetRcChannelValueCallback
 .text.ARCOMMANDS_Decoder_SetRcCalibrationStateCb
                0x00048954       0x22 /home/ncs/CAPSTONE/out/arsdk-native/build/libARCommands/obj/gen/Sources/ARCOMMANDS_Decoder.c.o
                0x00048954                ARCOMMANDS_Decoder_SetRcCalibrationStateCb
 *fill*         0x00048976        0x2 
 .text.ARCOMMANDS_Decoder_SetRcCalibrationStateCallback
                0x00048978       0x34 /home/ncs/CAPSTONE/out/arsdk-native/build/libARCommands/obj/gen/Sources/ARCOMMANDS_Decoder.c.o
                0x00048978                ARCOMMANDS_Decoder_SetRcCalibrationStateCallback
 .text.ARCOMMANDS_Decoder_SetRcReceiverQualityCb
                0x000489ac       0x22 /home/ncs/CAPSTONE/out/arsdk-native/build/libARCommands/obj/gen/Sources/ARCOMMANDS_Decoder.c.o
                0x000489ac                ARCOMMANDS_Decoder_SetRcReceiverQualityCb
 *fill*         0x000489ce        0x2 
 .text.ARCOMMANDS_Decoder_SetRcReceiverQualityCallback
                0x000489d0       0x34 /home/ncs/CAPSTONE/out/arsdk-native/build/libARCommands/obj/gen/Sources/ARCOMMANDS_Decoder.c.o
                0x000489d0                ARCOMMANDS_Decoder_SetRcReceiverQualityCallback
 .text.ARCOMMANDS_Decoder_SetSkyControllerWifiRequestWifiListCb
                0x00048a04       0x22 /home/ncs/CAPSTONE/out/arsdk-native/build/libARCommands/obj/gen/Sources/ARCOMMANDS_Decoder.c.o
                0x00048a04                ARCOMMANDS_Decoder_SetSkyControllerWifiRequestWifiListCb
 *fill*         0x00048a26        0x2 
 .text.ARCOMMANDS_Decoder_SetSkyControllerWifiRequestWifiListCallback
                0x00048a28       0x34 /home/ncs/CAPSTONE/out/arsdk-native/build/libARCommands/obj/gen/Sources/ARCOMMANDS_Decoder.c.o
                0x00048a28                ARCOMMANDS_Decoder_SetSkyControllerWifiRequestWifiListCallback
 .text.ARCOMMANDS_Decoder_SetSkyControllerWifiRequestCurrentWifiCb
                0x00048a5c       0x22 /home/ncs/CAPSTONE/out/arsdk-native/build/libARCommands/obj/gen/Sources/ARCOMMANDS_Decoder.c.o
                0x00048a5c                ARCOMMANDS_Decoder_SetSkyControllerWifiRequestCurrentWifiCb
 *fill*         0x00048a7e        0x2 
 .text.ARCOMMANDS_Decoder_SetSkyControllerWifiRequestCurrentWifiCallback
                0x00048a80       0x34 /home/ncs/CAPSTONE/out/arsdk-native/build/libARCommands/obj/gen/Sources/ARCOMMANDS_Decoder.c.o
                0x00048a80                ARCOMMANDS_Decoder_SetSkyControllerWifiRequestCurrentWifiCallback
 .text.ARCOMMANDS_Decoder_SetSkyControllerWifiConnectToWifiCb
                0x00048ab4       0x22 /home/ncs/CAPSTONE/out/arsdk-native/build/libARCommands/obj/gen/Sources/ARCOMMANDS_Decoder.c.o
                0x00048ab4                ARCOMMANDS_Decoder_SetSkyControllerWifiConnectToWifiCb
 *fill*         0x00048ad6        0x2 
 .text.ARCOMMANDS_Decoder_SetSkyControllerWifiConnectToWifiCallback
                0x00048ad8       0x34 /home/ncs/CAPSTONE/out/arsdk-native/build/libARCommands/obj/gen/Sources/ARCOMMANDS_Decoder.c.o
                0x00048ad8                ARCOMMANDS_Decoder_SetSkyControllerWifiConnectToWifiCallback
 .text.ARCOMMANDS_Decoder_SetSkyControllerWifiForgetWifiCb
                0x00048b0c       0x22 /home/ncs/CAPSTONE/out/arsdk-native/build/libARCommands/obj/gen/Sources/ARCOMMANDS_Decoder.c.o
                0x00048b0c                ARCOMMANDS_Decoder_SetSkyControllerWifiForgetWifiCb
 *fill*         0x00048b2e        0x2 
 .text.ARCOMMANDS_Decoder_SetSkyControllerWifiForgetWifiCallback
                0x00048b30       0x34 /home/ncs/CAPSTONE/out/arsdk-native/build/libARCommands/obj/gen/Sources/ARCOMMANDS_Decoder.c.o
                0x00048b30                ARCOMMANDS_Decoder_SetSkyControllerWifiForgetWifiCallback
 .text.ARCOMMANDS_Decoder_SetSkyControllerWifiWifiAuthChannelCb
                0x00048b64       0x22 /home/ncs/CAPSTONE/out/arsdk-native/build/libARCommands/obj/gen/Sources/ARCOMMANDS_Decoder.c.o
                0x00048b64                ARCOMMANDS_Decoder_SetSkyControllerWifiWifiAuthChannelCb
 *fill*         0x00048b86        0x2 
 .text.ARCOMMANDS_Decoder_SetSkyControllerWifiWifiAuthChannelCallback
                0x00048b88       0x34 /home/ncs/CAPSTONE/out/arsdk-native/build/libARCommands/obj/gen/Sources/ARCOMMANDS_Decoder.c.o
                0x00048b88                ARCOMMANDS_Decoder_SetSkyControllerWifiWifiAuthChannelCallback
 .text.ARCOMMANDS_Decoder_SetSkyControllerDeviceRequestDeviceListCb
                0x00048bbc       0x22 /home/ncs/CAPSTONE/out/arsdk-native/build/libARCommands/obj/gen/Sources/ARCOMMANDS_Decoder.c.o
                0x00048bbc                ARCOMMANDS_Decoder_SetSkyControllerDeviceRequestDeviceListCb
 *fill*         0x00048bde        0x2 
 .text.ARCOMMANDS_Decoder_SetSkyControllerDeviceRequestDeviceListCallback
                0x00048be0       0x34 /home/ncs/CAPSTONE/out/arsdk-native/build/libARCommands/obj/gen/Sources/ARCOMMANDS_Decoder.c.o
                0x00048be0                ARCOMMANDS_Decoder_SetSkyControllerDeviceRequestDeviceListCallback
 .text.ARCOMMANDS_Decoder_SetSkyControllerDeviceRequestCurrentDeviceCb
                0x00048c14       0x22 /home/ncs/CAPSTONE/out/arsdk-native/build/libARCommands/obj/gen/Sources/ARCOMMANDS_Decoder.c.o
                0x00048c14                ARCOMMANDS_Decoder_SetSkyControllerDeviceRequestCurrentDeviceCb
 *fill*         0x00048c36        0x2 
 .text.ARCOMMANDS_Decoder_SetSkyControllerDeviceRequestCurrentDeviceCallback
                0x00048c38       0x34 /home/ncs/CAPSTONE/out/arsdk-native/build/libARCommands/obj/gen/Sources/ARCOMMANDS_Decoder.c.o
                0x00048c38                ARCOMMANDS_Decoder_SetSkyControllerDeviceRequestCurrentDeviceCallback
 .text.ARCOMMANDS_Decoder_SetSkyControllerDeviceConnectToDeviceCb
                0x00048c6c       0x22 /home/ncs/CAPSTONE/out/arsdk-native/build/libARCommands/obj/gen/Sources/ARCOMMANDS_Decoder.c.o
                0x00048c6c                ARCOMMANDS_Decoder_SetSkyControllerDeviceConnectToDeviceCb
 *fill*         0x00048c8e        0x2 
 .text.ARCOMMANDS_Decoder_SetSkyControllerDeviceConnectToDeviceCallback
                0x00048c90       0x34 /home/ncs/CAPSTONE/out/arsdk-native/build/libARCommands/obj/gen/Sources/ARCOMMANDS_Decoder.c.o
                0x00048c90                ARCOMMANDS_Decoder_SetSkyControllerDeviceConnectToDeviceCallback
 .text.ARCOMMANDS_Decoder_SetSkyControllerSettingsAllSettingsCb
                0x00048cc4       0x22 /home/ncs/CAPSTONE/out/arsdk-native/build/libARCommands/obj/gen/Sources/ARCOMMANDS_Decoder.c.o
                0x00048cc4                ARCOMMANDS_Decoder_SetSkyControllerSettingsAllSettingsCb
 *fill*         0x00048ce6        0x2 
 .text.ARCOMMANDS_Decoder_SetSkyControllerSettingsAllSettingsCallback
                0x00048ce8       0x34 /home/ncs/CAPSTONE/out/arsdk-native/build/libARCommands/obj/gen/Sources/ARCOMMANDS_Decoder.c.o
                0x00048ce8                ARCOMMANDS_Decoder_SetSkyControllerSettingsAllSettingsCallback
 .text.ARCOMMANDS_Decoder_SetSkyControllerSettingsResetCb
                0x00048d1c       0x22 /home/ncs/CAPSTONE/out/arsdk-native/build/libARCommands/obj/gen/Sources/ARCOMMANDS_Decoder.c.o
                0x00048d1c                ARCOMMANDS_Decoder_SetSkyControllerSettingsResetCb
 *fill*         0x00048d3e        0x2 
 .text.ARCOMMANDS_Decoder_SetSkyControllerSettingsResetCallback
                0x00048d40       0x34 /home/ncs/CAPSTONE/out/arsdk-native/build/libARCommands/obj/gen/Sources/ARCOMMANDS_Decoder.c.o
                0x00048d40                ARCOMMANDS_Decoder_SetSkyControllerSettingsResetCallback
 .text.ARCOMMANDS_Decoder_SetSkyControllerCommonAllStatesCb
                0x00048d74       0x22 /home/ncs/CAPSTONE/out/arsdk-native/build/libARCommands/obj/gen/Sources/ARCOMMANDS_Decoder.c.o
                0x00048d74                ARCOMMANDS_Decoder_SetSkyControllerCommonAllStatesCb
 *fill*         0x00048d96        0x2 
 .text.ARCOMMANDS_Decoder_SetSkyControllerCommonAllStatesCallback
                0x00048d98       0x34 /home/ncs/CAPSTONE/out/arsdk-native/build/libARCommands/obj/gen/Sources/ARCOMMANDS_Decoder.c.o
                0x00048d98                ARCOMMANDS_Decoder_SetSkyControllerCommonAllStatesCallback
 .text.ARCOMMANDS_Decoder_SetSkyControllerAccessPointSettingsAccessPointSSIDCb
                0x00048dcc       0x22 /home/ncs/CAPSTONE/out/arsdk-native/build/libARCommands/obj/gen/Sources/ARCOMMANDS_Decoder.c.o
                0x00048dcc                ARCOMMANDS_Decoder_SetSkyControllerAccessPointSettingsAccessPointSSIDCb
 *fill*         0x00048dee        0x2 
 .text.ARCOMMANDS_Decoder_SetSkyControllerAccessPointSettingsAccessPointSSIDCallback
                0x00048df0       0x34 /home/ncs/CAPSTONE/out/arsdk-native/build/libARCommands/obj/gen/Sources/ARCOMMANDS_Decoder.c.o
                0x00048df0                ARCOMMANDS_Decoder_SetSkyControllerAccessPointSettingsAccessPointSSIDCallback
 .text.ARCOMMANDS_Decoder_SetSkyControllerAccessPointSettingsAccessPointChannelCb
                0x00048e24       0x22 /home/ncs/CAPSTONE/out/arsdk-native/build/libARCommands/obj/gen/Sources/ARCOMMANDS_Decoder.c.o
                0x00048e24                ARCOMMANDS_Decoder_SetSkyControllerAccessPointSettingsAccessPointChannelCb
 *fill*         0x00048e46        0x2 
 .text.ARCOMMANDS_Decoder_SetSkyControllerAccessPointSettingsAccessPointChannelCallback
                0x00048e48       0x34 /home/ncs/CAPSTONE/out/arsdk-native/build/libARCommands/obj/gen/Sources/ARCOMMANDS_Decoder.c.o
                0x00048e48                ARCOMMANDS_Decoder_SetSkyControllerAccessPointSettingsAccessPointChannelCallback
 .text.ARCOMMANDS_Decoder_SetSkyControllerAccessPointSettingsWifiSelectionCb
                0x00048e7c       0x22 /home/ncs/CAPSTONE/out/arsdk-native/build/libARCommands/obj/gen/Sources/ARCOMMANDS_Decoder.c.o
                0x00048e7c                ARCOMMANDS_Decoder_SetSkyControllerAccessPointSettingsWifiSelectionCb
 *fill*         0x00048e9e        0x2 
 .text.ARCOMMANDS_Decoder_SetSkyControllerAccessPointSettingsWifiSelectionCallback
                0x00048ea0       0x34 /home/ncs/CAPSTONE/out/arsdk-native/build/libARCommands/obj/gen/Sources/ARCOMMANDS_Decoder.c.o
                0x00048ea0                ARCOMMANDS_Decoder_SetSkyControllerAccessPointSettingsWifiSelectionCallback
 .text.ARCOMMANDS_Decoder_SetSkyControllerCameraResetOrientationCb
                0x00048ed4       0x22 /home/ncs/CAPSTONE/out/arsdk-native/build/libARCommands/obj/gen/Sources/ARCOMMANDS_Decoder.c.o
                0x00048ed4                ARCOMMANDS_Decoder_SetSkyControllerCameraResetOrientationCb
 *fill*         0x00048ef6        0x2 
 .text.ARCOMMANDS_Decoder_SetSkyControllerCameraResetOrientationCallback
                0x00048ef8       0x34 /home/ncs/CAPSTONE/out/arsdk-native/build/libARCommands/obj/gen/Sources/ARCOMMANDS_Decoder.c.o
                0x00048ef8                ARCOMMANDS_Decoder_SetSkyControllerCameraResetOrientationCallback
 .text.ARCOMMANDS_Decoder_SetSkyControllerGamepadInfosGetGamepadControlsCb
                0x00048f2c       0x22 /home/ncs/CAPSTONE/out/arsdk-native/build/libARCommands/obj/gen/Sources/ARCOMMANDS_Decoder.c.o
                0x00048f2c                ARCOMMANDS_Decoder_SetSkyControllerGamepadInfosGetGamepadControlsCb
 *fill*         0x00048f4e        0x2 
 .text.ARCOMMANDS_Decoder_SetSkyControllerGamepadInfosGetGamepadControlsCallback
                0x00048f50       0x34 /home/ncs/CAPSTONE/out/arsdk-native/build/libARCommands/obj/gen/Sources/ARCOMMANDS_Decoder.c.o
                0x00048f50                ARCOMMANDS_Decoder_SetSkyControllerGamepadInfosGetGamepadControlsCallback
 .text.ARCOMMANDS_Decoder_SetSkyControllerButtonMappingsGetCurrentButtonMappingsCb
                0x00048f84       0x22 /home/ncs/CAPSTONE/out/arsdk-native/build/libARCommands/obj/gen/Sources/ARCOMMANDS_Decoder.c.o
                0x00048f84                ARCOMMANDS_Decoder_SetSkyControllerButtonMappingsGetCurrentButtonMappingsCb
 *fill*         0x00048fa6        0x2 
 .text.ARCOMMANDS_Decoder_SetSkyControllerButtonMappingsGetCurrentButtonMappingsCallback
                0x00048fa8       0x34 /home/ncs/CAPSTONE/out/arsdk-native/build/libARCommands/obj/gen/Sources/ARCOMMANDS_Decoder.c.o
                0x00048fa8                ARCOMMANDS_Decoder_SetSkyControllerButtonMappingsGetCurrentButtonMappingsCallback
 .text.ARCOMMANDS_Decoder_SetSkyControllerButtonMappingsGetAvailableButtonMappingsCb
                0x00048fdc       0x22 /home/ncs/CAPSTONE/out/arsdk-native/build/libARCommands/obj/gen/Sources/ARCOMMANDS_Decoder.c.o
                0x00048fdc                ARCOMMANDS_Decoder_SetSkyControllerButtonMappingsGetAvailableButtonMappingsCb
 *fill*         0x00048ffe        0x2 
 .text.ARCOMMANDS_Decoder_SetSkyControllerButtonMappingsGetAvailableButtonMappingsCallback
                0x00049000       0x34 /home/ncs/CAPSTONE/out/arsdk-native/build/libARCommands/obj/gen/Sources/ARCOMMANDS_Decoder.c.o
                0x00049000                ARCOMMANDS_Decoder_SetSkyControllerButtonMappingsGetAvailableButtonMappingsCallback
 .text.ARCOMMANDS_Decoder_SetSkyControllerButtonMappingsSetButtonMappingCb
                0x00049034       0x22 /home/ncs/CAPSTONE/out/arsdk-native/build/libARCommands/obj/gen/Sources/ARCOMMANDS_Decoder.c.o
                0x00049034                ARCOMMANDS_Decoder_SetSkyControllerButtonMappingsSetButtonMappingCb
 *fill*         0x00049056        0x2 
 .text.ARCOMMANDS_Decoder_SetSkyControllerButtonMappingsSetButtonMappingCallback
                0x00049058       0x34 /home/ncs/CAPSTONE/out/arsdk-native/build/libARCommands/obj/gen/Sources/ARCOMMANDS_Decoder.c.o
                0x00049058                ARCOMMANDS_Decoder_SetSkyControllerButtonMappingsSetButtonMappingCallback
 .text.ARCOMMANDS_Decoder_SetSkyControllerButtonMappingsDefaultButtonMappingCb
                0x0004908c       0x22 /home/ncs/CAPSTONE/out/arsdk-native/build/libARCommands/obj/gen/Sources/ARCOMMANDS_Decoder.c.o
                0x0004908c                ARCOMMANDS_Decoder_SetSkyControllerButtonMappingsDefaultButtonMappingCb
 *fill*         0x000490ae        0x2 
 .text.ARCOMMANDS_Decoder_SetSkyControllerButtonMappingsDefaultButtonMappingCallback
                0x000490b0       0x34 /home/ncs/CAPSTONE/out/arsdk-native/build/libARCommands/obj/gen/Sources/ARCOMMANDS_Decoder.c.o
                0x000490b0                ARCOMMANDS_Decoder_SetSkyControllerButtonMappingsDefaultButtonMappingCallback
 .text.ARCOMMANDS_Decoder_SetSkyControllerAxisMappingsGetCurrentAxisMappingsCb
                0x000490e4       0x22 /home/ncs/CAPSTONE/out/arsdk-native/build/libARCommands/obj/gen/Sources/ARCOMMANDS_Decoder.c.o
                0x000490e4                ARCOMMANDS_Decoder_SetSkyControllerAxisMappingsGetCurrentAxisMappingsCb
 *fill*         0x00049106        0x2 
 .text.ARCOMMANDS_Decoder_SetSkyControllerAxisMappingsGetCurrentAxisMappingsCallback
                0x00049108       0x34 /home/ncs/CAPSTONE/out/arsdk-native/build/libARCommands/obj/gen/Sources/ARCOMMANDS_Decoder.c.o
                0x00049108                ARCOMMANDS_Decoder_SetSkyControllerAxisMappingsGetCurrentAxisMappingsCallback
 .text.ARCOMMANDS_Decoder_SetSkyControllerAxisMappingsGetAvailableAxisMappingsCb
                0x0004913c       0x22 /home/ncs/CAPSTONE/out/arsdk-native/build/libARCommands/obj/gen/Sources/ARCOMMANDS_Decoder.c.o
                0x0004913c                ARCOMMANDS_Decoder_SetSkyControllerAxisMappingsGetAvailableAxisMappingsCb
 *fill*         0x0004915e        0x2 
 .text.ARCOMMANDS_Decoder_SetSkyControllerAxisMappingsGetAvailableAxisMappingsCallback
                0x00049160       0x34 /home/ncs/CAPSTONE/out/arsdk-native/build/libARCommands/obj/gen/Sources/ARCOMMANDS_Decoder.c.o
                0x00049160                ARCOMMANDS_Decoder_SetSkyControllerAxisMappingsGetAvailableAxisMappingsCallback
 .text.ARCOMMANDS_Decoder_SetSkyControllerAxisMappingsSetAxisMappingCb
                0x00049194       0x22 /home/ncs/CAPSTONE/out/arsdk-native/build/libARCommands/obj/gen/Sources/ARCOMMANDS_Decoder.c.o
                0x00049194                ARCOMMANDS_Decoder_SetSkyControllerAxisMappingsSetAxisMappingCb
 *fill*         0x000491b6        0x2 
 .text.ARCOMMANDS_Decoder_SetSkyControllerAxisMappingsSetAxisMappingCallback
                0x000491b8       0x34 /home/ncs/CAPSTONE/out/arsdk-native/build/libARCommands/obj/gen/Sources/ARCOMMANDS_Decoder.c.o
                0x000491b8                ARCOMMANDS_Decoder_SetSkyControllerAxisMappingsSetAxisMappingCallback
 .text.ARCOMMANDS_Decoder_SetSkyControllerAxisMappingsDefaultAxisMappingCb
                0x000491ec       0x22 /home/ncs/CAPSTONE/out/arsdk-native/build/libARCommands/obj/gen/Sources/ARCOMMANDS_Decoder.c.o
                0x000491ec                ARCOMMANDS_Decoder_SetSkyControllerAxisMappingsDefaultAxisMappingCb
 *fill*         0x0004920e        0x2 
 .text.ARCOMMANDS_Decoder_SetSkyControllerAxisMappingsDefaultAxisMappingCallback
                0x00049210       0x34 /home/ncs/CAPSTONE/out/arsdk-native/build/libARCommands/obj/gen/Sources/ARCOMMANDS_Decoder.c.o
                0x00049210                ARCOMMANDS_Decoder_SetSkyControllerAxisMappingsDefaultAxisMappingCallback
 .text.ARCOMMANDS_Decoder_SetSkyControllerAxisFiltersGetCurrentAxisFiltersCb
                0x00049244       0x22 /home/ncs/CAPSTONE/out/arsdk-native/build/libARCommands/obj/gen/Sources/ARCOMMANDS_Decoder.c.o
                0x00049244                ARCOMMANDS_Decoder_SetSkyControllerAxisFiltersGetCurrentAxisFiltersCb
 *fill*         0x00049266        0x2 
 .text.ARCOMMANDS_Decoder_SetSkyControllerAxisFiltersGetCurrentAxisFiltersCallback
                0x00049268       0x34 /home/ncs/CAPSTONE/out/arsdk-native/build/libARCommands/obj/gen/Sources/ARCOMMANDS_Decoder.c.o
                0x00049268                ARCOMMANDS_Decoder_SetSkyControllerAxisFiltersGetCurrentAxisFiltersCallback
 .text.ARCOMMANDS_Decoder_SetSkyControllerAxisFiltersGetPresetAxisFiltersCb
                0x0004929c       0x22 /home/ncs/CAPSTONE/out/arsdk-native/build/libARCommands/obj/gen/Sources/ARCOMMANDS_Decoder.c.o
                0x0004929c                ARCOMMANDS_Decoder_SetSkyControllerAxisFiltersGetPresetAxisFiltersCb
 *fill*         0x000492be        0x2 
 .text.ARCOMMANDS_Decoder_SetSkyControllerAxisFiltersGetPresetAxisFiltersCallback
                0x000492c0       0x34 /home/ncs/CAPSTONE/out/arsdk-native/build/libARCommands/obj/gen/Sources/ARCOMMANDS_Decoder.c.o
                0x000492c0                ARCOMMANDS_Decoder_SetSkyControllerAxisFiltersGetPresetAxisFiltersCallback
 .text.ARCOMMANDS_Decoder_SetSkyControllerAxisFiltersSetAxisFilterCb
                0x000492f4       0x22 /home/ncs/CAPSTONE/out/arsdk-native/build/libARCommands/obj/gen/Sources/ARCOMMANDS_Decoder.c.o
                0x000492f4                ARCOMMANDS_Decoder_SetSkyControllerAxisFiltersSetAxisFilterCb
 *fill*         0x00049316        0x2 
 .text.ARCOMMANDS_Decoder_SetSkyControllerAxisFiltersSetAxisFilterCallback
                0x00049318       0x34 /home/ncs/CAPSTONE/out/arsdk-native/build/libARCommands/obj/gen/Sources/ARCOMMANDS_Decoder.c.o
                0x00049318                ARCOMMANDS_Decoder_SetSkyControllerAxisFiltersSetAxisFilterCallback
 .text.ARCOMMANDS_Decoder_SetSkyControllerAxisFiltersDefaultAxisFiltersCb
                0x0004934c       0x22 /home/ncs/CAPSTONE/out/arsdk-native/build/libARCommands/obj/gen/Sources/ARCOMMANDS_Decoder.c.o
                0x0004934c                ARCOMMANDS_Decoder_SetSkyControllerAxisFiltersDefaultAxisFiltersCb
 *fill*         0x0004936e        0x2 
 .text.ARCOMMANDS_Decoder_SetSkyControllerAxisFiltersDefaultAxisFiltersCallback
                0x00049370       0x34 /home/ncs/CAPSTONE/out/arsdk-native/build/libARCommands/obj/gen/Sources/ARCOMMANDS_Decoder.c.o
                0x00049370                ARCOMMANDS_Decoder_SetSkyControllerAxisFiltersDefaultAxisFiltersCallback
 .text.ARCOMMANDS_Decoder_SetSkyControllerCoPilotingSetPilotingSourceCb
                0x000493a4       0x22 /home/ncs/CAPSTONE/out/arsdk-native/build/libARCommands/obj/gen/Sources/ARCOMMANDS_Decoder.c.o
                0x000493a4                ARCOMMANDS_Decoder_SetSkyControllerCoPilotingSetPilotingSourceCb
 *fill*         0x000493c6        0x2 
 .text.ARCOMMANDS_Decoder_SetSkyControllerCoPilotingSetPilotingSourceCallback
                0x000493c8       0x34 /home/ncs/CAPSTONE/out/arsdk-native/build/libARCommands/obj/gen/Sources/ARCOMMANDS_Decoder.c.o
                0x000493c8                ARCOMMANDS_Decoder_SetSkyControllerCoPilotingSetPilotingSourceCallback
 .text.ARCOMMANDS_Decoder_SetSkyControllerCalibrationEnableMagnetoCalibrationQualityUpdatesCb
                0x000493fc       0x22 /home/ncs/CAPSTONE/out/arsdk-native/build/libARCommands/obj/gen/Sources/ARCOMMANDS_Decoder.c.o
                0x000493fc                ARCOMMANDS_Decoder_SetSkyControllerCalibrationEnableMagnetoCalibrationQualityUpdatesCb
 *fill*         0x0004941e        0x2 
 .text.ARCOMMANDS_Decoder_SetSkyControllerCalibrationEnableMagnetoCalibrationQualityUpdatesCallback
                0x00049420       0x34 /home/ncs/CAPSTONE/out/arsdk-native/build/libARCommands/obj/gen/Sources/ARCOMMANDS_Decoder.c.o
                0x00049420                ARCOMMANDS_Decoder_SetSkyControllerCalibrationEnableMagnetoCalibrationQualityUpdatesCallback
 .text.ARCOMMANDS_Decoder_SetSkyControllerFactoryResetCb
                0x00049454       0x22 /home/ncs/CAPSTONE/out/arsdk-native/build/libARCommands/obj/gen/Sources/ARCOMMANDS_Decoder.c.o
                0x00049454                ARCOMMANDS_Decoder_SetSkyControllerFactoryResetCb
 *fill*         0x00049476        0x2 
 .text.ARCOMMANDS_Decoder_SetSkyControllerFactoryResetCallback
                0x00049478       0x34 /home/ncs/CAPSTONE/out/arsdk-native/build/libARCommands/obj/gen/Sources/ARCOMMANDS_Decoder.c.o
                0x00049478                ARCOMMANDS_Decoder_SetSkyControllerFactoryResetCallback
 .text.ARCOMMANDS_Decoder_SetSkyControllerWifiStateWifiListCb
                0x000494ac       0x22 /home/ncs/CAPSTONE/out/arsdk-native/build/libARCommands/obj/gen/Sources/ARCOMMANDS_Decoder.c.o
                0x000494ac                ARCOMMANDS_Decoder_SetSkyControllerWifiStateWifiListCb
 *fill*         0x000494ce        0x2 
 .text.ARCOMMANDS_Decoder_SetSkyControllerWifiStateWifiListCallback
                0x000494d0       0x34 /home/ncs/CAPSTONE/out/arsdk-native/build/libARCommands/obj/gen/Sources/ARCOMMANDS_Decoder.c.o
                0x000494d0                ARCOMMANDS_Decoder_SetSkyControllerWifiStateWifiListCallback
 .text.ARCOMMANDS_Decoder_SetSkyControllerWifiStateConnexionChangedCb
                0x00049504       0x22 /home/ncs/CAPSTONE/out/arsdk-native/build/libARCommands/obj/gen/Sources/ARCOMMANDS_Decoder.c.o
                0x00049504                ARCOMMANDS_Decoder_SetSkyControllerWifiStateConnexionChangedCb
 *fill*         0x00049526        0x2 
 .text.ARCOMMANDS_Decoder_SetSkyControllerWifiStateConnexionChangedCallback
                0x00049528       0x34 /home/ncs/CAPSTONE/out/arsdk-native/build/libARCommands/obj/gen/Sources/ARCOMMANDS_Decoder.c.o
                0x00049528                ARCOMMANDS_Decoder_SetSkyControllerWifiStateConnexionChangedCallback
 .text.ARCOMMANDS_Decoder_SetSkyControllerWifiStateWifiAuthChannelListChangedCb
                0x0004955c       0x22 /home/ncs/CAPSTONE/out/arsdk-native/build/libARCommands/obj/gen/Sources/ARCOMMANDS_Decoder.c.o
                0x0004955c                ARCOMMANDS_Decoder_SetSkyControllerWifiStateWifiAuthChannelListChangedCb
 *fill*         0x0004957e        0x2 
 .text.ARCOMMANDS_Decoder_SetSkyControllerWifiStateWifiAuthChannelListChangedCallback
                0x00049580       0x34 /home/ncs/CAPSTONE/out/arsdk-native/build/libARCommands/obj/gen/Sources/ARCOMMANDS_Decoder.c.o
                0x00049580                ARCOMMANDS_Decoder_SetSkyControllerWifiStateWifiAuthChannelListChangedCallback
 .text.ARCOMMANDS_Decoder_SetSkyControllerWifiStateAllWifiAuthChannelChangedCb
                0x000495b4       0x22 /home/ncs/CAPSTONE/out/arsdk-native/build/libARCommands/obj/gen/Sources/ARCOMMANDS_Decoder.c.o
                0x000495b4                ARCOMMANDS_Decoder_SetSkyControllerWifiStateAllWifiAuthChannelChangedCb
 *fill*         0x000495d6        0x2 
 .text.ARCOMMANDS_Decoder_SetSkyControllerWifiStateAllWifiAuthChannelChangedCallback
                0x000495d8       0x34 /home/ncs/CAPSTONE/out/arsdk-native/build/libARCommands/obj/gen/Sources/ARCOMMANDS_Decoder.c.o
                0x000495d8                ARCOMMANDS_Decoder_SetSkyControllerWifiStateAllWifiAuthChannelChangedCallback
 .text.ARCOMMANDS_Decoder_SetSkyControllerWifiStateWifiSignalChangedCb
                0x0004960c       0x22 /home/ncs/CAPSTONE/out/arsdk-native/build/libARCommands/obj/gen/Sources/ARCOMMANDS_Decoder.c.o
                0x0004960c                ARCOMMANDS_Decoder_SetSkyControllerWifiStateWifiSignalChangedCb
 *fill*         0x0004962e        0x2 
 .text.ARCOMMANDS_Decoder_SetSkyControllerWifiStateWifiSignalChangedCallback
                0x00049630       0x34 /home/ncs/CAPSTONE/out/arsdk-native/build/libARCommands/obj/gen/Sources/ARCOMMANDS_Decoder.c.o
                0x00049630                ARCOMMANDS_Decoder_SetSkyControllerWifiStateWifiSignalChangedCallback
 .text.ARCOMMANDS_Decoder_SetSkyControllerDeviceStateDeviceListCb
                0x00049664       0x22 /home/ncs/CAPSTONE/out/arsdk-native/build/libARCommands/obj/gen/Sources/ARCOMMANDS_Decoder.c.o
                0x00049664                ARCOMMANDS_Decoder_SetSkyControllerDeviceStateDeviceListCb
 *fill*         0x00049686        0x2 
 .text.ARCOMMANDS_Decoder_SetSkyControllerDeviceStateDeviceListCallback
                0x00049688       0x34 /home/ncs/CAPSTONE/out/arsdk-native/build/libARCommands/obj/gen/Sources/ARCOMMANDS_Decoder.c.o
                0x00049688                ARCOMMANDS_Decoder_SetSkyControllerDeviceStateDeviceListCallback
 .text.ARCOMMANDS_Decoder_SetSkyControllerDeviceStateConnexionChangedCb
                0x000496bc       0x22 /home/ncs/CAPSTONE/out/arsdk-native/build/libARCommands/obj/gen/Sources/ARCOMMANDS_Decoder.c.o
                0x000496bc                ARCOMMANDS_Decoder_SetSkyControllerDeviceStateConnexionChangedCb
 *fill*         0x000496de        0x2 
 .text.ARCOMMANDS_Decoder_SetSkyControllerDeviceStateConnexionChangedCallback
                0x000496e0       0x34 /home/ncs/CAPSTONE/out/arsdk-native/build/libARCommands/obj/gen/Sources/ARCOMMANDS_Decoder.c.o
                0x000496e0                ARCOMMANDS_Decoder_SetSkyControllerDeviceStateConnexionChangedCallback
 .text.ARCOMMANDS_Decoder_SetSkyControllerSettingsStateAllSettingsChangedCb
                0x00049714       0x22 /home/ncs/CAPSTONE/out/arsdk-native/build/libARCommands/obj/gen/Sources/ARCOMMANDS_Decoder.c.o
                0x00049714                ARCOMMANDS_Decoder_SetSkyControllerSettingsStateAllSettingsChangedCb
 *fill*         0x00049736        0x2 
 .text.ARCOMMANDS_Decoder_SetSkyControllerSettingsStateAllSettingsChangedCallback
                0x00049738       0x34 /home/ncs/CAPSTONE/out/arsdk-native/build/libARCommands/obj/gen/Sources/ARCOMMANDS_Decoder.c.o
                0x00049738                ARCOMMANDS_Decoder_SetSkyControllerSettingsStateAllSettingsChangedCallback
 .text.ARCOMMANDS_Decoder_SetSkyControllerSettingsStateResetChangedCb
                0x0004976c       0x22 /home/ncs/CAPSTONE/out/arsdk-native/build/libARCommands/obj/gen/Sources/ARCOMMANDS_Decoder.c.o
                0x0004976c                ARCOMMANDS_Decoder_SetSkyControllerSettingsStateResetChangedCb
 *fill*         0x0004978e        0x2 
 .text.ARCOMMANDS_Decoder_SetSkyControllerSettingsStateResetChangedCallback
                0x00049790       0x34 /home/ncs/CAPSTONE/out/arsdk-native/build/libARCommands/obj/gen/Sources/ARCOMMANDS_Decoder.c.o
                0x00049790                ARCOMMANDS_Decoder_SetSkyControllerSettingsStateResetChangedCallback
 .text.ARCOMMANDS_Decoder_SetSkyControllerSettingsStateProductSerialChangedCb
                0x000497c4       0x22 /home/ncs/CAPSTONE/out/arsdk-native/build/libARCommands/obj/gen/Sources/ARCOMMANDS_Decoder.c.o
                0x000497c4                ARCOMMANDS_Decoder_SetSkyControllerSettingsStateProductSerialChangedCb
 *fill*         0x000497e6        0x2 
 .text.ARCOMMANDS_Decoder_SetSkyControllerSettingsStateProductSerialChangedCallback
                0x000497e8       0x34 /home/ncs/CAPSTONE/out/arsdk-native/build/libARCommands/obj/gen/Sources/ARCOMMANDS_Decoder.c.o
                0x000497e8                ARCOMMANDS_Decoder_SetSkyControllerSettingsStateProductSerialChangedCallback
 .text.ARCOMMANDS_Decoder_SetSkyControllerSettingsStateProductVariantChangedCb
                0x0004981c       0x22 /home/ncs/CAPSTONE/out/arsdk-native/build/libARCommands/obj/gen/Sources/ARCOMMANDS_Decoder.c.o
                0x0004981c                ARCOMMANDS_Decoder_SetSkyControllerSettingsStateProductVariantChangedCb
 *fill*         0x0004983e        0x2 
 .text.ARCOMMANDS_Decoder_SetSkyControllerSettingsStateProductVariantChangedCallback
                0x00049840       0x34 /home/ncs/CAPSTONE/out/arsdk-native/build/libARCommands/obj/gen/Sources/ARCOMMANDS_Decoder.c.o
                0x00049840                ARCOMMANDS_Decoder_SetSkyControllerSettingsStateProductVariantChangedCallback
 .text.ARCOMMANDS_Decoder_SetSkyControllerSettingsStateProductVersionChangedCb
                0x00049874       0x22 /home/ncs/CAPSTONE/out/arsdk-native/build/libARCommands/obj/gen/Sources/ARCOMMANDS_Decoder.c.o
                0x00049874                ARCOMMANDS_Decoder_SetSkyControllerSettingsStateProductVersionChangedCb
 *fill*         0x00049896        0x2 
 .text.ARCOMMANDS_Decoder_SetSkyControllerSettingsStateProductVersionChangedCallback
                0x00049898       0x34 /home/ncs/CAPSTONE/out/arsdk-native/build/libARCommands/obj/gen/Sources/ARCOMMANDS_Decoder.c.o
                0x00049898                ARCOMMANDS_Decoder_SetSkyControllerSettingsStateProductVersionChangedCallback
 .text.ARCOMMANDS_Decoder_SetSkyControllerCommonStateAllStatesChangedCb
                0x000498cc       0x22 /home/ncs/CAPSTONE/out/arsdk-native/build/libARCommands/obj/gen/Sources/ARCOMMANDS_Decoder.c.o
                0x000498cc                ARCOMMANDS_Decoder_SetSkyControllerCommonStateAllStatesChangedCb
 *fill*         0x000498ee        0x2 
 .text.ARCOMMANDS_Decoder_SetSkyControllerCommonStateAllStatesChangedCallback
                0x000498f0       0x34 /home/ncs/CAPSTONE/out/arsdk-native/build/libARCommands/obj/gen/Sources/ARCOMMANDS_Decoder.c.o
                0x000498f0                ARCOMMANDS_Decoder_SetSkyControllerCommonStateAllStatesChangedCallback
 .text.ARCOMMANDS_Decoder_SetSkyControllerSkyControllerStateBatteryChangedCb
                0x00049924       0x22 /home/ncs/CAPSTONE/out/arsdk-native/build/libARCommands/obj/gen/Sources/ARCOMMANDS_Decoder.c.o
                0x00049924                ARCOMMANDS_Decoder_SetSkyControllerSkyControllerStateBatteryChangedCb
 *fill*         0x00049946        0x2 
 .text.ARCOMMANDS_Decoder_SetSkyControllerSkyControllerStateBatteryChangedCallback
                0x00049948       0x34 /home/ncs/CAPSTONE/out/arsdk-native/build/libARCommands/obj/gen/Sources/ARCOMMANDS_Decoder.c.o
                0x00049948                ARCOMMANDS_Decoder_SetSkyControllerSkyControllerStateBatteryChangedCallback
 .text.ARCOMMANDS_Decoder_SetSkyControllerSkyControllerStateGpsFixChangedCb
                0x0004997c       0x22 /home/ncs/CAPSTONE/out/arsdk-native/build/libARCommands/obj/gen/Sources/ARCOMMANDS_Decoder.c.o
                0x0004997c                ARCOMMANDS_Decoder_SetSkyControllerSkyControllerStateGpsFixChangedCb
 *fill*         0x0004999e        0x2 
 .text.ARCOMMANDS_Decoder_SetSkyControllerSkyControllerStateGpsFixChangedCallback
                0x000499a0       0x34 /home/ncs/CAPSTONE/out/arsdk-native/build/libARCommands/obj/gen/Sources/ARCOMMANDS_Decoder.c.o
                0x000499a0                ARCOMMANDS_Decoder_SetSkyControllerSkyControllerStateGpsFixChangedCallback
 .text.ARCOMMANDS_Decoder_SetSkyControllerSkyControllerStateGpsPositionChangedCb
                0x000499d4       0x22 /home/ncs/CAPSTONE/out/arsdk-native/build/libARCommands/obj/gen/Sources/ARCOMMANDS_Decoder.c.o
                0x000499d4                ARCOMMANDS_Decoder_SetSkyControllerSkyControllerStateGpsPositionChangedCb
 *fill*         0x000499f6        0x2 
 .text.ARCOMMANDS_Decoder_SetSkyControllerSkyControllerStateGpsPositionChangedCallback
                0x000499f8       0x34 /home/ncs/CAPSTONE/out/arsdk-native/build/libARCommands/obj/gen/Sources/ARCOMMANDS_Decoder.c.o
                0x000499f8                ARCOMMANDS_Decoder_SetSkyControllerSkyControllerStateGpsPositionChangedCallback
 .text.ARCOMMANDS_Decoder_SetSkyControllerSkyControllerStateBatteryStateCb
                0x00049a2c       0x22 /home/ncs/CAPSTONE/out/arsdk-native/build/libARCommands/obj/gen/Sources/ARCOMMANDS_Decoder.c.o
                0x00049a2c                ARCOMMANDS_Decoder_SetSkyControllerSkyControllerStateBatteryStateCb
 *fill*         0x00049a4e        0x2 
 .text.ARCOMMANDS_Decoder_SetSkyControllerSkyControllerStateBatteryStateCallback
                0x00049a50       0x34 /home/ncs/CAPSTONE/out/arsdk-native/build/libARCommands/obj/gen/Sources/ARCOMMANDS_Decoder.c.o
                0x00049a50                ARCOMMANDS_Decoder_SetSkyControllerSkyControllerStateBatteryStateCallback
 .text.ARCOMMANDS_Decoder_SetSkyControllerSkyControllerStateAttitudeChangedCb
                0x00049a84       0x22 /home/ncs/CAPSTONE/out/arsdk-native/build/libARCommands/obj/gen/Sources/ARCOMMANDS_Decoder.c.o
                0x00049a84                ARCOMMANDS_Decoder_SetSkyControllerSkyControllerStateAttitudeChangedCb
 *fill*         0x00049aa6        0x2 
 .text.ARCOMMANDS_Decoder_SetSkyControllerSkyControllerStateAttitudeChangedCallback
                0x00049aa8       0x34 /home/ncs/CAPSTONE/out/arsdk-native/build/libARCommands/obj/gen/Sources/ARCOMMANDS_Decoder.c.o
                0x00049aa8                ARCOMMANDS_Decoder_SetSkyControllerSkyControllerStateAttitudeChangedCallback
 .text.ARCOMMANDS_Decoder_SetSkyControllerAccessPointSettingsStateAccessPointSSIDChangedCb
                0x00049adc       0x22 /home/ncs/CAPSTONE/out/arsdk-native/build/libARCommands/obj/gen/Sources/ARCOMMANDS_Decoder.c.o
                0x00049adc                ARCOMMANDS_Decoder_SetSkyControllerAccessPointSettingsStateAccessPointSSIDChangedCb
 *fill*         0x00049afe        0x2 
 .text.ARCOMMANDS_Decoder_SetSkyControllerAccessPointSettingsStateAccessPointSSIDChangedCallback
                0x00049b00       0x34 /home/ncs/CAPSTONE/out/arsdk-native/build/libARCommands/obj/gen/Sources/ARCOMMANDS_Decoder.c.o
                0x00049b00                ARCOMMANDS_Decoder_SetSkyControllerAccessPointSettingsStateAccessPointSSIDChangedCallback
 .text.ARCOMMANDS_Decoder_SetSkyControllerAccessPointSettingsStateAccessPointChannelChangedCb
                0x00049b34       0x22 /home/ncs/CAPSTONE/out/arsdk-native/build/libARCommands/obj/gen/Sources/ARCOMMANDS_Decoder.c.o
                0x00049b34                ARCOMMANDS_Decoder_SetSkyControllerAccessPointSettingsStateAccessPointChannelChangedCb
 *fill*         0x00049b56        0x2 
 .text.ARCOMMANDS_Decoder_SetSkyControllerAccessPointSettingsStateAccessPointChannelChangedCallback
                0x00049b58       0x34 /home/ncs/CAPSTONE/out/arsdk-native/build/libARCommands/obj/gen/Sources/ARCOMMANDS_Decoder.c.o
                0x00049b58                ARCOMMANDS_Decoder_SetSkyControllerAccessPointSettingsStateAccessPointChannelChangedCallback
 .text.ARCOMMANDS_Decoder_SetSkyControllerAccessPointSettingsStateWifiSelectionChangedCb
                0x00049b8c       0x22 /home/ncs/CAPSTONE/out/arsdk-native/build/libARCommands/obj/gen/Sources/ARCOMMANDS_Decoder.c.o
                0x00049b8c                ARCOMMANDS_Decoder_SetSkyControllerAccessPointSettingsStateWifiSelectionChangedCb
 *fill*         0x00049bae        0x2 
 .text.ARCOMMANDS_Decoder_SetSkyControllerAccessPointSettingsStateWifiSelectionChangedCallback
                0x00049bb0       0x34 /home/ncs/CAPSTONE/out/arsdk-native/build/libARCommands/obj/gen/Sources/ARCOMMANDS_Decoder.c.o
                0x00049bb0                ARCOMMANDS_Decoder_SetSkyControllerAccessPointSettingsStateWifiSelectionChangedCallback
 .text.ARCOMMANDS_Decoder_SetSkyControllerGamepadInfosStateGamepadControlCb
                0x00049be4       0x22 /home/ncs/CAPSTONE/out/arsdk-native/build/libARCommands/obj/gen/Sources/ARCOMMANDS_Decoder.c.o
                0x00049be4                ARCOMMANDS_Decoder_SetSkyControllerGamepadInfosStateGamepadControlCb
 *fill*         0x00049c06        0x2 
 .text.ARCOMMANDS_Decoder_SetSkyControllerGamepadInfosStateGamepadControlCallback
                0x00049c08       0x34 /home/ncs/CAPSTONE/out/arsdk-native/build/libARCommands/obj/gen/Sources/ARCOMMANDS_Decoder.c.o
                0x00049c08                ARCOMMANDS_Decoder_SetSkyControllerGamepadInfosStateGamepadControlCallback
 .text.ARCOMMANDS_Decoder_SetSkyControllerGamepadInfosStateAllGamepadControlsSentCb
                0x00049c3c       0x22 /home/ncs/CAPSTONE/out/arsdk-native/build/libARCommands/obj/gen/Sources/ARCOMMANDS_Decoder.c.o
                0x00049c3c                ARCOMMANDS_Decoder_SetSkyControllerGamepadInfosStateAllGamepadControlsSentCb
 *fill*         0x00049c5e        0x2 
 .text.ARCOMMANDS_Decoder_SetSkyControllerGamepadInfosStateAllGamepadControlsSentCallback
                0x00049c60       0x34 /home/ncs/CAPSTONE/out/arsdk-native/build/libARCommands/obj/gen/Sources/ARCOMMANDS_Decoder.c.o
                0x00049c60                ARCOMMANDS_Decoder_SetSkyControllerGamepadInfosStateAllGamepadControlsSentCallback
 .text.ARCOMMANDS_Decoder_SetSkyControllerButtonMappingsStateCurrentButtonMappingsCb
                0x00049c94       0x22 /home/ncs/CAPSTONE/out/arsdk-native/build/libARCommands/obj/gen/Sources/ARCOMMANDS_Decoder.c.o
                0x00049c94                ARCOMMANDS_Decoder_SetSkyControllerButtonMappingsStateCurrentButtonMappingsCb
 *fill*         0x00049cb6        0x2 
 .text.ARCOMMANDS_Decoder_SetSkyControllerButtonMappingsStateCurrentButtonMappingsCallback
                0x00049cb8       0x34 /home/ncs/CAPSTONE/out/arsdk-native/build/libARCommands/obj/gen/Sources/ARCOMMANDS_Decoder.c.o
                0x00049cb8                ARCOMMANDS_Decoder_SetSkyControllerButtonMappingsStateCurrentButtonMappingsCallback
 .text.ARCOMMANDS_Decoder_SetSkyControllerButtonMappingsStateAllCurrentButtonMappingsSentCb
                0x00049cec       0x22 /home/ncs/CAPSTONE/out/arsdk-native/build/libARCommands/obj/gen/Sources/ARCOMMANDS_Decoder.c.o
                0x00049cec                ARCOMMANDS_Decoder_SetSkyControllerButtonMappingsStateAllCurrentButtonMappingsSentCb
 *fill*         0x00049d0e        0x2 
 .text.ARCOMMANDS_Decoder_SetSkyControllerButtonMappingsStateAllCurrentButtonMappingsSentCallback
                0x00049d10       0x34 /home/ncs/CAPSTONE/out/arsdk-native/build/libARCommands/obj/gen/Sources/ARCOMMANDS_Decoder.c.o
                0x00049d10                ARCOMMANDS_Decoder_SetSkyControllerButtonMappingsStateAllCurrentButtonMappingsSentCallback
 .text.ARCOMMANDS_Decoder_SetSkyControllerButtonMappingsStateAvailableButtonMappingsCb
                0x00049d44       0x22 /home/ncs/CAPSTONE/out/arsdk-native/build/libARCommands/obj/gen/Sources/ARCOMMANDS_Decoder.c.o
                0x00049d44                ARCOMMANDS_Decoder_SetSkyControllerButtonMappingsStateAvailableButtonMappingsCb
 *fill*         0x00049d66        0x2 
 .text.ARCOMMANDS_Decoder_SetSkyControllerButtonMappingsStateAvailableButtonMappingsCallback
                0x00049d68       0x34 /home/ncs/CAPSTONE/out/arsdk-native/build/libARCommands/obj/gen/Sources/ARCOMMANDS_Decoder.c.o
                0x00049d68                ARCOMMANDS_Decoder_SetSkyControllerButtonMappingsStateAvailableButtonMappingsCallback
 .text.ARCOMMANDS_Decoder_SetSkyControllerButtonMappingsStateAllAvailableButtonsMappingsSentCb
                0x00049d9c       0x22 /home/ncs/CAPSTONE/out/arsdk-native/build/libARCommands/obj/gen/Sources/ARCOMMANDS_Decoder.c.o
                0x00049d9c                ARCOMMANDS_Decoder_SetSkyControllerButtonMappingsStateAllAvailableButtonsMappingsSentCb
 *fill*         0x00049dbe        0x2 
 .text.ARCOMMANDS_Decoder_SetSkyControllerButtonMappingsStateAllAvailableButtonsMappingsSentCallback
                0x00049dc0       0x34 /home/ncs/CAPSTONE/out/arsdk-native/build/libARCommands/obj/gen/Sources/ARCOMMANDS_Decoder.c.o
                0x00049dc0                ARCOMMANDS_Decoder_SetSkyControllerButtonMappingsStateAllAvailableButtonsMappingsSentCallback
 .text.ARCOMMANDS_Decoder_SetSkyControllerAxisMappingsStateCurrentAxisMappingsCb
                0x00049df4       0x22 /home/ncs/CAPSTONE/out/arsdk-native/build/libARCommands/obj/gen/Sources/ARCOMMANDS_Decoder.c.o
                0x00049df4                ARCOMMANDS_Decoder_SetSkyControllerAxisMappingsStateCurrentAxisMappingsCb
 *fill*         0x00049e16        0x2 
 .text.ARCOMMANDS_Decoder_SetSkyControllerAxisMappingsStateCurrentAxisMappingsCallback
                0x00049e18       0x34 /home/ncs/CAPSTONE/out/arsdk-native/build/libARCommands/obj/gen/Sources/ARCOMMANDS_Decoder.c.o
                0x00049e18                ARCOMMANDS_Decoder_SetSkyControllerAxisMappingsStateCurrentAxisMappingsCallback
 .text.ARCOMMANDS_Decoder_SetSkyControllerAxisMappingsStateAllCurrentAxisMappingsSentCb
                0x00049e4c       0x22 /home/ncs/CAPSTONE/out/arsdk-native/build/libARCommands/obj/gen/Sources/ARCOMMANDS_Decoder.c.o
                0x00049e4c                ARCOMMANDS_Decoder_SetSkyControllerAxisMappingsStateAllCurrentAxisMappingsSentCb
 *fill*         0x00049e6e        0x2 
 .text.ARCOMMANDS_Decoder_SetSkyControllerAxisMappingsStateAllCurrentAxisMappingsSentCallback
                0x00049e70       0x34 /home/ncs/CAPSTONE/out/arsdk-native/build/libARCommands/obj/gen/Sources/ARCOMMANDS_Decoder.c.o
                0x00049e70                ARCOMMANDS_Decoder_SetSkyControllerAxisMappingsStateAllCurrentAxisMappingsSentCallback
 .text.ARCOMMANDS_Decoder_SetSkyControllerAxisMappingsStateAvailableAxisMappingsCb
                0x00049ea4       0x22 /home/ncs/CAPSTONE/out/arsdk-native/build/libARCommands/obj/gen/Sources/ARCOMMANDS_Decoder.c.o
                0x00049ea4                ARCOMMANDS_Decoder_SetSkyControllerAxisMappingsStateAvailableAxisMappingsCb
 *fill*         0x00049ec6        0x2 
 .text.ARCOMMANDS_Decoder_SetSkyControllerAxisMappingsStateAvailableAxisMappingsCallback
                0x00049ec8       0x34 /home/ncs/CAPSTONE/out/arsdk-native/build/libARCommands/obj/gen/Sources/ARCOMMANDS_Decoder.c.o
                0x00049ec8                ARCOMMANDS_Decoder_SetSkyControllerAxisMappingsStateAvailableAxisMappingsCallback
 .text.ARCOMMANDS_Decoder_SetSkyControllerAxisMappingsStateAllAvailableAxisMappingsSentCb
                0x00049efc       0x22 /home/ncs/CAPSTONE/out/arsdk-native/build/libARCommands/obj/gen/Sources/ARCOMMANDS_Decoder.c.o
                0x00049efc                ARCOMMANDS_Decoder_SetSkyControllerAxisMappingsStateAllAvailableAxisMappingsSentCb
 *fill*         0x00049f1e        0x2 
 .text.ARCOMMANDS_Decoder_SetSkyControllerAxisMappingsStateAllAvailableAxisMappingsSentCallback
                0x00049f20       0x34 /home/ncs/CAPSTONE/out/arsdk-native/build/libARCommands/obj/gen/Sources/ARCOMMANDS_Decoder.c.o
                0x00049f20                ARCOMMANDS_Decoder_SetSkyControllerAxisMappingsStateAllAvailableAxisMappingsSentCallback
 .text.ARCOMMANDS_Decoder_SetSkyControllerAxisFiltersStateCurrentAxisFiltersCb
                0x00049f54       0x22 /home/ncs/CAPSTONE/out/arsdk-native/build/libARCommands/obj/gen/Sources/ARCOMMANDS_Decoder.c.o
                0x00049f54                ARCOMMANDS_Decoder_SetSkyControllerAxisFiltersStateCurrentAxisFiltersCb
 *fill*         0x00049f76        0x2 
 .text.ARCOMMANDS_Decoder_SetSkyControllerAxisFiltersStateCurrentAxisFiltersCallback
                0x00049f78       0x34 /home/ncs/CAPSTONE/out/arsdk-native/build/libARCommands/obj/gen/Sources/ARCOMMANDS_Decoder.c.o
                0x00049f78                ARCOMMANDS_Decoder_SetSkyControllerAxisFiltersStateCurrentAxisFiltersCallback
 .text.ARCOMMANDS_Decoder_SetSkyControllerAxisFiltersStateAllCurrentFiltersSentCb
                0x00049fac       0x22 /home/ncs/CAPSTONE/out/arsdk-native/build/libARCommands/obj/gen/Sources/ARCOMMANDS_Decoder.c.o
                0x00049fac                ARCOMMANDS_Decoder_SetSkyControllerAxisFiltersStateAllCurrentFiltersSentCb
 *fill*         0x00049fce        0x2 
 .text.ARCOMMANDS_Decoder_SetSkyControllerAxisFiltersStateAllCurrentFiltersSentCallback
                0x00049fd0       0x34 /home/ncs/CAPSTONE/out/arsdk-native/build/libARCommands/obj/gen/Sources/ARCOMMANDS_Decoder.c.o
                0x00049fd0                ARCOMMANDS_Decoder_SetSkyControllerAxisFiltersStateAllCurrentFiltersSentCallback
 .text.ARCOMMANDS_Decoder_SetSkyControllerAxisFiltersStatePresetAxisFiltersCb
                0x0004a004       0x22 /home/ncs/CAPSTONE/out/arsdk-native/build/libARCommands/obj/gen/Sources/ARCOMMANDS_Decoder.c.o
                0x0004a004                ARCOMMANDS_Decoder_SetSkyControllerAxisFiltersStatePresetAxisFiltersCb
 *fill*         0x0004a026        0x2 
 .text.ARCOMMANDS_Decoder_SetSkyControllerAxisFiltersStatePresetAxisFiltersCallback
                0x0004a028       0x34 /home/ncs/CAPSTONE/out/arsdk-native/build/libARCommands/obj/gen/Sources/ARCOMMANDS_Decoder.c.o
                0x0004a028                ARCOMMANDS_Decoder_SetSkyControllerAxisFiltersStatePresetAxisFiltersCallback
 .text.ARCOMMANDS_Decoder_SetSkyControllerAxisFiltersStateAllPresetFiltersSentCb
                0x0004a05c       0x22 /home/ncs/CAPSTONE/out/arsdk-native/build/libARCommands/obj/gen/Sources/ARCOMMANDS_Decoder.c.o
                0x0004a05c                ARCOMMANDS_Decoder_SetSkyControllerAxisFiltersStateAllPresetFiltersSentCb
 *fill*         0x0004a07e        0x2 
 .text.ARCOMMANDS_Decoder_SetSkyControllerAxisFiltersStateAllPresetFiltersSentCallback
                0x0004a080       0x34 /home/ncs/CAPSTONE/out/arsdk-native/build/libARCommands/obj/gen/Sources/ARCOMMANDS_Decoder.c.o
                0x0004a080                ARCOMMANDS_Decoder_SetSkyControllerAxisFiltersStateAllPresetFiltersSentCallback
 .text.ARCOMMANDS_Decoder_SetSkyControllerCoPilotingStatePilotingSourceCb
                0x0004a0b4       0x22 /home/ncs/CAPSTONE/out/arsdk-native/build/libARCommands/obj/gen/Sources/ARCOMMANDS_Decoder.c.o
                0x0004a0b4                ARCOMMANDS_Decoder_SetSkyControllerCoPilotingStatePilotingSourceCb
 *fill*         0x0004a0d6        0x2 
 .text.ARCOMMANDS_Decoder_SetSkyControllerCoPilotingStatePilotingSourceCallback
                0x0004a0d8       0x34 /home/ncs/CAPSTONE/out/arsdk-native/build/libARCommands/obj/gen/Sources/ARCOMMANDS_Decoder.c.o
                0x0004a0d8                ARCOMMANDS_Decoder_SetSkyControllerCoPilotingStatePilotingSourceCallback
 .text.ARCOMMANDS_Decoder_SetSkyControllerCalibrationStateMagnetoCalibrationStateCb
                0x0004a10c       0x22 /home/ncs/CAPSTONE/out/arsdk-native/build/libARCommands/obj/gen/Sources/ARCOMMANDS_Decoder.c.o
                0x0004a10c                ARCOMMANDS_Decoder_SetSkyControllerCalibrationStateMagnetoCalibrationStateCb
 *fill*         0x0004a12e        0x2 
 .text.ARCOMMANDS_Decoder_SetSkyControllerCalibrationStateMagnetoCalibrationStateCallback
                0x0004a130       0x34 /home/ncs/CAPSTONE/out/arsdk-native/build/libARCommands/obj/gen/Sources/ARCOMMANDS_Decoder.c.o
                0x0004a130                ARCOMMANDS_Decoder_SetSkyControllerCalibrationStateMagnetoCalibrationStateCallback
 .text.ARCOMMANDS_Decoder_SetSkyControllerCalibrationStateMagnetoCalibrationQualityUpdatesStateCb
                0x0004a164       0x22 /home/ncs/CAPSTONE/out/arsdk-native/build/libARCommands/obj/gen/Sources/ARCOMMANDS_Decoder.c.o
                0x0004a164                ARCOMMANDS_Decoder_SetSkyControllerCalibrationStateMagnetoCalibrationQualityUpdatesStateCb
 *fill*         0x0004a186        0x2 
 .text.ARCOMMANDS_Decoder_SetSkyControllerCalibrationStateMagnetoCalibrationQualityUpdatesStateCallback
                0x0004a188       0x34 /home/ncs/CAPSTONE/out/arsdk-native/build/libARCommands/obj/gen/Sources/ARCOMMANDS_Decoder.c.o
                0x0004a188                ARCOMMANDS_Decoder_SetSkyControllerCalibrationStateMagnetoCalibrationQualityUpdatesStateCallback
 .text.ARCOMMANDS_Decoder_SetSkyControllerButtonEventsSettingsCb
                0x0004a1bc       0x22 /home/ncs/CAPSTONE/out/arsdk-native/build/libARCommands/obj/gen/Sources/ARCOMMANDS_Decoder.c.o
                0x0004a1bc                ARCOMMANDS_Decoder_SetSkyControllerButtonEventsSettingsCb
 *fill*         0x0004a1de        0x2 
 .text.ARCOMMANDS_Decoder_SetSkyControllerButtonEventsSettingsCallback
                0x0004a1e0       0x34 /home/ncs/CAPSTONE/out/arsdk-native/build/libARCommands/obj/gen/Sources/ARCOMMANDS_Decoder.c.o
                0x0004a1e0                ARCOMMANDS_Decoder_SetSkyControllerButtonEventsSettingsCallback
 .text.ARCOMMANDS_Decoder_SetUnknownFeature1GeographicRunCb
                0x0004a214       0x22 /home/ncs/CAPSTONE/out/arsdk-native/build/libARCommands/obj/gen/Sources/ARCOMMANDS_Decoder.c.o
                0x0004a214                ARCOMMANDS_Decoder_SetUnknownFeature1GeographicRunCb
 *fill*         0x0004a236        0x2 
 .text.ARCOMMANDS_Decoder_SetUnknownFeature1GeographicRunCallback
                0x0004a238       0x34 /home/ncs/CAPSTONE/out/arsdk-native/build/libARCommands/obj/gen/Sources/ARCOMMANDS_Decoder.c.o
                0x0004a238                ARCOMMANDS_Decoder_SetUnknownFeature1GeographicRunCallback
 .text.ARCOMMANDS_Decoder_SetUnknownFeature1RelativeRunCb
                0x0004a26c       0x22 /home/ncs/CAPSTONE/out/arsdk-native/build/libARCommands/obj/gen/Sources/ARCOMMANDS_Decoder.c.o
                0x0004a26c                ARCOMMANDS_Decoder_SetUnknownFeature1RelativeRunCb
 *fill*         0x0004a28e        0x2 
 .text.ARCOMMANDS_Decoder_SetUnknownFeature1RelativeRunCallback
                0x0004a290       0x34 /home/ncs/CAPSTONE/out/arsdk-native/build/libARCommands/obj/gen/Sources/ARCOMMANDS_Decoder.c.o
                0x0004a290                ARCOMMANDS_Decoder_SetUnknownFeature1RelativeRunCallback
 .text.ARCOMMANDS_Decoder_SetUnknownFeature1LookAtRunCb
                0x0004a2c4       0x22 /home/ncs/CAPSTONE/out/arsdk-native/build/libARCommands/obj/gen/Sources/ARCOMMANDS_Decoder.c.o
                0x0004a2c4                ARCOMMANDS_Decoder_SetUnknownFeature1LookAtRunCb
 *fill*         0x0004a2e6        0x2 
 .text.ARCOMMANDS_Decoder_SetUnknownFeature1LookAtRunCallback
                0x0004a2e8       0x34 /home/ncs/CAPSTONE/out/arsdk-native/build/libARCommands/obj/gen/Sources/ARCOMMANDS_Decoder.c.o
                0x0004a2e8                ARCOMMANDS_Decoder_SetUnknownFeature1LookAtRunCallback
 .text.ARCOMMANDS_Decoder_SetUnknownFeature1SpiralAnimRunCb
                0x0004a31c       0x22 /home/ncs/CAPSTONE/out/arsdk-native/build/libARCommands/obj/gen/Sources/ARCOMMANDS_Decoder.c.o
                0x0004a31c                ARCOMMANDS_Decoder_SetUnknownFeature1SpiralAnimRunCb
 *fill*         0x0004a33e        0x2 
 .text.ARCOMMANDS_Decoder_SetUnknownFeature1SpiralAnimRunCallback
                0x0004a340       0x34 /home/ncs/CAPSTONE/out/arsdk-native/build/libARCommands/obj/gen/Sources/ARCOMMANDS_Decoder.c.o
                0x0004a340                ARCOMMANDS_Decoder_SetUnknownFeature1SpiralAnimRunCallback
 .text.ARCOMMANDS_Decoder_SetUnknownFeature1SwingAnimRunCb
                0x0004a374       0x22 /home/ncs/CAPSTONE/out/arsdk-native/build/libARCommands/obj/gen/Sources/ARCOMMANDS_Decoder.c.o
                0x0004a374                ARCOMMANDS_Decoder_SetUnknownFeature1SwingAnimRunCb
 *fill*         0x0004a396        0x2 
 .text.ARCOMMANDS_Decoder_SetUnknownFeature1SwingAnimRunCallback
                0x0004a398       0x34 /home/ncs/CAPSTONE/out/arsdk-native/build/libARCommands/obj/gen/Sources/ARCOMMANDS_Decoder.c.o
                0x0004a398                ARCOMMANDS_Decoder_SetUnknownFeature1SwingAnimRunCallback
 .text.ARCOMMANDS_Decoder_SetUnknownFeature1BoomerangAnimRunCb
                0x0004a3cc       0x22 /home/ncs/CAPSTONE/out/arsdk-native/build/libARCommands/obj/gen/Sources/ARCOMMANDS_Decoder.c.o
                0x0004a3cc                ARCOMMANDS_Decoder_SetUnknownFeature1BoomerangAnimRunCb
 *fill*         0x0004a3ee        0x2 
 .text.ARCOMMANDS_Decoder_SetUnknownFeature1BoomerangAnimRunCallback
                0x0004a3f0       0x34 /home/ncs/CAPSTONE/out/arsdk-native/build/libARCommands/obj/gen/Sources/ARCOMMANDS_Decoder.c.o
                0x0004a3f0                ARCOMMANDS_Decoder_SetUnknownFeature1BoomerangAnimRunCallback
 .text.ARCOMMANDS_Decoder_SetUnknownFeature1CandleAnimRunCb
                0x0004a424       0x22 /home/ncs/CAPSTONE/out/arsdk-native/build/libARCommands/obj/gen/Sources/ARCOMMANDS_Decoder.c.o
                0x0004a424                ARCOMMANDS_Decoder_SetUnknownFeature1CandleAnimRunCb
 *fill*         0x0004a446        0x2 
 .text.ARCOMMANDS_Decoder_SetUnknownFeature1CandleAnimRunCallback
                0x0004a448       0x34 /home/ncs/CAPSTONE/out/arsdk-native/build/libARCommands/obj/gen/Sources/ARCOMMANDS_Decoder.c.o
                0x0004a448                ARCOMMANDS_Decoder_SetUnknownFeature1CandleAnimRunCallback
 .text.ARCOMMANDS_Decoder_SetUnknownFeature1DollySlideAnimRunCb
                0x0004a47c       0x22 /home/ncs/CAPSTONE/out/arsdk-native/build/libARCommands/obj/gen/Sources/ARCOMMANDS_Decoder.c.o
                0x0004a47c                ARCOMMANDS_Decoder_SetUnknownFeature1DollySlideAnimRunCb
 *fill*         0x0004a49e        0x2 
 .text.ARCOMMANDS_Decoder_SetUnknownFeature1DollySlideAnimRunCallback
                0x0004a4a0       0x34 /home/ncs/CAPSTONE/out/arsdk-native/build/libARCommands/obj/gen/Sources/ARCOMMANDS_Decoder.c.o
                0x0004a4a0                ARCOMMANDS_Decoder_SetUnknownFeature1DollySlideAnimRunCallback
 .text.ARCOMMANDS_Decoder_SetUnknownFeature1UserFramingPositionCb
                0x0004a4d4       0x22 /home/ncs/CAPSTONE/out/arsdk-native/build/libARCommands/obj/gen/Sources/ARCOMMANDS_Decoder.c.o
                0x0004a4d4                ARCOMMANDS_Decoder_SetUnknownFeature1UserFramingPositionCb
 *fill*         0x0004a4f6        0x2 
 .text.ARCOMMANDS_Decoder_SetUnknownFeature1UserFramingPositionCallback
                0x0004a4f8       0x34 /home/ncs/CAPSTONE/out/arsdk-native/build/libARCommands/obj/gen/Sources/ARCOMMANDS_Decoder.c.o
                0x0004a4f8                ARCOMMANDS_Decoder_SetUnknownFeature1UserFramingPositionCallback
 .text.ARCOMMANDS_Decoder_SetUnknownFeature1UserGPSDataCb
                0x0004a52c       0x22 /home/ncs/CAPSTONE/out/arsdk-native/build/libARCommands/obj/gen/Sources/ARCOMMANDS_Decoder.c.o
                0x0004a52c                ARCOMMANDS_Decoder_SetUnknownFeature1UserGPSDataCb
 *fill*         0x0004a54e        0x2 
 .text.ARCOMMANDS_Decoder_SetUnknownFeature1UserGPSDataCallback
                0x0004a550       0x34 /home/ncs/CAPSTONE/out/arsdk-native/build/libARCommands/obj/gen/Sources/ARCOMMANDS_Decoder.c.o
                0x0004a550                ARCOMMANDS_Decoder_SetUnknownFeature1UserGPSDataCallback
 .text.ARCOMMANDS_Decoder_SetUnknownFeature1UserBaroDataCb
                0x0004a584       0x22 /home/ncs/CAPSTONE/out/arsdk-native/build/libARCommands/obj/gen/Sources/ARCOMMANDS_Decoder.c.o
                0x0004a584                ARCOMMANDS_Decoder_SetUnknownFeature1UserBaroDataCb
 *fill*         0x0004a5a6        0x2 
 .text.ARCOMMANDS_Decoder_SetUnknownFeature1UserBaroDataCallback
                0x0004a5a8       0x34 /home/ncs/CAPSTONE/out/arsdk-native/build/libARCommands/obj/gen/Sources/ARCOMMANDS_Decoder.c.o
                0x0004a5a8                ARCOMMANDS_Decoder_SetUnknownFeature1UserBaroDataCallback
 .text.ARCOMMANDS_Decoder_SetUnknownFeature1LynxDetectionCb
                0x0004a5dc       0x22 /home/ncs/CAPSTONE/out/arsdk-native/build/libARCommands/obj/gen/Sources/ARCOMMANDS_Decoder.c.o
                0x0004a5dc                ARCOMMANDS_Decoder_SetUnknownFeature1LynxDetectionCb
 *fill*         0x0004a5fe        0x2 
 .text.ARCOMMANDS_Decoder_SetUnknownFeature1LynxDetectionCallback
                0x0004a600       0x34 /home/ncs/CAPSTONE/out/arsdk-native/build/libARCommands/obj/gen/Sources/ARCOMMANDS_Decoder.c.o
                0x0004a600                ARCOMMANDS_Decoder_SetUnknownFeature1LynxDetectionCallback
 .text.ARCOMMANDS_Decoder_SetUnknownFeature1AvailabilityCb
                0x0004a634       0x22 /home/ncs/CAPSTONE/out/arsdk-native/build/libARCommands/obj/gen/Sources/ARCOMMANDS_Decoder.c.o
                0x0004a634                ARCOMMANDS_Decoder_SetUnknownFeature1AvailabilityCb
 *fill*         0x0004a656        0x2 
 .text.ARCOMMANDS_Decoder_SetUnknownFeature1AvailabilityCallback
                0x0004a658       0x34 /home/ncs/CAPSTONE/out/arsdk-native/build/libARCommands/obj/gen/Sources/ARCOMMANDS_Decoder.c.o
                0x0004a658                ARCOMMANDS_Decoder_SetUnknownFeature1AvailabilityCallback
 .text.ARCOMMANDS_Decoder_SetUnknownFeature1RunCb
                0x0004a68c       0x22 /home/ncs/CAPSTONE/out/arsdk-native/build/libARCommands/obj/gen/Sources/ARCOMMANDS_Decoder.c.o
                0x0004a68c                ARCOMMANDS_Decoder_SetUnknownFeature1RunCb
 *fill*         0x0004a6ae        0x2 
 .text.ARCOMMANDS_Decoder_SetUnknownFeature1RunCallback
                0x0004a6b0       0x34 /home/ncs/CAPSTONE/out/arsdk-native/build/libARCommands/obj/gen/Sources/ARCOMMANDS_Decoder.c.o
                0x0004a6b0                ARCOMMANDS_Decoder_SetUnknownFeature1RunCallback
 .text.ARCOMMANDS_Decoder_SetUnknownFeature1GeographicConfigChangedCb
                0x0004a6e4       0x22 /home/ncs/CAPSTONE/out/arsdk-native/build/libARCommands/obj/gen/Sources/ARCOMMANDS_Decoder.c.o
                0x0004a6e4                ARCOMMANDS_Decoder_SetUnknownFeature1GeographicConfigChangedCb
 *fill*         0x0004a706        0x2 
 .text.ARCOMMANDS_Decoder_SetUnknownFeature1GeographicConfigChangedCallback
                0x0004a708       0x34 /home/ncs/CAPSTONE/out/arsdk-native/build/libARCommands/obj/gen/Sources/ARCOMMANDS_Decoder.c.o
                0x0004a708                ARCOMMANDS_Decoder_SetUnknownFeature1GeographicConfigChangedCallback
 .text.ARCOMMANDS_Decoder_SetUnknownFeature1RelativeConfigChangedCb
                0x0004a73c       0x22 /home/ncs/CAPSTONE/out/arsdk-native/build/libARCommands/obj/gen/Sources/ARCOMMANDS_Decoder.c.o
                0x0004a73c                ARCOMMANDS_Decoder_SetUnknownFeature1RelativeConfigChangedCb
 *fill*         0x0004a75e        0x2 
 .text.ARCOMMANDS_Decoder_SetUnknownFeature1RelativeConfigChangedCallback
                0x0004a760       0x34 /home/ncs/CAPSTONE/out/arsdk-native/build/libARCommands/obj/gen/Sources/ARCOMMANDS_Decoder.c.o
                0x0004a760                ARCOMMANDS_Decoder_SetUnknownFeature1RelativeConfigChangedCallback
 .text.ARCOMMANDS_Decoder_SetUnknownFeature1AnimRunCb
                0x0004a794       0x22 /home/ncs/CAPSTONE/out/arsdk-native/build/libARCommands/obj/gen/Sources/ARCOMMANDS_Decoder.c.o
                0x0004a794                ARCOMMANDS_Decoder_SetUnknownFeature1AnimRunCb
 *fill*         0x0004a7b6        0x2 
 .text.ARCOMMANDS_Decoder_SetUnknownFeature1AnimRunCallback
                0x0004a7b8       0x34 /home/ncs/CAPSTONE/out/arsdk-native/build/libARCommands/obj/gen/Sources/ARCOMMANDS_Decoder.c.o
                0x0004a7b8                ARCOMMANDS_Decoder_SetUnknownFeature1AnimRunCallback
 .text.ARCOMMANDS_Decoder_SetUnknownFeature1SpiralAnimConfigChangedCb
                0x0004a7ec       0x22 /home/ncs/CAPSTONE/out/arsdk-native/build/libARCommands/obj/gen/Sources/ARCOMMANDS_Decoder.c.o
                0x0004a7ec                ARCOMMANDS_Decoder_SetUnknownFeature1SpiralAnimConfigChangedCb
 *fill*         0x0004a80e        0x2 
 .text.ARCOMMANDS_Decoder_SetUnknownFeature1SpiralAnimConfigChangedCallback
                0x0004a810       0x34 /home/ncs/CAPSTONE/out/arsdk-native/build/libARCommands/obj/gen/Sources/ARCOMMANDS_Decoder.c.o
                0x0004a810                ARCOMMANDS_Decoder_SetUnknownFeature1SpiralAnimConfigChangedCallback
 .text.ARCOMMANDS_Decoder_SetUnknownFeature1SwingAnimConfigChangedCb
                0x0004a844       0x22 /home/ncs/CAPSTONE/out/arsdk-native/build/libARCommands/obj/gen/Sources/ARCOMMANDS_Decoder.c.o
                0x0004a844                ARCOMMANDS_Decoder_SetUnknownFeature1SwingAnimConfigChangedCb
 *fill*         0x0004a866        0x2 
 .text.ARCOMMANDS_Decoder_SetUnknownFeature1SwingAnimConfigChangedCallback
                0x0004a868       0x34 /home/ncs/CAPSTONE/out/arsdk-native/build/libARCommands/obj/gen/Sources/ARCOMMANDS_Decoder.c.o
                0x0004a868                ARCOMMANDS_Decoder_SetUnknownFeature1SwingAnimConfigChangedCallback
 .text.ARCOMMANDS_Decoder_SetUnknownFeature1BoomerangAnimConfigChangedCb
                0x0004a89c       0x22 /home/ncs/CAPSTONE/out/arsdk-native/build/libARCommands/obj/gen/Sources/ARCOMMANDS_Decoder.c.o
                0x0004a89c                ARCOMMANDS_Decoder_SetUnknownFeature1BoomerangAnimConfigChangedCb
 *fill*         0x0004a8be        0x2 
 .text.ARCOMMANDS_Decoder_SetUnknownFeature1BoomerangAnimConfigChangedCallback
                0x0004a8c0       0x34 /home/ncs/CAPSTONE/out/arsdk-native/build/libARCommands/obj/gen/Sources/ARCOMMANDS_Decoder.c.o
                0x0004a8c0                ARCOMMANDS_Decoder_SetUnknownFeature1BoomerangAnimConfigChangedCallback
 .text.ARCOMMANDS_Decoder_SetUnknownFeature1CandleAnimConfigChangedCb
                0x0004a8f4       0x22 /home/ncs/CAPSTONE/out/arsdk-native/build/libARCommands/obj/gen/Sources/ARCOMMANDS_Decoder.c.o
                0x0004a8f4                ARCOMMANDS_Decoder_SetUnknownFeature1CandleAnimConfigChangedCb
 *fill*         0x0004a916        0x2 
 .text.ARCOMMANDS_Decoder_SetUnknownFeature1CandleAnimConfigChangedCallback
                0x0004a918       0x34 /home/ncs/CAPSTONE/out/arsdk-native/build/libARCommands/obj/gen/Sources/ARCOMMANDS_Decoder.c.o
                0x0004a918                ARCOMMANDS_Decoder_SetUnknownFeature1CandleAnimConfigChangedCallback
 .text.ARCOMMANDS_Decoder_SetUnknownFeature1DollySlideAnimConfigChangedCb
                0x0004a94c       0x22 /home/ncs/CAPSTONE/out/arsdk-native/build/libARCommands/obj/gen/Sources/ARCOMMANDS_Decoder.c.o
                0x0004a94c                ARCOMMANDS_Decoder_SetUnknownFeature1DollySlideAnimConfigChangedCb
 *fill*         0x0004a96e        0x2 
 .text.ARCOMMANDS_Decoder_SetUnknownFeature1DollySlideAnimConfigChangedCallback
                0x0004a970       0x34 /home/ncs/CAPSTONE/out/arsdk-native/build/libARCommands/obj/gen/Sources/ARCOMMANDS_Decoder.c.o
                0x0004a970                ARCOMMANDS_Decoder_SetUnknownFeature1DollySlideAnimConfigChangedCallback
 .text.ARCOMMANDS_Decoder_SetUnknownFeature1UserFramingPositionChangedCb
                0x0004a9a4       0x22 /home/ncs/CAPSTONE/out/arsdk-native/build/libARCommands/obj/gen/Sources/ARCOMMANDS_Decoder.c.o
                0x0004a9a4                ARCOMMANDS_Decoder_SetUnknownFeature1UserFramingPositionChangedCb
 *fill*         0x0004a9c6        0x2 
 .text.ARCOMMANDS_Decoder_SetUnknownFeature1UserFramingPositionChangedCallback
                0x0004a9c8       0x34 /home/ncs/CAPSTONE/out/arsdk-native/build/libARCommands/obj/gen/Sources/ARCOMMANDS_Decoder.c.o
                0x0004a9c8                ARCOMMANDS_Decoder_SetUnknownFeature1UserFramingPositionChangedCallback
 .text.ARCOMMANDS_Decoder_SetWifiScanCb
                0x0004a9fc       0x22 /home/ncs/CAPSTONE/out/arsdk-native/build/libARCommands/obj/gen/Sources/ARCOMMANDS_Decoder.c.o
                0x0004a9fc                ARCOMMANDS_Decoder_SetWifiScanCb
 *fill*         0x0004aa1e        0x2 
 .text.ARCOMMANDS_Decoder_SetWifiScanCallback
                0x0004aa20       0x34 /home/ncs/CAPSTONE/out/arsdk-native/build/libARCommands/obj/gen/Sources/ARCOMMANDS_Decoder.c.o
                0x0004aa20                ARCOMMANDS_Decoder_SetWifiScanCallback
 .text.ARCOMMANDS_Decoder_SetWifiUpdateAuthorizedChannelsCb
                0x0004aa54       0x22 /home/ncs/CAPSTONE/out/arsdk-native/build/libARCommands/obj/gen/Sources/ARCOMMANDS_Decoder.c.o
                0x0004aa54                ARCOMMANDS_Decoder_SetWifiUpdateAuthorizedChannelsCb
 *fill*         0x0004aa76        0x2 
 .text.ARCOMMANDS_Decoder_SetWifiUpdateAuthorizedChannelsCallback
                0x0004aa78       0x34 /home/ncs/CAPSTONE/out/arsdk-native/build/libARCommands/obj/gen/Sources/ARCOMMANDS_Decoder.c.o
                0x0004aa78                ARCOMMANDS_Decoder_SetWifiUpdateAuthorizedChannelsCallback
 .text.ARCOMMANDS_Decoder_SetWifiSetApChannelCb
                0x0004aaac       0x22 /home/ncs/CAPSTONE/out/arsdk-native/build/libARCommands/obj/gen/Sources/ARCOMMANDS_Decoder.c.o
                0x0004aaac                ARCOMMANDS_Decoder_SetWifiSetApChannelCb
 *fill*         0x0004aace        0x2 
 .text.ARCOMMANDS_Decoder_SetWifiSetApChannelCallback
                0x0004aad0       0x34 /home/ncs/CAPSTONE/out/arsdk-native/build/libARCommands/obj/gen/Sources/ARCOMMANDS_Decoder.c.o
                0x0004aad0                ARCOMMANDS_Decoder_SetWifiSetApChannelCallback
 .text.ARCOMMANDS_Decoder_SetWifiSetSecurityCb
                0x0004ab04       0x22 /home/ncs/CAPSTONE/out/arsdk-native/build/libARCommands/obj/gen/Sources/ARCOMMANDS_Decoder.c.o
                0x0004ab04                ARCOMMANDS_Decoder_SetWifiSetSecurityCb
 *fill*         0x0004ab26        0x2 
 .text.ARCOMMANDS_Decoder_SetWifiSetSecurityCallback
                0x0004ab28       0x34 /home/ncs/CAPSTONE/out/arsdk-native/build/libARCommands/obj/gen/Sources/ARCOMMANDS_Decoder.c.o
                0x0004ab28                ARCOMMANDS_Decoder_SetWifiSetSecurityCallback
 .text.ARCOMMANDS_Decoder_SetWifiSetCountryCb
                0x0004ab5c       0x22 /home/ncs/CAPSTONE/out/arsdk-native/build/libARCommands/obj/gen/Sources/ARCOMMANDS_Decoder.c.o
                0x0004ab5c                ARCOMMANDS_Decoder_SetWifiSetCountryCb
 *fill*         0x0004ab7e        0x2 
 .text.ARCOMMANDS_Decoder_SetWifiSetCountryCallback
                0x0004ab80       0x34 /home/ncs/CAPSTONE/out/arsdk-native/build/libARCommands/obj/gen/Sources/ARCOMMANDS_Decoder.c.o
                0x0004ab80                ARCOMMANDS_Decoder_SetWifiSetCountryCallback
 .text.ARCOMMANDS_Decoder_SetWifiSetEnvironmentCb
                0x0004abb4       0x22 /home/ncs/CAPSTONE/out/arsdk-native/build/libARCommands/obj/gen/Sources/ARCOMMANDS_Decoder.c.o
                0x0004abb4                ARCOMMANDS_Decoder_SetWifiSetEnvironmentCb
 *fill*         0x0004abd6        0x2 
 .text.ARCOMMANDS_Decoder_SetWifiSetEnvironmentCallback
                0x0004abd8       0x34 /home/ncs/CAPSTONE/out/arsdk-native/build/libARCommands/obj/gen/Sources/ARCOMMANDS_Decoder.c.o
                0x0004abd8                ARCOMMANDS_Decoder_SetWifiSetEnvironmentCallback
 .text.ARCOMMANDS_Decoder_SetWifiScannedItemCb
                0x0004ac0c       0x22 /home/ncs/CAPSTONE/out/arsdk-native/build/libARCommands/obj/gen/Sources/ARCOMMANDS_Decoder.c.o
                0x0004ac0c                ARCOMMANDS_Decoder_SetWifiScannedItemCb
 *fill*         0x0004ac2e        0x2 
 .text.ARCOMMANDS_Decoder_SetWifiScannedItemCallback
                0x0004ac30       0x34 /home/ncs/CAPSTONE/out/arsdk-native/build/libARCommands/obj/gen/Sources/ARCOMMANDS_Decoder.c.o
                0x0004ac30                ARCOMMANDS_Decoder_SetWifiScannedItemCallback
 .text.ARCOMMANDS_Decoder_SetWifiAuthorizedChannelCb
                0x0004ac64       0x22 /home/ncs/CAPSTONE/out/arsdk-native/build/libARCommands/obj/gen/Sources/ARCOMMANDS_Decoder.c.o
                0x0004ac64                ARCOMMANDS_Decoder_SetWifiAuthorizedChannelCb
 *fill*         0x0004ac86        0x2 
 .text.ARCOMMANDS_Decoder_SetWifiAuthorizedChannelCallback
                0x0004ac88       0x34 /home/ncs/CAPSTONE/out/arsdk-native/build/libARCommands/obj/gen/Sources/ARCOMMANDS_Decoder.c.o
                0x0004ac88                ARCOMMANDS_Decoder_SetWifiAuthorizedChannelCallback
 .text.ARCOMMANDS_Decoder_SetWifiApChannelChangedCb
                0x0004acbc       0x22 /home/ncs/CAPSTONE/out/arsdk-native/build/libARCommands/obj/gen/Sources/ARCOMMANDS_Decoder.c.o
                0x0004acbc                ARCOMMANDS_Decoder_SetWifiApChannelChangedCb
 *fill*         0x0004acde        0x2 
 .text.ARCOMMANDS_Decoder_SetWifiApChannelChangedCallback
                0x0004ace0       0x34 /home/ncs/CAPSTONE/out/arsdk-native/build/libARCommands/obj/gen/Sources/ARCOMMANDS_Decoder.c.o
                0x0004ace0                ARCOMMANDS_Decoder_SetWifiApChannelChangedCallback
 .text.ARCOMMANDS_Decoder_SetWifiSecurityChangedCb
                0x0004ad14       0x22 /home/ncs/CAPSTONE/out/arsdk-native/build/libARCommands/obj/gen/Sources/ARCOMMANDS_Decoder.c.o
                0x0004ad14                ARCOMMANDS_Decoder_SetWifiSecurityChangedCb
 *fill*         0x0004ad36        0x2 
 .text.ARCOMMANDS_Decoder_SetWifiSecurityChangedCallback
                0x0004ad38       0x34 /home/ncs/CAPSTONE/out/arsdk-native/build/libARCommands/obj/gen/Sources/ARCOMMANDS_Decoder.c.o
                0x0004ad38                ARCOMMANDS_Decoder_SetWifiSecurityChangedCallback
 .text.ARCOMMANDS_Decoder_SetWifiCountryChangedCb
                0x0004ad6c       0x22 /home/ncs/CAPSTONE/out/arsdk-native/build/libARCommands/obj/gen/Sources/ARCOMMANDS_Decoder.c.o
                0x0004ad6c                ARCOMMANDS_Decoder_SetWifiCountryChangedCb
 *fill*         0x0004ad8e        0x2 
 .text.ARCOMMANDS_Decoder_SetWifiCountryChangedCallback
                0x0004ad90       0x34 /home/ncs/CAPSTONE/out/arsdk-native/build/libARCommands/obj/gen/Sources/ARCOMMANDS_Decoder.c.o
                0x0004ad90                ARCOMMANDS_Decoder_SetWifiCountryChangedCallback
 .text.ARCOMMANDS_Decoder_SetWifiEnvironmentChangedCb
                0x0004adc4       0x22 /home/ncs/CAPSTONE/out/arsdk-native/build/libARCommands/obj/gen/Sources/ARCOMMANDS_Decoder.c.o
                0x0004adc4                ARCOMMANDS_Decoder_SetWifiEnvironmentChangedCb
 *fill*         0x0004ade6        0x2 
 .text.ARCOMMANDS_Decoder_SetWifiEnvironmentChangedCallback
                0x0004ade8       0x34 /home/ncs/CAPSTONE/out/arsdk-native/build/libARCommands/obj/gen/Sources/ARCOMMANDS_Decoder.c.o
                0x0004ade8                ARCOMMANDS_Decoder_SetWifiEnvironmentChangedCallback
 .text.ARCOMMANDS_Decoder_SetWifiRssiChangedCb
                0x0004ae1c       0x24 /home/ncs/CAPSTONE/out/arsdk-native/build/libARCommands/obj/gen/Sources/ARCOMMANDS_Decoder.c.o
                0x0004ae1c                ARCOMMANDS_Decoder_SetWifiRssiChangedCb
 .text.ARCOMMANDS_Decoder_SetWifiRssiChangedCallback
                0x0004ae40       0x3c /home/ncs/CAPSTONE/out/arsdk-native/build/libARCommands/obj/gen/Sources/ARCOMMANDS_Decoder.c.o
                0x0004ae40                ARCOMMANDS_Decoder_SetWifiRssiChangedCallback
 .text.ARCOMMANDS_Decoder_DecodeCommand
                0x0004ae7c    0x16a3c /home/ncs/CAPSTONE/out/arsdk-native/build/libARCommands/obj/gen/Sources/ARCOMMANDS_Decoder.c.o
                0x0004ae7c                ARCOMMANDS_Decoder_DecodeCommand
 .text.ARCOMMANDS_Decoder_DecodeBuffer
                0x000618b8        0xa /home/ncs/CAPSTONE/out/arsdk-native/build/libARCommands/obj/gen/Sources/ARCOMMANDS_Decoder.c.o
                0x000618b8                ARCOMMANDS_Decoder_DecodeBuffer
 *fill*         0x000618c2        0x2 
 .text.ARCOMMANDS_Decoder_DescribeBuffer
                0x000618c4     0xff34 /home/ncs/CAPSTONE/out/arsdk-native/build/libARCommands/obj/gen/Sources/ARCOMMANDS_Decoder.c.o
                0x000618c4                ARCOMMANDS_Decoder_DescribeBuffer
 .text.ARCOMMANDS_Filter_NewFilter
                0x000717f8      0x7ec /home/ncs/CAPSTONE/out/arsdk-native/build/libARCommands/obj/gen/Sources/ARCOMMANDS_Filter.c.o
                0x000717f8                ARCOMMANDS_Filter_NewFilter
 .text.ARCOMMANDS_Filter_DeleteFilter
                0x00071fe4       0x14 /home/ncs/CAPSTONE/out/arsdk-native/build/libARCommands/obj/gen/Sources/ARCOMMANDS_Filter.c.o
                0x00071fe4                ARCOMMANDS_Filter_DeleteFilter
 .text.ARCOMMANDS_Filter_FilterCommand
                0x00071ff8     0x1b68 /home/ncs/CAPSTONE/out/arsdk-native/build/libARCommands/obj/gen/Sources/ARCOMMANDS_Filter.c.o
                0x00071ff8                ARCOMMANDS_Filter_FilterCommand
 .text.ARCOMMANDS_Filter_SetGenericDefaultBehavior
                0x00073b60       0x1a /home/ncs/CAPSTONE/out/arsdk-native/build/libARCommands/obj/gen/Sources/ARCOMMANDS_Filter.c.o
                0x00073b60                ARCOMMANDS_Filter_SetGenericDefaultBehavior
 .text.ARCOMMANDS_Filter_SetGenericBehavior
                0x00073b7a        0x4 /home/ncs/CAPSTONE/out/arsdk-native/build/libARCommands/obj/gen/Sources/ARCOMMANDS_Filter.c.o
                0x00073b7a                ARCOMMANDS_Filter_SetGenericBehavior
 .text.ARCOMMANDS_Filter_SetARDrone3Behavior
                0x00073b7e      0x210 /home/ncs/CAPSTONE/out/arsdk-native/build/libARCommands/obj/gen/Sources/ARCOMMANDS_Filter.c.o
                0x00073b7e                ARCOMMANDS_Filter_SetARDrone3Behavior
 .text.ARCOMMANDS_Filter_SetARDrone3PilotingBehavior
                0x00073d8e       0x2c /home/ncs/CAPSTONE/out/arsdk-native/build/libARCommands/obj/gen/Sources/ARCOMMANDS_Filter.c.o
                0x00073d8e                ARCOMMANDS_Filter_SetARDrone3PilotingBehavior
 .text.ARCOMMANDS_Filter_SetARDrone3MediaRecordBehavior
                0x00073dba       0x20 /home/ncs/CAPSTONE/out/arsdk-native/build/libARCommands/obj/gen/Sources/ARCOMMANDS_Filter.c.o
                0x00073dba                ARCOMMANDS_Filter_SetARDrone3MediaRecordBehavior
 .text.ARCOMMANDS_Filter_SetARDrone3MediaRecordStateBehavior
                0x00073dda       0x2c /home/ncs/CAPSTONE/out/arsdk-native/build/libARCommands/obj/gen/Sources/ARCOMMANDS_Filter.c.o
                0x00073dda                ARCOMMANDS_Filter_SetARDrone3MediaRecordStateBehavior
 .text.ARCOMMANDS_Filter_SetARDrone3MediaRecordEventBehavior
                0x00073e06       0x20 /home/ncs/CAPSTONE/out/arsdk-native/build/libARCommands/obj/gen/Sources/ARCOMMANDS_Filter.c.o
                0x00073e06                ARCOMMANDS_Filter_SetARDrone3MediaRecordEventBehavior
 .text.ARCOMMANDS_Filter_SetARDrone3PilotingStateBehavior
                0x00073e26       0x44 /home/ncs/CAPSTONE/out/arsdk-native/build/libARCommands/obj/gen/Sources/ARCOMMANDS_Filter.c.o
                0x00073e26                ARCOMMANDS_Filter_SetARDrone3PilotingStateBehavior
 .text.ARCOMMANDS_Filter_SetARDrone3NetworkBehavior
                0x00073e6a       0x1c /home/ncs/CAPSTONE/out/arsdk-native/build/libARCommands/obj/gen/Sources/ARCOMMANDS_Filter.c.o
                0x00073e6a                ARCOMMANDS_Filter_SetARDrone3NetworkBehavior
 .text.ARCOMMANDS_Filter_SetARDrone3NetworkStateBehavior
                0x00073e86       0x28 /home/ncs/CAPSTONE/out/arsdk-native/build/libARCommands/obj/gen/Sources/ARCOMMANDS_Filter.c.o
                0x00073e86                ARCOMMANDS_Filter_SetARDrone3NetworkStateBehavior
 .text.ARCOMMANDS_Filter_SetARDrone3PilotingSettingsBehavior
                0x00073eae       0x3e /home/ncs/CAPSTONE/out/arsdk-native/build/libARCommands/obj/gen/Sources/ARCOMMANDS_Filter.c.o
                0x00073eae                ARCOMMANDS_Filter_SetARDrone3PilotingSettingsBehavior
 .text.ARCOMMANDS_Filter_SetARDrone3PilotingSettingsStateBehavior
                0x00073eec       0x58 /home/ncs/CAPSTONE/out/arsdk-native/build/libARCommands/obj/gen/Sources/ARCOMMANDS_Filter.c.o
                0x00073eec                ARCOMMANDS_Filter_SetARDrone3PilotingSettingsStateBehavior
 .text.ARCOMMANDS_Filter_SetARDrone3SpeedSettingsBehavior
                0x00073f44       0x2c /home/ncs/CAPSTONE/out/arsdk-native/build/libARCommands/obj/gen/Sources/ARCOMMANDS_Filter.c.o
                0x00073f44                ARCOMMANDS_Filter_SetARDrone3SpeedSettingsBehavior
 .text.ARCOMMANDS_Filter_SetARDrone3SpeedSettingsStateBehavior
                0x00073f70       0x2c /home/ncs/CAPSTONE/out/arsdk-native/build/libARCommands/obj/gen/Sources/ARCOMMANDS_Filter.c.o
                0x00073f70                ARCOMMANDS_Filter_SetARDrone3SpeedSettingsStateBehavior
 .text.ARCOMMANDS_Filter_SetARDrone3NetworkSettingsBehavior
                0x00073f9c       0x20 /home/ncs/CAPSTONE/out/arsdk-native/build/libARCommands/obj/gen/Sources/ARCOMMANDS_Filter.c.o
                0x00073f9c                ARCOMMANDS_Filter_SetARDrone3NetworkSettingsBehavior
 .text.ARCOMMANDS_Filter_SetARDrone3NetworkSettingsStateBehavior
                0x00073fbc       0x24 /home/ncs/CAPSTONE/out/arsdk-native/build/libARCommands/obj/gen/Sources/ARCOMMANDS_Filter.c.o
                0x00073fbc                ARCOMMANDS_Filter_SetARDrone3NetworkSettingsStateBehavior
 .text.ARCOMMANDS_Filter_SetARDrone3SettingsStateBehavior
                0x00073fe0       0x38 /home/ncs/CAPSTONE/out/arsdk-native/build/libARCommands/obj/gen/Sources/ARCOMMANDS_Filter.c.o
                0x00073fe0                ARCOMMANDS_Filter_SetARDrone3SettingsStateBehavior
 .text.ARCOMMANDS_Filter_SetARDrone3PictureSettingsBehavior
                0x00074018       0x40 /home/ncs/CAPSTONE/out/arsdk-native/build/libARCommands/obj/gen/Sources/ARCOMMANDS_Filter.c.o
                0x00074018                ARCOMMANDS_Filter_SetARDrone3PictureSettingsBehavior
 .text.ARCOMMANDS_Filter_SetARDrone3PictureSettingsStateBehavior
                0x00074058       0x40 /home/ncs/CAPSTONE/out/arsdk-native/build/libARCommands/obj/gen/Sources/ARCOMMANDS_Filter.c.o
                0x00074058                ARCOMMANDS_Filter_SetARDrone3PictureSettingsStateBehavior
 .text.ARCOMMANDS_Filter_SetARDrone3MediaStreamingBehavior
                0x00074098       0x20 /home/ncs/CAPSTONE/out/arsdk-native/build/libARCommands/obj/gen/Sources/ARCOMMANDS_Filter.c.o
                0x00074098                ARCOMMANDS_Filter_SetARDrone3MediaStreamingBehavior
 .text.ARCOMMANDS_Filter_SetARDrone3MediaStreamingStateBehavior
                0x000740b8       0x20 /home/ncs/CAPSTONE/out/arsdk-native/build/libARCommands/obj/gen/Sources/ARCOMMANDS_Filter.c.o
                0x000740b8                ARCOMMANDS_Filter_SetARDrone3MediaStreamingStateBehavior
 .text.ARCOMMANDS_Filter_SetARDrone3GPSSettingsBehavior
                0x000740d8       0x2c /home/ncs/CAPSTONE/out/arsdk-native/build/libARCommands/obj/gen/Sources/ARCOMMANDS_Filter.c.o
                0x000740d8                ARCOMMANDS_Filter_SetARDrone3GPSSettingsBehavior
 .text.ARCOMMANDS_Filter_SetARDrone3GPSSettingsStateBehavior
                0x00074104       0x30 /home/ncs/CAPSTONE/out/arsdk-native/build/libARCommands/obj/gen/Sources/ARCOMMANDS_Filter.c.o
                0x00074104                ARCOMMANDS_Filter_SetARDrone3GPSSettingsStateBehavior
 .text.ARCOMMANDS_Filter_SetARDrone3CameraStateBehavior
                0x00074134       0x20 /home/ncs/CAPSTONE/out/arsdk-native/build/libARCommands/obj/gen/Sources/ARCOMMANDS_Filter.c.o
                0x00074134                ARCOMMANDS_Filter_SetARDrone3CameraStateBehavior
 .text.ARCOMMANDS_Filter_SetARDrone3AntiflickeringBehavior
                0x00074154       0x20 /home/ncs/CAPSTONE/out/arsdk-native/build/libARCommands/obj/gen/Sources/ARCOMMANDS_Filter.c.o
                0x00074154                ARCOMMANDS_Filter_SetARDrone3AntiflickeringBehavior
 .text.ARCOMMANDS_Filter_SetARDrone3AntiflickeringStateBehavior
                0x00074174       0x20 /home/ncs/CAPSTONE/out/arsdk-native/build/libARCommands/obj/gen/Sources/ARCOMMANDS_Filter.c.o
                0x00074174                ARCOMMANDS_Filter_SetARDrone3AntiflickeringStateBehavior
 .text.ARCOMMANDS_Filter_SetARDrone3GPSStateBehavior
                0x00074194       0x24 /home/ncs/CAPSTONE/out/arsdk-native/build/libARCommands/obj/gen/Sources/ARCOMMANDS_Filter.c.o
                0x00074194                ARCOMMANDS_Filter_SetARDrone3GPSStateBehavior
 .text.ARCOMMANDS_Filter_SetARDrone3PilotingFlatTrimBehavior
                0x000741b8       0x1a /home/ncs/CAPSTONE/out/arsdk-native/build/libARCommands/obj/gen/Sources/ARCOMMANDS_Filter.c.o
                0x000741b8                ARCOMMANDS_Filter_SetARDrone3PilotingFlatTrimBehavior
 .text.ARCOMMANDS_Filter_SetARDrone3PilotingTakeOffBehavior
                0x000741d2       0x1a /home/ncs/CAPSTONE/out/arsdk-native/build/libARCommands/obj/gen/Sources/ARCOMMANDS_Filter.c.o
                0x000741d2                ARCOMMANDS_Filter_SetARDrone3PilotingTakeOffBehavior
 .text.ARCOMMANDS_Filter_SetARDrone3PilotingPCMDBehavior
                0x000741ec       0x1a /home/ncs/CAPSTONE/out/arsdk-native/build/libARCommands/obj/gen/Sources/ARCOMMANDS_Filter.c.o
                0x000741ec                ARCOMMANDS_Filter_SetARDrone3PilotingPCMDBehavior
 .text.ARCOMMANDS_Filter_SetARDrone3PilotingLandingBehavior
                0x00074206       0x1a /home/ncs/CAPSTONE/out/arsdk-native/build/libARCommands/obj/gen/Sources/ARCOMMANDS_Filter.c.o
                0x00074206                ARCOMMANDS_Filter_SetARDrone3PilotingLandingBehavior
 .text.ARCOMMANDS_Filter_SetARDrone3PilotingEmergencyBehavior
                0x00074220       0x1a /home/ncs/CAPSTONE/out/arsdk-native/build/libARCommands/obj/gen/Sources/ARCOMMANDS_Filter.c.o
                0x00074220                ARCOMMANDS_Filter_SetARDrone3PilotingEmergencyBehavior
 .text.ARCOMMANDS_Filter_SetARDrone3PilotingNavigateHomeBehavior
                0x0007423a       0x1a /home/ncs/CAPSTONE/out/arsdk-native/build/libARCommands/obj/gen/Sources/ARCOMMANDS_Filter.c.o
                0x0007423a                ARCOMMANDS_Filter_SetARDrone3PilotingNavigateHomeBehavior
 .text.ARCOMMANDS_Filter_SetARDrone3PilotingAutoTakeOffModeBehavior
                0x00074254       0x1a /home/ncs/CAPSTONE/out/arsdk-native/build/libARCommands/obj/gen/Sources/ARCOMMANDS_Filter.c.o
                0x00074254                ARCOMMANDS_Filter_SetARDrone3PilotingAutoTakeOffModeBehavior
 .text.ARCOMMANDS_Filter_SetARDrone3PilotingMoveByBehavior
                0x0007426e       0x1a /home/ncs/CAPSTONE/out/arsdk-native/build/libARCommands/obj/gen/Sources/ARCOMMANDS_Filter.c.o
                0x0007426e                ARCOMMANDS_Filter_SetARDrone3PilotingMoveByBehavior
 .text.ARCOMMANDS_Filter_SetARDrone3PilotingUserTakeOffBehavior
                0x00074288       0x1a /home/ncs/CAPSTONE/out/arsdk-native/build/libARCommands/obj/gen/Sources/ARCOMMANDS_Filter.c.o
                0x00074288                ARCOMMANDS_Filter_SetARDrone3PilotingUserTakeOffBehavior
 .text.ARCOMMANDS_Filter_SetARDrone3PilotingCircleBehavior
                0x000742a2       0x1a /home/ncs/CAPSTONE/out/arsdk-native/build/libARCommands/obj/gen/Sources/ARCOMMANDS_Filter.c.o
                0x000742a2                ARCOMMANDS_Filter_SetARDrone3PilotingCircleBehavior
 .text.ARCOMMANDS_Filter_SetARDrone3AnimationsFlipBehavior
                0x000742bc       0x1a /home/ncs/CAPSTONE/out/arsdk-native/build/libARCommands/obj/gen/Sources/ARCOMMANDS_Filter.c.o
                0x000742bc                ARCOMMANDS_Filter_SetARDrone3AnimationsFlipBehavior
 .text.ARCOMMANDS_Filter_SetARDrone3AnimationsBehavior
                0x000742d6        0x4 /home/ncs/CAPSTONE/out/arsdk-native/build/libARCommands/obj/gen/Sources/ARCOMMANDS_Filter.c.o
                0x000742d6                ARCOMMANDS_Filter_SetARDrone3AnimationsBehavior
 .text.ARCOMMANDS_Filter_SetARDrone3CameraOrientationBehavior
                0x000742da       0x1a /home/ncs/CAPSTONE/out/arsdk-native/build/libARCommands/obj/gen/Sources/ARCOMMANDS_Filter.c.o
                0x000742da                ARCOMMANDS_Filter_SetARDrone3CameraOrientationBehavior
 .text.ARCOMMANDS_Filter_SetARDrone3CameraBehavior
                0x000742f4        0x4 /home/ncs/CAPSTONE/out/arsdk-native/build/libARCommands/obj/gen/Sources/ARCOMMANDS_Filter.c.o
                0x000742f4                ARCOMMANDS_Filter_SetARDrone3CameraBehavior
 .text.ARCOMMANDS_Filter_SetARDrone3MediaRecordPictureBehavior
                0x000742f8       0x1a /home/ncs/CAPSTONE/out/arsdk-native/build/libARCommands/obj/gen/Sources/ARCOMMANDS_Filter.c.o
                0x000742f8                ARCOMMANDS_Filter_SetARDrone3MediaRecordPictureBehavior
 .text.ARCOMMANDS_Filter_SetARDrone3MediaRecordVideoBehavior
                0x00074312       0x1a /home/ncs/CAPSTONE/out/arsdk-native/build/libARCommands/obj/gen/Sources/ARCOMMANDS_Filter.c.o
                0x00074312                ARCOMMANDS_Filter_SetARDrone3MediaRecordVideoBehavior
 .text.ARCOMMANDS_Filter_SetARDrone3MediaRecordPictureV2Behavior
                0x0007432c       0x1a /home/ncs/CAPSTONE/out/arsdk-native/build/libARCommands/obj/gen/Sources/ARCOMMANDS_Filter.c.o
                0x0007432c                ARCOMMANDS_Filter_SetARDrone3MediaRecordPictureV2Behavior
 .text.ARCOMMANDS_Filter_SetARDrone3MediaRecordVideoV2Behavior
                0x00074346       0x1a /home/ncs/CAPSTONE/out/arsdk-native/build/libARCommands/obj/gen/Sources/ARCOMMANDS_Filter.c.o
                0x00074346                ARCOMMANDS_Filter_SetARDrone3MediaRecordVideoV2Behavior
 .text.ARCOMMANDS_Filter_SetARDrone3NetworkWifiScanBehavior
                0x00074360       0x1a /home/ncs/CAPSTONE/out/arsdk-native/build/libARCommands/obj/gen/Sources/ARCOMMANDS_Filter.c.o
                0x00074360                ARCOMMANDS_Filter_SetARDrone3NetworkWifiScanBehavior
 .text.ARCOMMANDS_Filter_SetARDrone3NetworkWifiAuthChannelBehavior
                0x0007437a       0x1a /home/ncs/CAPSTONE/out/arsdk-native/build/libARCommands/obj/gen/Sources/ARCOMMANDS_Filter.c.o
                0x0007437a                ARCOMMANDS_Filter_SetARDrone3NetworkWifiAuthChannelBehavior
 .text.ARCOMMANDS_Filter_SetARDrone3PilotingSettingsMaxAltitudeBehavior
                0x00074394       0x1a /home/ncs/CAPSTONE/out/arsdk-native/build/libARCommands/obj/gen/Sources/ARCOMMANDS_Filter.c.o
                0x00074394                ARCOMMANDS_Filter_SetARDrone3PilotingSettingsMaxAltitudeBehavior
 .text.ARCOMMANDS_Filter_SetARDrone3PilotingSettingsMaxTiltBehavior
                0x000743ae       0x1a /home/ncs/CAPSTONE/out/arsdk-native/build/libARCommands/obj/gen/Sources/ARCOMMANDS_Filter.c.o
                0x000743ae                ARCOMMANDS_Filter_SetARDrone3PilotingSettingsMaxTiltBehavior
 .text.ARCOMMANDS_Filter_SetARDrone3PilotingSettingsAbsolutControlBehavior
                0x000743c8       0x1a /home/ncs/CAPSTONE/out/arsdk-native/build/libARCommands/obj/gen/Sources/ARCOMMANDS_Filter.c.o
                0x000743c8                ARCOMMANDS_Filter_SetARDrone3PilotingSettingsAbsolutControlBehavior
 .text.ARCOMMANDS_Filter_SetARDrone3PilotingSettingsMaxDistanceBehavior
                0x000743e2       0x1a /home/ncs/CAPSTONE/out/arsdk-native/build/libARCommands/obj/gen/Sources/ARCOMMANDS_Filter.c.o
                0x000743e2                ARCOMMANDS_Filter_SetARDrone3PilotingSettingsMaxDistanceBehavior
 .text.ARCOMMANDS_Filter_SetARDrone3PilotingSettingsNoFlyOverMaxDistanceBehavior
                0x000743fc       0x1a /home/ncs/CAPSTONE/out/arsdk-native/build/libARCommands/obj/gen/Sources/ARCOMMANDS_Filter.c.o
                0x000743fc                ARCOMMANDS_Filter_SetARDrone3PilotingSettingsNoFlyOverMaxDistanceBehavior
 .text.ARCOMMANDS_Filter_SetARDrone3PilotingSettingsSetAutonomousFlightMaxHorizontalSpeedBehavior
                0x00074416       0x1a /home/ncs/CAPSTONE/out/arsdk-native/build/libARCommands/obj/gen/Sources/ARCOMMANDS_Filter.c.o
                0x00074416                ARCOMMANDS_Filter_SetARDrone3PilotingSettingsSetAutonomousFlightMaxHorizontalSpeedBehavior
 .text.ARCOMMANDS_Filter_SetARDrone3PilotingSettingsSetAutonomousFlightMaxVerticalSpeedBehavior
                0x00074430       0x1a /home/ncs/CAPSTONE/out/arsdk-native/build/libARCommands/obj/gen/Sources/ARCOMMANDS_Filter.c.o
                0x00074430                ARCOMMANDS_Filter_SetARDrone3PilotingSettingsSetAutonomousFlightMaxVerticalSpeedBehavior
 .text.ARCOMMANDS_Filter_SetARDrone3PilotingSettingsSetAutonomousFlightMaxHorizontalAccelerationBehavior
                0x0007444a       0x1a /home/ncs/CAPSTONE/out/arsdk-native/build/libARCommands/obj/gen/Sources/ARCOMMANDS_Filter.c.o
                0x0007444a                ARCOMMANDS_Filter_SetARDrone3PilotingSettingsSetAutonomousFlightMaxHorizontalAccelerationBehavior
 .text.ARCOMMANDS_Filter_SetARDrone3PilotingSettingsSetAutonomousFlightMaxVerticalAccelerationBehavior
                0x00074464       0x1a /home/ncs/CAPSTONE/out/arsdk-native/build/libARCommands/obj/gen/Sources/ARCOMMANDS_Filter.c.o
                0x00074464                ARCOMMANDS_Filter_SetARDrone3PilotingSettingsSetAutonomousFlightMaxVerticalAccelerationBehavior
 .text.ARCOMMANDS_Filter_SetARDrone3PilotingSettingsSetAutonomousFlightMaxRotationSpeedBehavior
                0x0007447e       0x1a /home/ncs/CAPSTONE/out/arsdk-native/build/libARCommands/obj/gen/Sources/ARCOMMANDS_Filter.c.o
                0x0007447e                ARCOMMANDS_Filter_SetARDrone3PilotingSettingsSetAutonomousFlightMaxRotationSpeedBehavior
 .text.ARCOMMANDS_Filter_SetARDrone3PilotingSettingsBankedTurnBehavior
                0x00074498       0x1a /home/ncs/CAPSTONE/out/arsdk-native/build/libARCommands/obj/gen/Sources/ARCOMMANDS_Filter.c.o
                0x00074498                ARCOMMANDS_Filter_SetARDrone3PilotingSettingsBankedTurnBehavior
 .text.ARCOMMANDS_Filter_SetARDrone3PilotingSettingsMinAltitudeBehavior
                0x000744b2       0x1a /home/ncs/CAPSTONE/out/arsdk-native/build/libARCommands/obj/gen/Sources/ARCOMMANDS_Filter.c.o
                0x000744b2                ARCOMMANDS_Filter_SetARDrone3PilotingSettingsMinAltitudeBehavior
 .text.ARCOMMANDS_Filter_SetARDrone3PilotingSettingsCirclingDirectionBehavior
                0x000744cc       0x1a /home/ncs/CAPSTONE/out/arsdk-native/build/libARCommands/obj/gen/Sources/ARCOMMANDS_Filter.c.o
                0x000744cc                ARCOMMANDS_Filter_SetARDrone3PilotingSettingsCirclingDirectionBehavior
 .text.ARCOMMANDS_Filter_SetARDrone3PilotingSettingsCirclingRadiusBehavior
                0x000744e6       0x1c /home/ncs/CAPSTONE/out/arsdk-native/build/libARCommands/obj/gen/Sources/ARCOMMANDS_Filter.c.o
                0x000744e6                ARCOMMANDS_Filter_SetARDrone3PilotingSettingsCirclingRadiusBehavior
 .text.ARCOMMANDS_Filter_SetARDrone3PilotingSettingsCirclingAltitudeBehavior
                0x00074502       0x1c /home/ncs/CAPSTONE/out/arsdk-native/build/libARCommands/obj/gen/Sources/ARCOMMANDS_Filter.c.o
                0x00074502                ARCOMMANDS_Filter_SetARDrone3PilotingSettingsCirclingAltitudeBehavior
 .text.ARCOMMANDS_Filter_SetARDrone3PilotingSettingsPitchModeBehavior
                0x0007451e       0x1c /home/ncs/CAPSTONE/out/arsdk-native/build/libARCommands/obj/gen/Sources/ARCOMMANDS_Filter.c.o
                0x0007451e                ARCOMMANDS_Filter_SetARDrone3PilotingSettingsPitchModeBehavior
 .text.ARCOMMANDS_Filter_SetARDrone3SpeedSettingsMaxVerticalSpeedBehavior
                0x0007453a       0x1c /home/ncs/CAPSTONE/out/arsdk-native/build/libARCommands/obj/gen/Sources/ARCOMMANDS_Filter.c.o
                0x0007453a                ARCOMMANDS_Filter_SetARDrone3SpeedSettingsMaxVerticalSpeedBehavior
 .text.ARCOMMANDS_Filter_SetARDrone3SpeedSettingsMaxRotationSpeedBehavior
                0x00074556       0x1c /home/ncs/CAPSTONE/out/arsdk-native/build/libARCommands/obj/gen/Sources/ARCOMMANDS_Filter.c.o
                0x00074556                ARCOMMANDS_Filter_SetARDrone3SpeedSettingsMaxRotationSpeedBehavior
 .text.ARCOMMANDS_Filter_SetARDrone3SpeedSettingsHullProtectionBehavior
                0x00074572       0x1c /home/ncs/CAPSTONE/out/arsdk-native/build/libARCommands/obj/gen/Sources/ARCOMMANDS_Filter.c.o
                0x00074572                ARCOMMANDS_Filter_SetARDrone3SpeedSettingsHullProtectionBehavior
 .text.ARCOMMANDS_Filter_SetARDrone3SpeedSettingsOutdoorBehavior
                0x0007458e       0x1c /home/ncs/CAPSTONE/out/arsdk-native/build/libARCommands/obj/gen/Sources/ARCOMMANDS_Filter.c.o
                0x0007458e                ARCOMMANDS_Filter_SetARDrone3SpeedSettingsOutdoorBehavior
 .text.ARCOMMANDS_Filter_SetARDrone3SpeedSettingsMaxPitchRollRotationSpeedBehavior
                0x000745aa       0x1c /home/ncs/CAPSTONE/out/arsdk-native/build/libARCommands/obj/gen/Sources/ARCOMMANDS_Filter.c.o
                0x000745aa                ARCOMMANDS_Filter_SetARDrone3SpeedSettingsMaxPitchRollRotationSpeedBehavior
 .text.ARCOMMANDS_Filter_SetARDrone3NetworkSettingsWifiSelectionBehavior
                0x000745c6       0x1c /home/ncs/CAPSTONE/out/arsdk-native/build/libARCommands/obj/gen/Sources/ARCOMMANDS_Filter.c.o
                0x000745c6                ARCOMMANDS_Filter_SetARDrone3NetworkSettingsWifiSelectionBehavior
 .text.ARCOMMANDS_Filter_SetARDrone3NetworkSettingsWifiSecurityBehavior
                0x000745e2       0x1c /home/ncs/CAPSTONE/out/arsdk-native/build/libARCommands/obj/gen/Sources/ARCOMMANDS_Filter.c.o
                0x000745e2                ARCOMMANDS_Filter_SetARDrone3NetworkSettingsWifiSecurityBehavior
 .text.ARCOMMANDS_Filter_SetARDrone3PictureSettingsPictureFormatSelectionBehavior
                0x000745fe       0x1c /home/ncs/CAPSTONE/out/arsdk-native/build/libARCommands/obj/gen/Sources/ARCOMMANDS_Filter.c.o
                0x000745fe                ARCOMMANDS_Filter_SetARDrone3PictureSettingsPictureFormatSelectionBehavior
 .text.ARCOMMANDS_Filter_SetARDrone3PictureSettingsAutoWhiteBalanceSelectionBehavior
                0x0007461a       0x1c /home/ncs/CAPSTONE/out/arsdk-native/build/libARCommands/obj/gen/Sources/ARCOMMANDS_Filter.c.o
                0x0007461a                ARCOMMANDS_Filter_SetARDrone3PictureSettingsAutoWhiteBalanceSelectionBehavior
 .text.ARCOMMANDS_Filter_SetARDrone3PictureSettingsExpositionSelectionBehavior
                0x00074636       0x1c /home/ncs/CAPSTONE/out/arsdk-native/build/libARCommands/obj/gen/Sources/ARCOMMANDS_Filter.c.o
                0x00074636                ARCOMMANDS_Filter_SetARDrone3PictureSettingsExpositionSelectionBehavior
 .text.ARCOMMANDS_Filter_SetARDrone3PictureSettingsSaturationSelectionBehavior
                0x00074652       0x1c /home/ncs/CAPSTONE/out/arsdk-native/build/libARCommands/obj/gen/Sources/ARCOMMANDS_Filter.c.o
                0x00074652                ARCOMMANDS_Filter_SetARDrone3PictureSettingsSaturationSelectionBehavior
 .text.ARCOMMANDS_Filter_SetARDrone3PictureSettingsTimelapseSelectionBehavior
                0x0007466e       0x1c /home/ncs/CAPSTONE/out/arsdk-native/build/libARCommands/obj/gen/Sources/ARCOMMANDS_Filter.c.o
                0x0007466e                ARCOMMANDS_Filter_SetARDrone3PictureSettingsTimelapseSelectionBehavior
 .text.ARCOMMANDS_Filter_SetARDrone3PictureSettingsVideoAutorecordSelectionBehavior
                0x0007468a       0x1c /home/ncs/CAPSTONE/out/arsdk-native/build/libARCommands/obj/gen/Sources/ARCOMMANDS_Filter.c.o
                0x0007468a                ARCOMMANDS_Filter_SetARDrone3PictureSettingsVideoAutorecordSelectionBehavior
 .text.ARCOMMANDS_Filter_SetARDrone3PictureSettingsVideoStabilizationModeBehavior
                0x000746a6       0x1c /home/ncs/CAPSTONE/out/arsdk-native/build/libARCommands/obj/gen/Sources/ARCOMMANDS_Filter.c.o
                0x000746a6                ARCOMMANDS_Filter_SetARDrone3PictureSettingsVideoStabilizationModeBehavior
 .text.ARCOMMANDS_Filter_SetARDrone3PictureSettingsVideoRecordingModeBehavior
                0x000746c2       0x1c /home/ncs/CAPSTONE/out/arsdk-native/build/libARCommands/obj/gen/Sources/ARCOMMANDS_Filter.c.o
                0x000746c2                ARCOMMANDS_Filter_SetARDrone3PictureSettingsVideoRecordingModeBehavior
 .text.ARCOMMANDS_Filter_SetARDrone3PictureSettingsVideoFramerateBehavior
                0x000746de       0x1c /home/ncs/CAPSTONE/out/arsdk-native/build/libARCommands/obj/gen/Sources/ARCOMMANDS_Filter.c.o
                0x000746de                ARCOMMANDS_Filter_SetARDrone3PictureSettingsVideoFramerateBehavior
 .text.ARCOMMANDS_Filter_SetARDrone3PictureSettingsVideoResolutionsBehavior
                0x000746fa       0x1c /home/ncs/CAPSTONE/out/arsdk-native/build/libARCommands/obj/gen/Sources/ARCOMMANDS_Filter.c.o
                0x000746fa                ARCOMMANDS_Filter_SetARDrone3PictureSettingsVideoResolutionsBehavior
 .text.ARCOMMANDS_Filter_SetARDrone3MediaStreamingVideoEnableBehavior
                0x00074716       0x1c /home/ncs/CAPSTONE/out/arsdk-native/build/libARCommands/obj/gen/Sources/ARCOMMANDS_Filter.c.o
                0x00074716                ARCOMMANDS_Filter_SetARDrone3MediaStreamingVideoEnableBehavior
 .text.ARCOMMANDS_Filter_SetARDrone3MediaStreamingVideoStreamModeBehavior
                0x00074732       0x1c /home/ncs/CAPSTONE/out/arsdk-native/build/libARCommands/obj/gen/Sources/ARCOMMANDS_Filter.c.o
                0x00074732                ARCOMMANDS_Filter_SetARDrone3MediaStreamingVideoStreamModeBehavior
 .text.ARCOMMANDS_Filter_SetARDrone3GPSSettingsSetHomeBehavior
                0x0007474e       0x1c /home/ncs/CAPSTONE/out/arsdk-native/build/libARCommands/obj/gen/Sources/ARCOMMANDS_Filter.c.o
                0x0007474e                ARCOMMANDS_Filter_SetARDrone3GPSSettingsSetHomeBehavior
 .text.ARCOMMANDS_Filter_SetARDrone3GPSSettingsResetHomeBehavior
                0x0007476a       0x1c /home/ncs/CAPSTONE/out/arsdk-native/build/libARCommands/obj/gen/Sources/ARCOMMANDS_Filter.c.o
                0x0007476a                ARCOMMANDS_Filter_SetARDrone3GPSSettingsResetHomeBehavior
 .text.ARCOMMANDS_Filter_SetARDrone3GPSSettingsSendControllerGPSBehavior
                0x00074786       0x1c /home/ncs/CAPSTONE/out/arsdk-native/build/libARCommands/obj/gen/Sources/ARCOMMANDS_Filter.c.o
                0x00074786                ARCOMMANDS_Filter_SetARDrone3GPSSettingsSendControllerGPSBehavior
 .text.ARCOMMANDS_Filter_SetARDrone3GPSSettingsHomeTypeBehavior
                0x000747a2       0x1c /home/ncs/CAPSTONE/out/arsdk-native/build/libARCommands/obj/gen/Sources/ARCOMMANDS_Filter.c.o
                0x000747a2                ARCOMMANDS_Filter_SetARDrone3GPSSettingsHomeTypeBehavior
 .text.ARCOMMANDS_Filter_SetARDrone3GPSSettingsReturnHomeDelayBehavior
                0x000747be       0x1c /home/ncs/CAPSTONE/out/arsdk-native/build/libARCommands/obj/gen/Sources/ARCOMMANDS_Filter.c.o
                0x000747be                ARCOMMANDS_Filter_SetARDrone3GPSSettingsReturnHomeDelayBehavior
 .text.ARCOMMANDS_Filter_SetARDrone3AntiflickeringElectricFrequencyBehavior
                0x000747da       0x1c /home/ncs/CAPSTONE/out/arsdk-native/build/libARCommands/obj/gen/Sources/ARCOMMANDS_Filter.c.o
                0x000747da                ARCOMMANDS_Filter_SetARDrone3AntiflickeringElectricFrequencyBehavior
 .text.ARCOMMANDS_Filter_SetARDrone3AntiflickeringSetModeBehavior
                0x000747f6       0x1c /home/ncs/CAPSTONE/out/arsdk-native/build/libARCommands/obj/gen/Sources/ARCOMMANDS_Filter.c.o
                0x000747f6                ARCOMMANDS_Filter_SetARDrone3AntiflickeringSetModeBehavior
 .text.ARCOMMANDS_Filter_SetARDrone3MediaRecordStatePictureStateChangedBehavior
                0x00074812       0x1c /home/ncs/CAPSTONE/out/arsdk-native/build/libARCommands/obj/gen/Sources/ARCOMMANDS_Filter.c.o
                0x00074812                ARCOMMANDS_Filter_SetARDrone3MediaRecordStatePictureStateChangedBehavior
 .text.ARCOMMANDS_Filter_SetARDrone3MediaRecordStateVideoStateChangedBehavior
                0x0007482e       0x1c /home/ncs/CAPSTONE/out/arsdk-native/build/libARCommands/obj/gen/Sources/ARCOMMANDS_Filter.c.o
                0x0007482e                ARCOMMANDS_Filter_SetARDrone3MediaRecordStateVideoStateChangedBehavior
 .text.ARCOMMANDS_Filter_SetARDrone3MediaRecordStatePictureStateChangedV2Behavior
                0x0007484a       0x1c /home/ncs/CAPSTONE/out/arsdk-native/build/libARCommands/obj/gen/Sources/ARCOMMANDS_Filter.c.o
                0x0007484a                ARCOMMANDS_Filter_SetARDrone3MediaRecordStatePictureStateChangedV2Behavior
 .text.ARCOMMANDS_Filter_SetARDrone3MediaRecordStateVideoStateChangedV2Behavior
                0x00074866       0x1c /home/ncs/CAPSTONE/out/arsdk-native/build/libARCommands/obj/gen/Sources/ARCOMMANDS_Filter.c.o
                0x00074866                ARCOMMANDS_Filter_SetARDrone3MediaRecordStateVideoStateChangedV2Behavior
 .text.ARCOMMANDS_Filter_SetARDrone3MediaRecordStateVideoResolutionStateBehavior
                0x00074882       0x1c /home/ncs/CAPSTONE/out/arsdk-native/build/libARCommands/obj/gen/Sources/ARCOMMANDS_Filter.c.o
                0x00074882                ARCOMMANDS_Filter_SetARDrone3MediaRecordStateVideoResolutionStateBehavior
 .text.ARCOMMANDS_Filter_SetARDrone3MediaRecordEventPictureEventChangedBehavior
                0x0007489e       0x1c /home/ncs/CAPSTONE/out/arsdk-native/build/libARCommands/obj/gen/Sources/ARCOMMANDS_Filter.c.o
                0x0007489e                ARCOMMANDS_Filter_SetARDrone3MediaRecordEventPictureEventChangedBehavior
 .text.ARCOMMANDS_Filter_SetARDrone3MediaRecordEventVideoEventChangedBehavior
                0x000748ba       0x1c /home/ncs/CAPSTONE/out/arsdk-native/build/libARCommands/obj/gen/Sources/ARCOMMANDS_Filter.c.o
                0x000748ba                ARCOMMANDS_Filter_SetARDrone3MediaRecordEventVideoEventChangedBehavior
 .text.ARCOMMANDS_Filter_SetARDrone3PilotingStateFlatTrimChangedBehavior
                0x000748d6       0x1c /home/ncs/CAPSTONE/out/arsdk-native/build/libARCommands/obj/gen/Sources/ARCOMMANDS_Filter.c.o
                0x000748d6                ARCOMMANDS_Filter_SetARDrone3PilotingStateFlatTrimChangedBehavior
 .text.ARCOMMANDS_Filter_SetARDrone3PilotingStateFlyingStateChangedBehavior
                0x000748f2       0x1c /home/ncs/CAPSTONE/out/arsdk-native/build/libARCommands/obj/gen/Sources/ARCOMMANDS_Filter.c.o
                0x000748f2                ARCOMMANDS_Filter_SetARDrone3PilotingStateFlyingStateChangedBehavior
 .text.ARCOMMANDS_Filter_SetARDrone3PilotingStateAlertStateChangedBehavior
                0x0007490e       0x1c /home/ncs/CAPSTONE/out/arsdk-native/build/libARCommands/obj/gen/Sources/ARCOMMANDS_Filter.c.o
                0x0007490e                ARCOMMANDS_Filter_SetARDrone3PilotingStateAlertStateChangedBehavior
 .text.ARCOMMANDS_Filter_SetARDrone3PilotingStateNavigateHomeStateChangedBehavior
                0x0007492a       0x1c /home/ncs/CAPSTONE/out/arsdk-native/build/libARCommands/obj/gen/Sources/ARCOMMANDS_Filter.c.o
                0x0007492a                ARCOMMANDS_Filter_SetARDrone3PilotingStateNavigateHomeStateChangedBehavior
 .text.ARCOMMANDS_Filter_SetARDrone3PilotingStatePositionChangedBehavior
                0x00074946       0x1c /home/ncs/CAPSTONE/out/arsdk-native/build/libARCommands/obj/gen/Sources/ARCOMMANDS_Filter.c.o
                0x00074946                ARCOMMANDS_Filter_SetARDrone3PilotingStatePositionChangedBehavior
 .text.ARCOMMANDS_Filter_SetARDrone3PilotingStateSpeedChangedBehavior
                0x00074962       0x1c /home/ncs/CAPSTONE/out/arsdk-native/build/libARCommands/obj/gen/Sources/ARCOMMANDS_Filter.c.o
                0x00074962                ARCOMMANDS_Filter_SetARDrone3PilotingStateSpeedChangedBehavior
 .text.ARCOMMANDS_Filter_SetARDrone3PilotingStateAttitudeChangedBehavior
                0x0007497e       0x1c /home/ncs/CAPSTONE/out/arsdk-native/build/libARCommands/obj/gen/Sources/ARCOMMANDS_Filter.c.o
                0x0007497e                ARCOMMANDS_Filter_SetARDrone3PilotingStateAttitudeChangedBehavior
 .text.ARCOMMANDS_Filter_SetARDrone3PilotingStateAutoTakeOffModeChangedBehavior
                0x0007499a       0x1c /home/ncs/CAPSTONE/out/arsdk-native/build/libARCommands/obj/gen/Sources/ARCOMMANDS_Filter.c.o
                0x0007499a                ARCOMMANDS_Filter_SetARDrone3PilotingStateAutoTakeOffModeChangedBehavior
 .text.ARCOMMANDS_Filter_SetARDrone3PilotingStateAltitudeChangedBehavior
                0x000749b6       0x1c /home/ncs/CAPSTONE/out/arsdk-native/build/libARCommands/obj/gen/Sources/ARCOMMANDS_Filter.c.o
                0x000749b6                ARCOMMANDS_Filter_SetARDrone3PilotingStateAltitudeChangedBehavior
 .text.ARCOMMANDS_Filter_SetARDrone3PilotingStateGpsLocationChangedBehavior
                0x000749d2       0x1c /home/ncs/CAPSTONE/out/arsdk-native/build/libARCommands/obj/gen/Sources/ARCOMMANDS_Filter.c.o
                0x000749d2                ARCOMMANDS_Filter_SetARDrone3PilotingStateGpsLocationChangedBehavior
 .text.ARCOMMANDS_Filter_SetARDrone3PilotingStateLandingStateChangedBehavior
                0x000749ee       0x1c /home/ncs/CAPSTONE/out/arsdk-native/build/libARCommands/obj/gen/Sources/ARCOMMANDS_Filter.c.o
                0x000749ee                ARCOMMANDS_Filter_SetARDrone3PilotingStateLandingStateChangedBehavior
 .text.ARCOMMANDS_Filter_SetARDrone3PilotingEventMoveByEndBehavior
                0x00074a0a       0x1c /home/ncs/CAPSTONE/out/arsdk-native/build/libARCommands/obj/gen/Sources/ARCOMMANDS_Filter.c.o
                0x00074a0a                ARCOMMANDS_Filter_SetARDrone3PilotingEventMoveByEndBehavior
 .text.ARCOMMANDS_Filter_SetARDrone3PilotingEventBehavior
                0x00074a26        0x4 /home/ncs/CAPSTONE/out/arsdk-native/build/libARCommands/obj/gen/Sources/ARCOMMANDS_Filter.c.o
                0x00074a26                ARCOMMANDS_Filter_SetARDrone3PilotingEventBehavior
 .text.ARCOMMANDS_Filter_SetARDrone3NetworkStateWifiScanListChangedBehavior
                0x00074a2a       0x1c /home/ncs/CAPSTONE/out/arsdk-native/build/libARCommands/obj/gen/Sources/ARCOMMANDS_Filter.c.o
                0x00074a2a                ARCOMMANDS_Filter_SetARDrone3NetworkStateWifiScanListChangedBehavior
 .text.ARCOMMANDS_Filter_SetARDrone3NetworkStateAllWifiScanChangedBehavior
                0x00074a46       0x1c /home/ncs/CAPSTONE/out/arsdk-native/build/libARCommands/obj/gen/Sources/ARCOMMANDS_Filter.c.o
                0x00074a46                ARCOMMANDS_Filter_SetARDrone3NetworkStateAllWifiScanChangedBehavior
 .text.ARCOMMANDS_Filter_SetARDrone3NetworkStateWifiAuthChannelListChangedBehavior
                0x00074a62       0x1c /home/ncs/CAPSTONE/out/arsdk-native/build/libARCommands/obj/gen/Sources/ARCOMMANDS_Filter.c.o
                0x00074a62                ARCOMMANDS_Filter_SetARDrone3NetworkStateWifiAuthChannelListChangedBehavior
 .text.ARCOMMANDS_Filter_SetARDrone3NetworkStateAllWifiAuthChannelChangedBehavior
                0x00074a7e       0x1c /home/ncs/CAPSTONE/out/arsdk-native/build/libARCommands/obj/gen/Sources/ARCOMMANDS_Filter.c.o
                0x00074a7e                ARCOMMANDS_Filter_SetARDrone3NetworkStateAllWifiAuthChannelChangedBehavior
 .text.ARCOMMANDS_Filter_SetARDrone3PilotingSettingsStateMaxAltitudeChangedBehavior
                0x00074a9a       0x1c /home/ncs/CAPSTONE/out/arsdk-native/build/libARCommands/obj/gen/Sources/ARCOMMANDS_Filter.c.o
                0x00074a9a                ARCOMMANDS_Filter_SetARDrone3PilotingSettingsStateMaxAltitudeChangedBehavior
 .text.ARCOMMANDS_Filter_SetARDrone3PilotingSettingsStateMaxTiltChangedBehavior
                0x00074ab6       0x1c /home/ncs/CAPSTONE/out/arsdk-native/build/libARCommands/obj/gen/Sources/ARCOMMANDS_Filter.c.o
                0x00074ab6                ARCOMMANDS_Filter_SetARDrone3PilotingSettingsStateMaxTiltChangedBehavior
 .text.ARCOMMANDS_Filter_SetARDrone3PilotingSettingsStateAbsolutControlChangedBehavior
                0x00074ad2       0x1c /home/ncs/CAPSTONE/out/arsdk-native/build/libARCommands/obj/gen/Sources/ARCOMMANDS_Filter.c.o
                0x00074ad2                ARCOMMANDS_Filter_SetARDrone3PilotingSettingsStateAbsolutControlChangedBehavior
 .text.ARCOMMANDS_Filter_SetARDrone3PilotingSettingsStateMaxDistanceChangedBehavior
                0x00074aee       0x1c /home/ncs/CAPSTONE/out/arsdk-native/build/libARCommands/obj/gen/Sources/ARCOMMANDS_Filter.c.o
                0x00074aee                ARCOMMANDS_Filter_SetARDrone3PilotingSettingsStateMaxDistanceChangedBehavior
 .text.ARCOMMANDS_Filter_SetARDrone3PilotingSettingsStateNoFlyOverMaxDistanceChangedBehavior
                0x00074b0a       0x1c /home/ncs/CAPSTONE/out/arsdk-native/build/libARCommands/obj/gen/Sources/ARCOMMANDS_Filter.c.o
                0x00074b0a                ARCOMMANDS_Filter_SetARDrone3PilotingSettingsStateNoFlyOverMaxDistanceChangedBehavior
 .text.ARCOMMANDS_Filter_SetARDrone3PilotingSettingsStateAutonomousFlightMaxHorizontalSpeedBehavior
                0x00074b26       0x1c /home/ncs/CAPSTONE/out/arsdk-native/build/libARCommands/obj/gen/Sources/ARCOMMANDS_Filter.c.o
                0x00074b26                ARCOMMANDS_Filter_SetARDrone3PilotingSettingsStateAutonomousFlightMaxHorizontalSpeedBehavior
 .text.ARCOMMANDS_Filter_SetARDrone3PilotingSettingsStateAutonomousFlightMaxVerticalSpeedBehavior
                0x00074b42       0x1c /home/ncs/CAPSTONE/out/arsdk-native/build/libARCommands/obj/gen/Sources/ARCOMMANDS_Filter.c.o
                0x00074b42                ARCOMMANDS_Filter_SetARDrone3PilotingSettingsStateAutonomousFlightMaxVerticalSpeedBehavior
 .text.ARCOMMANDS_Filter_SetARDrone3PilotingSettingsStateAutonomousFlightMaxHorizontalAccelerationBehavior
                0x00074b5e       0x1c /home/ncs/CAPSTONE/out/arsdk-native/build/libARCommands/obj/gen/Sources/ARCOMMANDS_Filter.c.o
                0x00074b5e                ARCOMMANDS_Filter_SetARDrone3PilotingSettingsStateAutonomousFlightMaxHorizontalAccelerationBehavior
 .text.ARCOMMANDS_Filter_SetARDrone3PilotingSettingsStateAutonomousFlightMaxVerticalAccelerationBehavior
                0x00074b7a       0x1c /home/ncs/CAPSTONE/out/arsdk-native/build/libARCommands/obj/gen/Sources/ARCOMMANDS_Filter.c.o
                0x00074b7a                ARCOMMANDS_Filter_SetARDrone3PilotingSettingsStateAutonomousFlightMaxVerticalAccelerationBehavior
 .text.ARCOMMANDS_Filter_SetARDrone3PilotingSettingsStateAutonomousFlightMaxRotationSpeedBehavior
                0x00074b96       0x1c /home/ncs/CAPSTONE/out/arsdk-native/build/libARCommands/obj/gen/Sources/ARCOMMANDS_Filter.c.o
                0x00074b96                ARCOMMANDS_Filter_SetARDrone3PilotingSettingsStateAutonomousFlightMaxRotationSpeedBehavior
 .text.ARCOMMANDS_Filter_SetARDrone3PilotingSettingsStateBankedTurnChangedBehavior
                0x00074bb2       0x1c /home/ncs/CAPSTONE/out/arsdk-native/build/libARCommands/obj/gen/Sources/ARCOMMANDS_Filter.c.o
                0x00074bb2                ARCOMMANDS_Filter_SetARDrone3PilotingSettingsStateBankedTurnChangedBehavior
 .text.ARCOMMANDS_Filter_SetARDrone3PilotingSettingsStateMinAltitudeChangedBehavior
                0x00074bce       0x1c /home/ncs/CAPSTONE/out/arsdk-native/build/libARCommands/obj/gen/Sources/ARCOMMANDS_Filter.c.o
                0x00074bce                ARCOMMANDS_Filter_SetARDrone3PilotingSettingsStateMinAltitudeChangedBehavior
 .text.ARCOMMANDS_Filter_SetARDrone3PilotingSettingsStateCirclingDirectionChangedBehavior
                0x00074bea       0x1c /home/ncs/CAPSTONE/out/arsdk-native/build/libARCommands/obj/gen/Sources/ARCOMMANDS_Filter.c.o
                0x00074bea                ARCOMMANDS_Filter_SetARDrone3PilotingSettingsStateCirclingDirectionChangedBehavior
 .text.ARCOMMANDS_Filter_SetARDrone3PilotingSettingsStateCirclingRadiusChangedBehavior
                0x00074c06       0x1c /home/ncs/CAPSTONE/out/arsdk-native/build/libARCommands/obj/gen/Sources/ARCOMMANDS_Filter.c.o
                0x00074c06                ARCOMMANDS_Filter_SetARDrone3PilotingSettingsStateCirclingRadiusChangedBehavior
 .text.ARCOMMANDS_Filter_SetARDrone3PilotingSettingsStateCirclingAltitudeChangedBehavior
                0x00074c22       0x1c /home/ncs/CAPSTONE/out/arsdk-native/build/libARCommands/obj/gen/Sources/ARCOMMANDS_Filter.c.o
                0x00074c22                ARCOMMANDS_Filter_SetARDrone3PilotingSettingsStateCirclingAltitudeChangedBehavior
 .text.ARCOMMANDS_Filter_SetARDrone3PilotingSettingsStatePitchModeChangedBehavior
                0x00074c3e       0x1c /home/ncs/CAPSTONE/out/arsdk-native/build/libARCommands/obj/gen/Sources/ARCOMMANDS_Filter.c.o
                0x00074c3e                ARCOMMANDS_Filter_SetARDrone3PilotingSettingsStatePitchModeChangedBehavior
 .text.ARCOMMANDS_Filter_SetARDrone3SpeedSettingsStateMaxVerticalSpeedChangedBehavior
                0x00074c5a       0x1c /home/ncs/CAPSTONE/out/arsdk-native/build/libARCommands/obj/gen/Sources/ARCOMMANDS_Filter.c.o
                0x00074c5a                ARCOMMANDS_Filter_SetARDrone3SpeedSettingsStateMaxVerticalSpeedChangedBehavior
 .text.ARCOMMANDS_Filter_SetARDrone3SpeedSettingsStateMaxRotationSpeedChangedBehavior
                0x00074c76       0x1c /home/ncs/CAPSTONE/out/arsdk-native/build/libARCommands/obj/gen/Sources/ARCOMMANDS_Filter.c.o
                0x00074c76                ARCOMMANDS_Filter_SetARDrone3SpeedSettingsStateMaxRotationSpeedChangedBehavior
 .text.ARCOMMANDS_Filter_SetARDrone3SpeedSettingsStateHullProtectionChangedBehavior
                0x00074c92       0x1c /home/ncs/CAPSTONE/out/arsdk-native/build/libARCommands/obj/gen/Sources/ARCOMMANDS_Filter.c.o
                0x00074c92                ARCOMMANDS_Filter_SetARDrone3SpeedSettingsStateHullProtectionChangedBehavior
 .text.ARCOMMANDS_Filter_SetARDrone3SpeedSettingsStateOutdoorChangedBehavior
                0x00074cae       0x1c /home/ncs/CAPSTONE/out/arsdk-native/build/libARCommands/obj/gen/Sources/ARCOMMANDS_Filter.c.o
                0x00074cae                ARCOMMANDS_Filter_SetARDrone3SpeedSettingsStateOutdoorChangedBehavior
 .text.ARCOMMANDS_Filter_SetARDrone3SpeedSettingsStateMaxPitchRollRotationSpeedChangedBehavior
                0x00074cca       0x1c /home/ncs/CAPSTONE/out/arsdk-native/build/libARCommands/obj/gen/Sources/ARCOMMANDS_Filter.c.o
                0x00074cca                ARCOMMANDS_Filter_SetARDrone3SpeedSettingsStateMaxPitchRollRotationSpeedChangedBehavior
 .text.ARCOMMANDS_Filter_SetARDrone3NetworkSettingsStateWifiSelectionChangedBehavior
                0x00074ce6       0x1c /home/ncs/CAPSTONE/out/arsdk-native/build/libARCommands/obj/gen/Sources/ARCOMMANDS_Filter.c.o
                0x00074ce6                ARCOMMANDS_Filter_SetARDrone3NetworkSettingsStateWifiSelectionChangedBehavior
 .text.ARCOMMANDS_Filter_SetARDrone3NetworkSettingsStateWifiSecurityChangedBehavior
                0x00074d02       0x1c /home/ncs/CAPSTONE/out/arsdk-native/build/libARCommands/obj/gen/Sources/ARCOMMANDS_Filter.c.o
                0x00074d02                ARCOMMANDS_Filter_SetARDrone3NetworkSettingsStateWifiSecurityChangedBehavior
 .text.ARCOMMANDS_Filter_SetARDrone3NetworkSettingsStateWifiSecurityBehavior
                0x00074d1e       0x1c /home/ncs/CAPSTONE/out/arsdk-native/build/libARCommands/obj/gen/Sources/ARCOMMANDS_Filter.c.o
                0x00074d1e                ARCOMMANDS_Filter_SetARDrone3NetworkSettingsStateWifiSecurityBehavior
 .text.ARCOMMANDS_Filter_SetARDrone3SettingsStateProductMotorVersionListChangedBehavior
                0x00074d3a       0x1c /home/ncs/CAPSTONE/out/arsdk-native/build/libARCommands/obj/gen/Sources/ARCOMMANDS_Filter.c.o
                0x00074d3a                ARCOMMANDS_Filter_SetARDrone3SettingsStateProductMotorVersionListChangedBehavior
 .text.ARCOMMANDS_Filter_SetARDrone3SettingsStateProductGPSVersionChangedBehavior
                0x00074d56       0x1c /home/ncs/CAPSTONE/out/arsdk-native/build/libARCommands/obj/gen/Sources/ARCOMMANDS_Filter.c.o
                0x00074d56                ARCOMMANDS_Filter_SetARDrone3SettingsStateProductGPSVersionChangedBehavior
 .text.ARCOMMANDS_Filter_SetARDrone3SettingsStateMotorErrorStateChangedBehavior
                0x00074d72       0x1c /home/ncs/CAPSTONE/out/arsdk-native/build/libARCommands/obj/gen/Sources/ARCOMMANDS_Filter.c.o
                0x00074d72                ARCOMMANDS_Filter_SetARDrone3SettingsStateMotorErrorStateChangedBehavior
 .text.ARCOMMANDS_Filter_SetARDrone3SettingsStateMotorSoftwareVersionChangedBehavior
                0x00074d8e       0x1c /home/ncs/CAPSTONE/out/arsdk-native/build/libARCommands/obj/gen/Sources/ARCOMMANDS_Filter.c.o
                0x00074d8e                ARCOMMANDS_Filter_SetARDrone3SettingsStateMotorSoftwareVersionChangedBehavior
 .text.ARCOMMANDS_Filter_SetARDrone3SettingsStateMotorFlightsStatusChangedBehavior
                0x00074daa       0x1c /home/ncs/CAPSTONE/out/arsdk-native/build/libARCommands/obj/gen/Sources/ARCOMMANDS_Filter.c.o
                0x00074daa                ARCOMMANDS_Filter_SetARDrone3SettingsStateMotorFlightsStatusChangedBehavior
 .text.ARCOMMANDS_Filter_SetARDrone3SettingsStateMotorErrorLastErrorChangedBehavior
                0x00074dc6       0x1c /home/ncs/CAPSTONE/out/arsdk-native/build/libARCommands/obj/gen/Sources/ARCOMMANDS_Filter.c.o
                0x00074dc6                ARCOMMANDS_Filter_SetARDrone3SettingsStateMotorErrorLastErrorChangedBehavior
 .text.ARCOMMANDS_Filter_SetARDrone3SettingsStateP7IDBehavior
                0x00074de2       0x1c /home/ncs/CAPSTONE/out/arsdk-native/build/libARCommands/obj/gen/Sources/ARCOMMANDS_Filter.c.o
                0x00074de2                ARCOMMANDS_Filter_SetARDrone3SettingsStateP7IDBehavior
 .text.ARCOMMANDS_Filter_SetARDrone3SettingsStateCPUIDBehavior
                0x00074dfe       0x1c /home/ncs/CAPSTONE/out/arsdk-native/build/libARCommands/obj/gen/Sources/ARCOMMANDS_Filter.c.o
                0x00074dfe                ARCOMMANDS_Filter_SetARDrone3SettingsStateCPUIDBehavior
 .text.ARCOMMANDS_Filter_SetARDrone3PictureSettingsStatePictureFormatChangedBehavior
                0x00074e1a       0x1c /home/ncs/CAPSTONE/out/arsdk-native/build/libARCommands/obj/gen/Sources/ARCOMMANDS_Filter.c.o
                0x00074e1a                ARCOMMANDS_Filter_SetARDrone3PictureSettingsStatePictureFormatChangedBehavior
 .text.ARCOMMANDS_Filter_SetARDrone3PictureSettingsStateAutoWhiteBalanceChangedBehavior
                0x00074e36       0x1c /home/ncs/CAPSTONE/out/arsdk-native/build/libARCommands/obj/gen/Sources/ARCOMMANDS_Filter.c.o
                0x00074e36                ARCOMMANDS_Filter_SetARDrone3PictureSettingsStateAutoWhiteBalanceChangedBehavior
 .text.ARCOMMANDS_Filter_SetARDrone3PictureSettingsStateExpositionChangedBehavior
                0x00074e52       0x1c /home/ncs/CAPSTONE/out/arsdk-native/build/libARCommands/obj/gen/Sources/ARCOMMANDS_Filter.c.o
                0x00074e52                ARCOMMANDS_Filter_SetARDrone3PictureSettingsStateExpositionChangedBehavior
 .text.ARCOMMANDS_Filter_SetARDrone3PictureSettingsStateSaturationChangedBehavior
                0x00074e6e       0x1c /home/ncs/CAPSTONE/out/arsdk-native/build/libARCommands/obj/gen/Sources/ARCOMMANDS_Filter.c.o
                0x00074e6e                ARCOMMANDS_Filter_SetARDrone3PictureSettingsStateSaturationChangedBehavior
 .text.ARCOMMANDS_Filter_SetARDrone3PictureSettingsStateTimelapseChangedBehavior
                0x00074e8a       0x1c /home/ncs/CAPSTONE/out/arsdk-native/build/libARCommands/obj/gen/Sources/ARCOMMANDS_Filter.c.o
                0x00074e8a                ARCOMMANDS_Filter_SetARDrone3PictureSettingsStateTimelapseChangedBehavior
 .text.ARCOMMANDS_Filter_SetARDrone3PictureSettingsStateVideoAutorecordChangedBehavior
                0x00074ea6       0x1c /home/ncs/CAPSTONE/out/arsdk-native/build/libARCommands/obj/gen/Sources/ARCOMMANDS_Filter.c.o
                0x00074ea6                ARCOMMANDS_Filter_SetARDrone3PictureSettingsStateVideoAutorecordChangedBehavior
 .text.ARCOMMANDS_Filter_SetARDrone3PictureSettingsStateVideoStabilizationModeChangedBehavior
                0x00074ec2       0x1c /home/ncs/CAPSTONE/out/arsdk-native/build/libARCommands/obj/gen/Sources/ARCOMMANDS_Filter.c.o
                0x00074ec2                ARCOMMANDS_Filter_SetARDrone3PictureSettingsStateVideoStabilizationModeChangedBehavior
 .text.ARCOMMANDS_Filter_SetARDrone3PictureSettingsStateVideoRecordingModeChangedBehavior
                0x00074ede       0x1c /home/ncs/CAPSTONE/out/arsdk-native/build/libARCommands/obj/gen/Sources/ARCOMMANDS_Filter.c.o
                0x00074ede                ARCOMMANDS_Filter_SetARDrone3PictureSettingsStateVideoRecordingModeChangedBehavior
 .text.ARCOMMANDS_Filter_SetARDrone3PictureSettingsStateVideoFramerateChangedBehavior
                0x00074efa       0x1c /home/ncs/CAPSTONE/out/arsdk-native/build/libARCommands/obj/gen/Sources/ARCOMMANDS_Filter.c.o
                0x00074efa                ARCOMMANDS_Filter_SetARDrone3PictureSettingsStateVideoFramerateChangedBehavior
 .text.ARCOMMANDS_Filter_SetARDrone3PictureSettingsStateVideoResolutionsChangedBehavior
                0x00074f16       0x1c /home/ncs/CAPSTONE/out/arsdk-native/build/libARCommands/obj/gen/Sources/ARCOMMANDS_Filter.c.o
                0x00074f16                ARCOMMANDS_Filter_SetARDrone3PictureSettingsStateVideoResolutionsChangedBehavior
 .text.ARCOMMANDS_Filter_SetARDrone3MediaStreamingStateVideoEnableChangedBehavior
                0x00074f32       0x1c /home/ncs/CAPSTONE/out/arsdk-native/build/libARCommands/obj/gen/Sources/ARCOMMANDS_Filter.c.o
                0x00074f32                ARCOMMANDS_Filter_SetARDrone3MediaStreamingStateVideoEnableChangedBehavior
 .text.ARCOMMANDS_Filter_SetARDrone3MediaStreamingStateVideoStreamModeChangedBehavior
                0x00074f4e       0x1c /home/ncs/CAPSTONE/out/arsdk-native/build/libARCommands/obj/gen/Sources/ARCOMMANDS_Filter.c.o
                0x00074f4e                ARCOMMANDS_Filter_SetARDrone3MediaStreamingStateVideoStreamModeChangedBehavior
 .text.ARCOMMANDS_Filter_SetARDrone3GPSSettingsStateHomeChangedBehavior
                0x00074f6a       0x1c /home/ncs/CAPSTONE/out/arsdk-native/build/libARCommands/obj/gen/Sources/ARCOMMANDS_Filter.c.o
                0x00074f6a                ARCOMMANDS_Filter_SetARDrone3GPSSettingsStateHomeChangedBehavior
 .text.ARCOMMANDS_Filter_SetARDrone3GPSSettingsStateResetHomeChangedBehavior
                0x00074f86       0x1c /home/ncs/CAPSTONE/out/arsdk-native/build/libARCommands/obj/gen/Sources/ARCOMMANDS_Filter.c.o
                0x00074f86                ARCOMMANDS_Filter_SetARDrone3GPSSettingsStateResetHomeChangedBehavior
 .text.ARCOMMANDS_Filter_SetARDrone3GPSSettingsStateGPSFixStateChangedBehavior
                0x00074fa2       0x1c /home/ncs/CAPSTONE/out/arsdk-native/build/libARCommands/obj/gen/Sources/ARCOMMANDS_Filter.c.o
                0x00074fa2                ARCOMMANDS_Filter_SetARDrone3GPSSettingsStateGPSFixStateChangedBehavior
 .text.ARCOMMANDS_Filter_SetARDrone3GPSSettingsStateGPSUpdateStateChangedBehavior
                0x00074fbe       0x1c /home/ncs/CAPSTONE/out/arsdk-native/build/libARCommands/obj/gen/Sources/ARCOMMANDS_Filter.c.o
                0x00074fbe                ARCOMMANDS_Filter_SetARDrone3GPSSettingsStateGPSUpdateStateChangedBehavior
 .text.ARCOMMANDS_Filter_SetARDrone3GPSSettingsStateHomeTypeChangedBehavior
                0x00074fda       0x1c /home/ncs/CAPSTONE/out/arsdk-native/build/libARCommands/obj/gen/Sources/ARCOMMANDS_Filter.c.o
                0x00074fda                ARCOMMANDS_Filter_SetARDrone3GPSSettingsStateHomeTypeChangedBehavior
 .text.ARCOMMANDS_Filter_SetARDrone3GPSSettingsStateReturnHomeDelayChangedBehavior
                0x00074ff6       0x1c /home/ncs/CAPSTONE/out/arsdk-native/build/libARCommands/obj/gen/Sources/ARCOMMANDS_Filter.c.o
                0x00074ff6                ARCOMMANDS_Filter_SetARDrone3GPSSettingsStateReturnHomeDelayChangedBehavior
 .text.ARCOMMANDS_Filter_SetARDrone3CameraStateOrientationBehavior
                0x00075012       0x1c /home/ncs/CAPSTONE/out/arsdk-native/build/libARCommands/obj/gen/Sources/ARCOMMANDS_Filter.c.o
                0x00075012                ARCOMMANDS_Filter_SetARDrone3CameraStateOrientationBehavior
 .text.ARCOMMANDS_Filter_SetARDrone3CameraStateDefaultCameraOrientationBehavior
                0x0007502e       0x1c /home/ncs/CAPSTONE/out/arsdk-native/build/libARCommands/obj/gen/Sources/ARCOMMANDS_Filter.c.o
                0x0007502e                ARCOMMANDS_Filter_SetARDrone3CameraStateDefaultCameraOrientationBehavior
 .text.ARCOMMANDS_Filter_SetARDrone3AntiflickeringStateElectricFrequencyChangedBehavior
                0x0007504a       0x1c /home/ncs/CAPSTONE/out/arsdk-native/build/libARCommands/obj/gen/Sources/ARCOMMANDS_Filter.c.o
                0x0007504a                ARCOMMANDS_Filter_SetARDrone3AntiflickeringStateElectricFrequencyChangedBehavior
 .text.ARCOMMANDS_Filter_SetARDrone3AntiflickeringStateModeChangedBehavior
                0x00075066       0x1c /home/ncs/CAPSTONE/out/arsdk-native/build/libARCommands/obj/gen/Sources/ARCOMMANDS_Filter.c.o
                0x00075066                ARCOMMANDS_Filter_SetARDrone3AntiflickeringStateModeChangedBehavior
 .text.ARCOMMANDS_Filter_SetARDrone3GPSStateNumberOfSatelliteChangedBehavior
                0x00075082       0x1c /home/ncs/CAPSTONE/out/arsdk-native/build/libARCommands/obj/gen/Sources/ARCOMMANDS_Filter.c.o
                0x00075082                ARCOMMANDS_Filter_SetARDrone3GPSStateNumberOfSatelliteChangedBehavior
 .text.ARCOMMANDS_Filter_SetARDrone3GPSStateHomeTypeAvailabilityChangedBehavior
                0x0007509e       0x1c /home/ncs/CAPSTONE/out/arsdk-native/build/libARCommands/obj/gen/Sources/ARCOMMANDS_Filter.c.o
                0x0007509e                ARCOMMANDS_Filter_SetARDrone3GPSStateHomeTypeAvailabilityChangedBehavior
 .text.ARCOMMANDS_Filter_SetARDrone3GPSStateHomeTypeChosenChangedBehavior
                0x000750ba       0x1c /home/ncs/CAPSTONE/out/arsdk-native/build/libARCommands/obj/gen/Sources/ARCOMMANDS_Filter.c.o
                0x000750ba                ARCOMMANDS_Filter_SetARDrone3GPSStateHomeTypeChosenChangedBehavior
 .text.ARCOMMANDS_Filter_SetARDrone3PROStateFeaturesBehavior
                0x000750d6       0x1c /home/ncs/CAPSTONE/out/arsdk-native/build/libARCommands/obj/gen/Sources/ARCOMMANDS_Filter.c.o
                0x000750d6                ARCOMMANDS_Filter_SetARDrone3PROStateFeaturesBehavior
 .text.ARCOMMANDS_Filter_SetARDrone3PROStateBehavior
                0x000750f2        0x4 /home/ncs/CAPSTONE/out/arsdk-native/build/libARCommands/obj/gen/Sources/ARCOMMANDS_Filter.c.o
                0x000750f2                ARCOMMANDS_Filter_SetARDrone3PROStateBehavior
 .text.ARCOMMANDS_Filter_SetCommonBehavior
                0x000750f6      0x15a /home/ncs/CAPSTONE/out/arsdk-native/build/libARCommands/obj/gen/Sources/ARCOMMANDS_Filter.c.o
                0x000750f6                ARCOMMANDS_Filter_SetCommonBehavior
 .text.ARCOMMANDS_Filter_SetCommonSettingsBehavior
                0x00075250       0x2c /home/ncs/CAPSTONE/out/arsdk-native/build/libARCommands/obj/gen/Sources/ARCOMMANDS_Filter.c.o
                0x00075250                ARCOMMANDS_Filter_SetCommonSettingsBehavior
 .text.ARCOMMANDS_Filter_SetCommonSettingsStateBehavior
                0x0007527c       0x38 /home/ncs/CAPSTONE/out/arsdk-native/build/libARCommands/obj/gen/Sources/ARCOMMANDS_Filter.c.o
                0x0007527c                ARCOMMANDS_Filter_SetCommonSettingsStateBehavior
 .text.ARCOMMANDS_Filter_SetCommonCommonBehavior
                0x000752b4       0x28 /home/ncs/CAPSTONE/out/arsdk-native/build/libARCommands/obj/gen/Sources/ARCOMMANDS_Filter.c.o
                0x000752b4                ARCOMMANDS_Filter_SetCommonCommonBehavior
 .text.ARCOMMANDS_Filter_SetCommonCommonStateBehavior
                0x000752dc       0x50 /home/ncs/CAPSTONE/out/arsdk-native/build/libARCommands/obj/gen/Sources/ARCOMMANDS_Filter.c.o
                0x000752dc                ARCOMMANDS_Filter_SetCommonCommonStateBehavior
 .text.ARCOMMANDS_Filter_SetCommonOverHeatBehavior
                0x0007532c       0x20 /home/ncs/CAPSTONE/out/arsdk-native/build/libARCommands/obj/gen/Sources/ARCOMMANDS_Filter.c.o
                0x0007532c                ARCOMMANDS_Filter_SetCommonOverHeatBehavior
 .text.ARCOMMANDS_Filter_SetCommonOverHeatStateBehavior
                0x0007534c       0x20 /home/ncs/CAPSTONE/out/arsdk-native/build/libARCommands/obj/gen/Sources/ARCOMMANDS_Filter.c.o
                0x0007534c                ARCOMMANDS_Filter_SetCommonOverHeatStateBehavior
 .text.ARCOMMANDS_Filter_SetCommonMavlinkBehavior
                0x0007536c       0x24 /home/ncs/CAPSTONE/out/arsdk-native/build/libARCommands/obj/gen/Sources/ARCOMMANDS_Filter.c.o
                0x0007536c                ARCOMMANDS_Filter_SetCommonMavlinkBehavior
 .text.ARCOMMANDS_Filter_SetCommonMavlinkStateBehavior
                0x00075390       0x20 /home/ncs/CAPSTONE/out/arsdk-native/build/libARCommands/obj/gen/Sources/ARCOMMANDS_Filter.c.o
                0x00075390                ARCOMMANDS_Filter_SetCommonMavlinkStateBehavior
 .text.ARCOMMANDS_Filter_SetCommonCalibrationBehavior
                0x000753b0       0x20 /home/ncs/CAPSTONE/out/arsdk-native/build/libARCommands/obj/gen/Sources/ARCOMMANDS_Filter.c.o
                0x000753b0                ARCOMMANDS_Filter_SetCommonCalibrationBehavior
 .text.ARCOMMANDS_Filter_SetCommonCalibrationStateBehavior
                0x000753d0       0x2c /home/ncs/CAPSTONE/out/arsdk-native/build/libARCommands/obj/gen/Sources/ARCOMMANDS_Filter.c.o
                0x000753d0                ARCOMMANDS_Filter_SetCommonCalibrationStateBehavior
 .text.ARCOMMANDS_Filter_SetCommonFlightPlanStateBehavior
                0x000753fc       0x24 /home/ncs/CAPSTONE/out/arsdk-native/build/libARCommands/obj/gen/Sources/ARCOMMANDS_Filter.c.o
                0x000753fc                ARCOMMANDS_Filter_SetCommonFlightPlanStateBehavior
 .text.ARCOMMANDS_Filter_SetCommonFlightPlanEventBehavior
                0x00075420       0x20 /home/ncs/CAPSTONE/out/arsdk-native/build/libARCommands/obj/gen/Sources/ARCOMMANDS_Filter.c.o
                0x00075420                ARCOMMANDS_Filter_SetCommonFlightPlanEventBehavior
 .text.ARCOMMANDS_Filter_SetCommonARLibsVersionsStateBehavior
                0x00075440       0x24 /home/ncs/CAPSTONE/out/arsdk-native/build/libARCommands/obj/gen/Sources/ARCOMMANDS_Filter.c.o
                0x00075440                ARCOMMANDS_Filter_SetCommonARLibsVersionsStateBehavior
 .text.ARCOMMANDS_Filter_SetCommonAnimationsBehavior
                0x00075464       0x24 /home/ncs/CAPSTONE/out/arsdk-native/build/libARCommands/obj/gen/Sources/ARCOMMANDS_Filter.c.o
                0x00075464                ARCOMMANDS_Filter_SetCommonAnimationsBehavior
 .text.ARCOMMANDS_Filter_SetCommonAccessoryStateBehavior
                0x00075488       0x24 /home/ncs/CAPSTONE/out/arsdk-native/build/libARCommands/obj/gen/Sources/ARCOMMANDS_Filter.c.o
                0x00075488                ARCOMMANDS_Filter_SetCommonAccessoryStateBehavior
 .text.ARCOMMANDS_Filter_SetCommonChargerStateBehavior
                0x000754ac       0x28 /home/ncs/CAPSTONE/out/arsdk-native/build/libARCommands/obj/gen/Sources/ARCOMMANDS_Filter.c.o
                0x000754ac                ARCOMMANDS_Filter_SetCommonChargerStateBehavior
 .text.ARCOMMANDS_Filter_SetCommonNetworkDisconnectBehavior
                0x000754d4       0x1c /home/ncs/CAPSTONE/out/arsdk-native/build/libARCommands/obj/gen/Sources/ARCOMMANDS_Filter.c.o
                0x000754d4                ARCOMMANDS_Filter_SetCommonNetworkDisconnectBehavior
 .text.ARCOMMANDS_Filter_SetCommonNetworkBehavior
                0x000754f0        0x4 /home/ncs/CAPSTONE/out/arsdk-native/build/libARCommands/obj/gen/Sources/ARCOMMANDS_Filter.c.o
                0x000754f0                ARCOMMANDS_Filter_SetCommonNetworkBehavior
 .text.ARCOMMANDS_Filter_SetCommonSettingsAllSettingsBehavior
                0x000754f4       0x1c /home/ncs/CAPSTONE/out/arsdk-native/build/libARCommands/obj/gen/Sources/ARCOMMANDS_Filter.c.o
                0x000754f4                ARCOMMANDS_Filter_SetCommonSettingsAllSettingsBehavior
 .text.ARCOMMANDS_Filter_SetCommonSettingsResetBehavior
                0x00075510       0x1c /home/ncs/CAPSTONE/out/arsdk-native/build/libARCommands/obj/gen/Sources/ARCOMMANDS_Filter.c.o
                0x00075510                ARCOMMANDS_Filter_SetCommonSettingsResetBehavior
 .text.ARCOMMANDS_Filter_SetCommonSettingsProductNameBehavior
                0x0007552c       0x1c /home/ncs/CAPSTONE/out/arsdk-native/build/libARCommands/obj/gen/Sources/ARCOMMANDS_Filter.c.o
                0x0007552c                ARCOMMANDS_Filter_SetCommonSettingsProductNameBehavior
 .text.ARCOMMANDS_Filter_SetCommonSettingsCountryBehavior
                0x00075548       0x1c /home/ncs/CAPSTONE/out/arsdk-native/build/libARCommands/obj/gen/Sources/ARCOMMANDS_Filter.c.o
                0x00075548                ARCOMMANDS_Filter_SetCommonSettingsCountryBehavior
 .text.ARCOMMANDS_Filter_SetCommonSettingsAutoCountryBehavior
                0x00075564       0x1c /home/ncs/CAPSTONE/out/arsdk-native/build/libARCommands/obj/gen/Sources/ARCOMMANDS_Filter.c.o
                0x00075564                ARCOMMANDS_Filter_SetCommonSettingsAutoCountryBehavior
 .text.ARCOMMANDS_Filter_SetCommonCommonAllStatesBehavior
                0x00075580       0x1c /home/ncs/CAPSTONE/out/arsdk-native/build/libARCommands/obj/gen/Sources/ARCOMMANDS_Filter.c.o
                0x00075580                ARCOMMANDS_Filter_SetCommonCommonAllStatesBehavior
 .text.ARCOMMANDS_Filter_SetCommonCommonCurrentDateBehavior
                0x0007559c       0x1c /home/ncs/CAPSTONE/out/arsdk-native/build/libARCommands/obj/gen/Sources/ARCOMMANDS_Filter.c.o
                0x0007559c                ARCOMMANDS_Filter_SetCommonCommonCurrentDateBehavior
 .text.ARCOMMANDS_Filter_SetCommonCommonCurrentTimeBehavior
                0x000755b8       0x1c /home/ncs/CAPSTONE/out/arsdk-native/build/libARCommands/obj/gen/Sources/ARCOMMANDS_Filter.c.o
                0x000755b8                ARCOMMANDS_Filter_SetCommonCommonCurrentTimeBehavior
 .text.ARCOMMANDS_Filter_SetCommonCommonRebootBehavior
                0x000755d4       0x1c /home/ncs/CAPSTONE/out/arsdk-native/build/libARCommands/obj/gen/Sources/ARCOMMANDS_Filter.c.o
                0x000755d4                ARCOMMANDS_Filter_SetCommonCommonRebootBehavior
 .text.ARCOMMANDS_Filter_SetCommonOverHeatSwitchOffBehavior
                0x000755f0       0x1c /home/ncs/CAPSTONE/out/arsdk-native/build/libARCommands/obj/gen/Sources/ARCOMMANDS_Filter.c.o
                0x000755f0                ARCOMMANDS_Filter_SetCommonOverHeatSwitchOffBehavior
 .text.ARCOMMANDS_Filter_SetCommonOverHeatVentilateBehavior
                0x0007560c       0x1c /home/ncs/CAPSTONE/out/arsdk-native/build/libARCommands/obj/gen/Sources/ARCOMMANDS_Filter.c.o
                0x0007560c                ARCOMMANDS_Filter_SetCommonOverHeatVentilateBehavior
 .text.ARCOMMANDS_Filter_SetCommonControllerIsPilotingBehavior
                0x00075628       0x1c /home/ncs/CAPSTONE/out/arsdk-native/build/libARCommands/obj/gen/Sources/ARCOMMANDS_Filter.c.o
                0x00075628                ARCOMMANDS_Filter_SetCommonControllerIsPilotingBehavior
 .text.ARCOMMANDS_Filter_SetCommonControllerBehavior
                0x00075644        0x4 /home/ncs/CAPSTONE/out/arsdk-native/build/libARCommands/obj/gen/Sources/ARCOMMANDS_Filter.c.o
                0x00075644                ARCOMMANDS_Filter_SetCommonControllerBehavior
 .text.ARCOMMANDS_Filter_SetCommonWifiSettingsOutdoorSettingBehavior
                0x00075648       0x1c /home/ncs/CAPSTONE/out/arsdk-native/build/libARCommands/obj/gen/Sources/ARCOMMANDS_Filter.c.o
                0x00075648                ARCOMMANDS_Filter_SetCommonWifiSettingsOutdoorSettingBehavior
 .text.ARCOMMANDS_Filter_SetCommonWifiSettingsBehavior
                0x00075664        0x4 /home/ncs/CAPSTONE/out/arsdk-native/build/libARCommands/obj/gen/Sources/ARCOMMANDS_Filter.c.o
                0x00075664                ARCOMMANDS_Filter_SetCommonWifiSettingsBehavior
 .text.ARCOMMANDS_Filter_SetCommonMavlinkStartBehavior
                0x00075668       0x1c /home/ncs/CAPSTONE/out/arsdk-native/build/libARCommands/obj/gen/Sources/ARCOMMANDS_Filter.c.o
                0x00075668                ARCOMMANDS_Filter_SetCommonMavlinkStartBehavior
 .text.ARCOMMANDS_Filter_SetCommonMavlinkPauseBehavior
                0x00075684       0x1c /home/ncs/CAPSTONE/out/arsdk-native/build/libARCommands/obj/gen/Sources/ARCOMMANDS_Filter.c.o
                0x00075684                ARCOMMANDS_Filter_SetCommonMavlinkPauseBehavior
 .text.ARCOMMANDS_Filter_SetCommonMavlinkStopBehavior
                0x000756a0       0x1c /home/ncs/CAPSTONE/out/arsdk-native/build/libARCommands/obj/gen/Sources/ARCOMMANDS_Filter.c.o
                0x000756a0                ARCOMMANDS_Filter_SetCommonMavlinkStopBehavior
 .text.ARCOMMANDS_Filter_SetCommonCalibrationMagnetoCalibrationBehavior
                0x000756bc       0x1c /home/ncs/CAPSTONE/out/arsdk-native/build/libARCommands/obj/gen/Sources/ARCOMMANDS_Filter.c.o
                0x000756bc                ARCOMMANDS_Filter_SetCommonCalibrationMagnetoCalibrationBehavior
 .text.ARCOMMANDS_Filter_SetCommonCalibrationPitotCalibrationBehavior
                0x000756d8       0x1c /home/ncs/CAPSTONE/out/arsdk-native/build/libARCommands/obj/gen/Sources/ARCOMMANDS_Filter.c.o
                0x000756d8                ARCOMMANDS_Filter_SetCommonCalibrationPitotCalibrationBehavior
 .text.ARCOMMANDS_Filter_SetCommonGPSControllerPositionForRunBehavior
                0x000756f4       0x1c /home/ncs/CAPSTONE/out/arsdk-native/build/libARCommands/obj/gen/Sources/ARCOMMANDS_Filter.c.o
                0x000756f4                ARCOMMANDS_Filter_SetCommonGPSControllerPositionForRunBehavior
 .text.ARCOMMANDS_Filter_SetCommonGPSBehavior
                0x00075710        0x4 /home/ncs/CAPSTONE/out/arsdk-native/build/libARCommands/obj/gen/Sources/ARCOMMANDS_Filter.c.o
                0x00075710                ARCOMMANDS_Filter_SetCommonGPSBehavior
 .text.ARCOMMANDS_Filter_SetCommonAudioControllerReadyForStreamingBehavior
                0x00075714       0x1c /home/ncs/CAPSTONE/out/arsdk-native/build/libARCommands/obj/gen/Sources/ARCOMMANDS_Filter.c.o
                0x00075714                ARCOMMANDS_Filter_SetCommonAudioControllerReadyForStreamingBehavior
 .text.ARCOMMANDS_Filter_SetCommonAudioBehavior
                0x00075730        0x4 /home/ncs/CAPSTONE/out/arsdk-native/build/libARCommands/obj/gen/Sources/ARCOMMANDS_Filter.c.o
                0x00075730                ARCOMMANDS_Filter_SetCommonAudioBehavior
 .text.ARCOMMANDS_Filter_SetCommonHeadlightsIntensityBehavior
                0x00075734       0x1c /home/ncs/CAPSTONE/out/arsdk-native/build/libARCommands/obj/gen/Sources/ARCOMMANDS_Filter.c.o
                0x00075734                ARCOMMANDS_Filter_SetCommonHeadlightsIntensityBehavior
 .text.ARCOMMANDS_Filter_SetCommonHeadlightsBehavior
                0x00075750        0x4 /home/ncs/CAPSTONE/out/arsdk-native/build/libARCommands/obj/gen/Sources/ARCOMMANDS_Filter.c.o
                0x00075750                ARCOMMANDS_Filter_SetCommonHeadlightsBehavior
 .text.ARCOMMANDS_Filter_SetCommonAnimationsStartAnimationBehavior
                0x00075754       0x1c /home/ncs/CAPSTONE/out/arsdk-native/build/libARCommands/obj/gen/Sources/ARCOMMANDS_Filter.c.o
                0x00075754                ARCOMMANDS_Filter_SetCommonAnimationsStartAnimationBehavior
 .text.ARCOMMANDS_Filter_SetCommonAnimationsStopAnimationBehavior
                0x00075770       0x1c /home/ncs/CAPSTONE/out/arsdk-native/build/libARCommands/obj/gen/Sources/ARCOMMANDS_Filter.c.o
                0x00075770                ARCOMMANDS_Filter_SetCommonAnimationsStopAnimationBehavior
 .text.ARCOMMANDS_Filter_SetCommonAnimationsStopAllAnimationsBehavior
                0x0007578c       0x1c /home/ncs/CAPSTONE/out/arsdk-native/build/libARCommands/obj/gen/Sources/ARCOMMANDS_Filter.c.o
                0x0007578c                ARCOMMANDS_Filter_SetCommonAnimationsStopAllAnimationsBehavior
 .text.ARCOMMANDS_Filter_SetCommonAccessoryConfigBehavior
                0x000757a8       0x1c /home/ncs/CAPSTONE/out/arsdk-native/build/libARCommands/obj/gen/Sources/ARCOMMANDS_Filter.c.o
                0x000757a8                ARCOMMANDS_Filter_SetCommonAccessoryConfigBehavior
 .text.ARCOMMANDS_Filter_SetCommonAccessoryBehavior
                0x000757c4        0x4 /home/ncs/CAPSTONE/out/arsdk-native/build/libARCommands/obj/gen/Sources/ARCOMMANDS_Filter.c.o
                0x000757c4                ARCOMMANDS_Filter_SetCommonAccessoryBehavior
 .text.ARCOMMANDS_Filter_SetCommonChargerSetMaxChargeRateBehavior
                0x000757c8       0x1c /home/ncs/CAPSTONE/out/arsdk-native/build/libARCommands/obj/gen/Sources/ARCOMMANDS_Filter.c.o
                0x000757c8                ARCOMMANDS_Filter_SetCommonChargerSetMaxChargeRateBehavior
 .text.ARCOMMANDS_Filter_SetCommonChargerBehavior
                0x000757e4        0x4 /home/ncs/CAPSTONE/out/arsdk-native/build/libARCommands/obj/gen/Sources/ARCOMMANDS_Filter.c.o
                0x000757e4                ARCOMMANDS_Filter_SetCommonChargerBehavior
 .text.ARCOMMANDS_Filter_SetCommonNetworkEventDisconnectionBehavior
                0x000757e8       0x1c /home/ncs/CAPSTONE/out/arsdk-native/build/libARCommands/obj/gen/Sources/ARCOMMANDS_Filter.c.o
                0x000757e8                ARCOMMANDS_Filter_SetCommonNetworkEventDisconnectionBehavior
 .text.ARCOMMANDS_Filter_SetCommonNetworkEventBehavior
                0x00075804        0x4 /home/ncs/CAPSTONE/out/arsdk-native/build/libARCommands/obj/gen/Sources/ARCOMMANDS_Filter.c.o
                0x00075804                ARCOMMANDS_Filter_SetCommonNetworkEventBehavior
 .text.ARCOMMANDS_Filter_SetCommonSettingsStateAllSettingsChangedBehavior
                0x00075808       0x1c /home/ncs/CAPSTONE/out/arsdk-native/build/libARCommands/obj/gen/Sources/ARCOMMANDS_Filter.c.o
                0x00075808                ARCOMMANDS_Filter_SetCommonSettingsStateAllSettingsChangedBehavior
 .text.ARCOMMANDS_Filter_SetCommonSettingsStateResetChangedBehavior
                0x00075824       0x1c /home/ncs/CAPSTONE/out/arsdk-native/build/libARCommands/obj/gen/Sources/ARCOMMANDS_Filter.c.o
                0x00075824                ARCOMMANDS_Filter_SetCommonSettingsStateResetChangedBehavior
 .text.ARCOMMANDS_Filter_SetCommonSettingsStateProductNameChangedBehavior
                0x00075840       0x1c /home/ncs/CAPSTONE/out/arsdk-native/build/libARCommands/obj/gen/Sources/ARCOMMANDS_Filter.c.o
                0x00075840                ARCOMMANDS_Filter_SetCommonSettingsStateProductNameChangedBehavior
 .text.ARCOMMANDS_Filter_SetCommonSettingsStateProductVersionChangedBehavior
                0x0007585c       0x1c /home/ncs/CAPSTONE/out/arsdk-native/build/libARCommands/obj/gen/Sources/ARCOMMANDS_Filter.c.o
                0x0007585c                ARCOMMANDS_Filter_SetCommonSettingsStateProductVersionChangedBehavior
 .text.ARCOMMANDS_Filter_SetCommonSettingsStateProductSerialHighChangedBehavior
                0x00075878       0x1c /home/ncs/CAPSTONE/out/arsdk-native/build/libARCommands/obj/gen/Sources/ARCOMMANDS_Filter.c.o
                0x00075878                ARCOMMANDS_Filter_SetCommonSettingsStateProductSerialHighChangedBehavior
 .text.ARCOMMANDS_Filter_SetCommonSettingsStateProductSerialLowChangedBehavior
                0x00075894       0x1c /home/ncs/CAPSTONE/out/arsdk-native/build/libARCommands/obj/gen/Sources/ARCOMMANDS_Filter.c.o
                0x00075894                ARCOMMANDS_Filter_SetCommonSettingsStateProductSerialLowChangedBehavior
 .text.ARCOMMANDS_Filter_SetCommonSettingsStateCountryChangedBehavior
                0x000758b0       0x1c /home/ncs/CAPSTONE/out/arsdk-native/build/libARCommands/obj/gen/Sources/ARCOMMANDS_Filter.c.o
                0x000758b0                ARCOMMANDS_Filter_SetCommonSettingsStateCountryChangedBehavior
 .text.ARCOMMANDS_Filter_SetCommonSettingsStateAutoCountryChangedBehavior
                0x000758cc       0x1c /home/ncs/CAPSTONE/out/arsdk-native/build/libARCommands/obj/gen/Sources/ARCOMMANDS_Filter.c.o
                0x000758cc                ARCOMMANDS_Filter_SetCommonSettingsStateAutoCountryChangedBehavior
 .text.ARCOMMANDS_Filter_SetCommonCommonStateAllStatesChangedBehavior
                0x000758e8       0x1c /home/ncs/CAPSTONE/out/arsdk-native/build/libARCommands/obj/gen/Sources/ARCOMMANDS_Filter.c.o
                0x000758e8                ARCOMMANDS_Filter_SetCommonCommonStateAllStatesChangedBehavior
 .text.ARCOMMANDS_Filter_SetCommonCommonStateBatteryStateChangedBehavior
                0x00075904       0x1c /home/ncs/CAPSTONE/out/arsdk-native/build/libARCommands/obj/gen/Sources/ARCOMMANDS_Filter.c.o
                0x00075904                ARCOMMANDS_Filter_SetCommonCommonStateBatteryStateChangedBehavior
 .text.ARCOMMANDS_Filter_SetCommonCommonStateMassStorageStateListChangedBehavior
                0x00075920       0x1c /home/ncs/CAPSTONE/out/arsdk-native/build/libARCommands/obj/gen/Sources/ARCOMMANDS_Filter.c.o
                0x00075920                ARCOMMANDS_Filter_SetCommonCommonStateMassStorageStateListChangedBehavior
 .text.ARCOMMANDS_Filter_SetCommonCommonStateMassStorageInfoStateListChangedBehavior
                0x0007593c       0x1c /home/ncs/CAPSTONE/out/arsdk-native/build/libARCommands/obj/gen/Sources/ARCOMMANDS_Filter.c.o
                0x0007593c                ARCOMMANDS_Filter_SetCommonCommonStateMassStorageInfoStateListChangedBehavior
 .text.ARCOMMANDS_Filter_SetCommonCommonStateCurrentDateChangedBehavior
                0x00075958       0x1c /home/ncs/CAPSTONE/out/arsdk-native/build/libARCommands/obj/gen/Sources/ARCOMMANDS_Filter.c.o
                0x00075958                ARCOMMANDS_Filter_SetCommonCommonStateCurrentDateChangedBehavior
 .text.ARCOMMANDS_Filter_SetCommonCommonStateCurrentTimeChangedBehavior
                0x00075974       0x1c /home/ncs/CAPSTONE/out/arsdk-native/build/libARCommands/obj/gen/Sources/ARCOMMANDS_Filter.c.o
                0x00075974                ARCOMMANDS_Filter_SetCommonCommonStateCurrentTimeChangedBehavior
 .text.ARCOMMANDS_Filter_SetCommonCommonStateMassStorageInfoRemainingListChangedBehavior
                0x00075990       0x1c /home/ncs/CAPSTONE/out/arsdk-native/build/libARCommands/obj/gen/Sources/ARCOMMANDS_Filter.c.o
                0x00075990                ARCOMMANDS_Filter_SetCommonCommonStateMassStorageInfoRemainingListChangedBehavior
 .text.ARCOMMANDS_Filter_SetCommonCommonStateWifiSignalChangedBehavior
                0x000759ac       0x1c /home/ncs/CAPSTONE/out/arsdk-native/build/libARCommands/obj/gen/Sources/ARCOMMANDS_Filter.c.o
                0x000759ac                ARCOMMANDS_Filter_SetCommonCommonStateWifiSignalChangedBehavior
 .text.ARCOMMANDS_Filter_SetCommonCommonStateSensorsStatesListChangedBehavior
                0x000759c8       0x1c /home/ncs/CAPSTONE/out/arsdk-native/build/libARCommands/obj/gen/Sources/ARCOMMANDS_Filter.c.o
                0x000759c8                ARCOMMANDS_Filter_SetCommonCommonStateSensorsStatesListChangedBehavior
 .text.ARCOMMANDS_Filter_SetCommonCommonStateProductModelBehavior
                0x000759e4       0x1c /home/ncs/CAPSTONE/out/arsdk-native/build/libARCommands/obj/gen/Sources/ARCOMMANDS_Filter.c.o
                0x000759e4                ARCOMMANDS_Filter_SetCommonCommonStateProductModelBehavior
 .text.ARCOMMANDS_Filter_SetCommonCommonStateCountryListKnownBehavior
                0x00075a00       0x1c /home/ncs/CAPSTONE/out/arsdk-native/build/libARCommands/obj/gen/Sources/ARCOMMANDS_Filter.c.o
                0x00075a00                ARCOMMANDS_Filter_SetCommonCommonStateCountryListKnownBehavior
 .text.ARCOMMANDS_Filter_SetCommonCommonStateDeprecatedMassStorageContentChangedBehavior
                0x00075a1c       0x1c /home/ncs/CAPSTONE/out/arsdk-native/build/libARCommands/obj/gen/Sources/ARCOMMANDS_Filter.c.o
                0x00075a1c                ARCOMMANDS_Filter_SetCommonCommonStateDeprecatedMassStorageContentChangedBehavior
 .text.ARCOMMANDS_Filter_SetCommonCommonStateMassStorageContentBehavior
                0x00075a38       0x1c /home/ncs/CAPSTONE/out/arsdk-native/build/libARCommands/obj/gen/Sources/ARCOMMANDS_Filter.c.o
                0x00075a38                ARCOMMANDS_Filter_SetCommonCommonStateMassStorageContentBehavior
 .text.ARCOMMANDS_Filter_SetCommonCommonStateMassStorageContentForCurrentRunBehavior
                0x00075a54       0x1c /home/ncs/CAPSTONE/out/arsdk-native/build/libARCommands/obj/gen/Sources/ARCOMMANDS_Filter.c.o
                0x00075a54                ARCOMMANDS_Filter_SetCommonCommonStateMassStorageContentForCurrentRunBehavior
 .text.ARCOMMANDS_Filter_SetCommonOverHeatStateOverHeatChangedBehavior
                0x00075a70       0x1c /home/ncs/CAPSTONE/out/arsdk-native/build/libARCommands/obj/gen/Sources/ARCOMMANDS_Filter.c.o
                0x00075a70                ARCOMMANDS_Filter_SetCommonOverHeatStateOverHeatChangedBehavior
 .text.ARCOMMANDS_Filter_SetCommonOverHeatStateOverHeatRegulationChangedBehavior
                0x00075a8c       0x1c /home/ncs/CAPSTONE/out/arsdk-native/build/libARCommands/obj/gen/Sources/ARCOMMANDS_Filter.c.o
                0x00075a8c                ARCOMMANDS_Filter_SetCommonOverHeatStateOverHeatRegulationChangedBehavior
 .text.ARCOMMANDS_Filter_SetCommonWifiSettingsStateOutdoorSettingsChangedBehavior
                0x00075aa8       0x1c /home/ncs/CAPSTONE/out/arsdk-native/build/libARCommands/obj/gen/Sources/ARCOMMANDS_Filter.c.o
                0x00075aa8                ARCOMMANDS_Filter_SetCommonWifiSettingsStateOutdoorSettingsChangedBehavior
 .text.ARCOMMANDS_Filter_SetCommonWifiSettingsStateBehavior
                0x00075ac4        0x4 /home/ncs/CAPSTONE/out/arsdk-native/build/libARCommands/obj/gen/Sources/ARCOMMANDS_Filter.c.o
                0x00075ac4                ARCOMMANDS_Filter_SetCommonWifiSettingsStateBehavior
 .text.ARCOMMANDS_Filter_SetCommonMavlinkStateMavlinkFilePlayingStateChangedBehavior
                0x00075ac8       0x1c /home/ncs/CAPSTONE/out/arsdk-native/build/libARCommands/obj/gen/Sources/ARCOMMANDS_Filter.c.o
                0x00075ac8                ARCOMMANDS_Filter_SetCommonMavlinkStateMavlinkFilePlayingStateChangedBehavior
 .text.ARCOMMANDS_Filter_SetCommonMavlinkStateMavlinkPlayErrorStateChangedBehavior
                0x00075ae4       0x1c /home/ncs/CAPSTONE/out/arsdk-native/build/libARCommands/obj/gen/Sources/ARCOMMANDS_Filter.c.o
                0x00075ae4                ARCOMMANDS_Filter_SetCommonMavlinkStateMavlinkPlayErrorStateChangedBehavior
 .text.ARCOMMANDS_Filter_SetCommonCalibrationStateMagnetoCalibrationStateChangedBehavior
                0x00075b00       0x1c /home/ncs/CAPSTONE/out/arsdk-native/build/libARCommands/obj/gen/Sources/ARCOMMANDS_Filter.c.o
                0x00075b00                ARCOMMANDS_Filter_SetCommonCalibrationStateMagnetoCalibrationStateChangedBehavior
 .text.ARCOMMANDS_Filter_SetCommonCalibrationStateMagnetoCalibrationRequiredStateBehavior
                0x00075b1c       0x1c /home/ncs/CAPSTONE/out/arsdk-native/build/libARCommands/obj/gen/Sources/ARCOMMANDS_Filter.c.o
                0x00075b1c                ARCOMMANDS_Filter_SetCommonCalibrationStateMagnetoCalibrationRequiredStateBehavior
 .text.ARCOMMANDS_Filter_SetCommonCalibrationStateMagnetoCalibrationAxisToCalibrateChangedBehavior
                0x00075b38       0x1c /home/ncs/CAPSTONE/out/arsdk-native/build/libARCommands/obj/gen/Sources/ARCOMMANDS_Filter.c.o
                0x00075b38                ARCOMMANDS_Filter_SetCommonCalibrationStateMagnetoCalibrationAxisToCalibrateChangedBehavior
 .text.ARCOMMANDS_Filter_SetCommonCalibrationStateMagnetoCalibrationStartedChangedBehavior
                0x00075b54       0x1c /home/ncs/CAPSTONE/out/arsdk-native/build/libARCommands/obj/gen/Sources/ARCOMMANDS_Filter.c.o
                0x00075b54                ARCOMMANDS_Filter_SetCommonCalibrationStateMagnetoCalibrationStartedChangedBehavior
 .text.ARCOMMANDS_Filter_SetCommonCalibrationStatePitotCalibrationStateChangedBehavior
                0x00075b70       0x1c /home/ncs/CAPSTONE/out/arsdk-native/build/libARCommands/obj/gen/Sources/ARCOMMANDS_Filter.c.o
                0x00075b70                ARCOMMANDS_Filter_SetCommonCalibrationStatePitotCalibrationStateChangedBehavior
 .text.ARCOMMANDS_Filter_SetCommonCameraSettingsStateCameraSettingsChangedBehavior
                0x00075b8c       0x1c /home/ncs/CAPSTONE/out/arsdk-native/build/libARCommands/obj/gen/Sources/ARCOMMANDS_Filter.c.o
                0x00075b8c                ARCOMMANDS_Filter_SetCommonCameraSettingsStateCameraSettingsChangedBehavior
 .text.ARCOMMANDS_Filter_SetCommonCameraSettingsStateBehavior
                0x00075ba8        0x4 /home/ncs/CAPSTONE/out/arsdk-native/build/libARCommands/obj/gen/Sources/ARCOMMANDS_Filter.c.o
                0x00075ba8                ARCOMMANDS_Filter_SetCommonCameraSettingsStateBehavior
 .text.ARCOMMANDS_Filter_SetCommonFlightPlanStateAvailabilityStateChangedBehavior
                0x00075bac       0x1c /home/ncs/CAPSTONE/out/arsdk-native/build/libARCommands/obj/gen/Sources/ARCOMMANDS_Filter.c.o
                0x00075bac                ARCOMMANDS_Filter_SetCommonFlightPlanStateAvailabilityStateChangedBehavior
 .text.ARCOMMANDS_Filter_SetCommonFlightPlanStateComponentStateListChangedBehavior
                0x00075bc8       0x1c /home/ncs/CAPSTONE/out/arsdk-native/build/libARCommands/obj/gen/Sources/ARCOMMANDS_Filter.c.o
                0x00075bc8                ARCOMMANDS_Filter_SetCommonFlightPlanStateComponentStateListChangedBehavior
 .text.ARCOMMANDS_Filter_SetCommonFlightPlanStateLockStateChangedBehavior
                0x00075be4       0x1c /home/ncs/CAPSTONE/out/arsdk-native/build/libARCommands/obj/gen/Sources/ARCOMMANDS_Filter.c.o
                0x00075be4                ARCOMMANDS_Filter_SetCommonFlightPlanStateLockStateChangedBehavior
 .text.ARCOMMANDS_Filter_SetCommonFlightPlanEventStartingErrorEventBehavior
                0x00075c00       0x1c /home/ncs/CAPSTONE/out/arsdk-native/build/libARCommands/obj/gen/Sources/ARCOMMANDS_Filter.c.o
                0x00075c00                ARCOMMANDS_Filter_SetCommonFlightPlanEventStartingErrorEventBehavior
 .text.ARCOMMANDS_Filter_SetCommonFlightPlanEventSpeedBridleEventBehavior
                0x00075c1c       0x1c /home/ncs/CAPSTONE/out/arsdk-native/build/libARCommands/obj/gen/Sources/ARCOMMANDS_Filter.c.o
                0x00075c1c                ARCOMMANDS_Filter_SetCommonFlightPlanEventSpeedBridleEventBehavior
 .text.ARCOMMANDS_Filter_SetCommonARLibsVersionsStateControllerLibARCommandsVersionBehavior
                0x00075c38       0x1c /home/ncs/CAPSTONE/out/arsdk-native/build/libARCommands/obj/gen/Sources/ARCOMMANDS_Filter.c.o
                0x00075c38                ARCOMMANDS_Filter_SetCommonARLibsVersionsStateControllerLibARCommandsVersionBehavior
 .text.ARCOMMANDS_Filter_SetCommonARLibsVersionsStateSkyControllerLibARCommandsVersionBehavior
                0x00075c54       0x1c /home/ncs/CAPSTONE/out/arsdk-native/build/libARCommands/obj/gen/Sources/ARCOMMANDS_Filter.c.o
                0x00075c54                ARCOMMANDS_Filter_SetCommonARLibsVersionsStateSkyControllerLibARCommandsVersionBehavior
 .text.ARCOMMANDS_Filter_SetCommonARLibsVersionsStateDeviceLibARCommandsVersionBehavior
                0x00075c70       0x1c /home/ncs/CAPSTONE/out/arsdk-native/build/libARCommands/obj/gen/Sources/ARCOMMANDS_Filter.c.o
                0x00075c70                ARCOMMANDS_Filter_SetCommonARLibsVersionsStateDeviceLibARCommandsVersionBehavior
 .text.ARCOMMANDS_Filter_SetCommonAudioStateAudioStreamingRunningBehavior
                0x00075c8c       0x1c /home/ncs/CAPSTONE/out/arsdk-native/build/libARCommands/obj/gen/Sources/ARCOMMANDS_Filter.c.o
                0x00075c8c                ARCOMMANDS_Filter_SetCommonAudioStateAudioStreamingRunningBehavior
 .text.ARCOMMANDS_Filter_SetCommonAudioStateBehavior
                0x00075ca8        0x4 /home/ncs/CAPSTONE/out/arsdk-native/build/libARCommands/obj/gen/Sources/ARCOMMANDS_Filter.c.o
                0x00075ca8                ARCOMMANDS_Filter_SetCommonAudioStateBehavior
 .text.ARCOMMANDS_Filter_SetCommonHeadlightsStateIntensityChangedBehavior
                0x00075cac       0x1c /home/ncs/CAPSTONE/out/arsdk-native/build/libARCommands/obj/gen/Sources/ARCOMMANDS_Filter.c.o
                0x00075cac                ARCOMMANDS_Filter_SetCommonHeadlightsStateIntensityChangedBehavior
 .text.ARCOMMANDS_Filter_SetCommonHeadlightsStateBehavior
                0x00075cc8        0x4 /home/ncs/CAPSTONE/out/arsdk-native/build/libARCommands/obj/gen/Sources/ARCOMMANDS_Filter.c.o
                0x00075cc8                ARCOMMANDS_Filter_SetCommonHeadlightsStateBehavior
 .text.ARCOMMANDS_Filter_SetCommonAnimationsStateListBehavior
                0x00075ccc       0x1c /home/ncs/CAPSTONE/out/arsdk-native/build/libARCommands/obj/gen/Sources/ARCOMMANDS_Filter.c.o
                0x00075ccc                ARCOMMANDS_Filter_SetCommonAnimationsStateListBehavior
 .text.ARCOMMANDS_Filter_SetCommonAnimationsStateBehavior
                0x00075ce8        0x4 /home/ncs/CAPSTONE/out/arsdk-native/build/libARCommands/obj/gen/Sources/ARCOMMANDS_Filter.c.o
                0x00075ce8                ARCOMMANDS_Filter_SetCommonAnimationsStateBehavior
 .text.ARCOMMANDS_Filter_SetCommonAccessoryStateSupportedAccessoriesListChangedBehavior
                0x00075cec       0x1c /home/ncs/CAPSTONE/out/arsdk-native/build/libARCommands/obj/gen/Sources/ARCOMMANDS_Filter.c.o
                0x00075cec                ARCOMMANDS_Filter_SetCommonAccessoryStateSupportedAccessoriesListChangedBehavior
 .text.ARCOMMANDS_Filter_SetCommonAccessoryStateAccessoryConfigChangedBehavior
                0x00075d08       0x1c /home/ncs/CAPSTONE/out/arsdk-native/build/libARCommands/obj/gen/Sources/ARCOMMANDS_Filter.c.o
                0x00075d08                ARCOMMANDS_Filter_SetCommonAccessoryStateAccessoryConfigChangedBehavior
 .text.ARCOMMANDS_Filter_SetCommonAccessoryStateAccessoryConfigModificationEnabledBehavior
                0x00075d24       0x1c /home/ncs/CAPSTONE/out/arsdk-native/build/libARCommands/obj/gen/Sources/ARCOMMANDS_Filter.c.o
                0x00075d24                ARCOMMANDS_Filter_SetCommonAccessoryStateAccessoryConfigModificationEnabledBehavior
 .text.ARCOMMANDS_Filter_SetCommonChargerStateMaxChargeRateChangedBehavior
                0x00075d40       0x1c /home/ncs/CAPSTONE/out/arsdk-native/build/libARCommands/obj/gen/Sources/ARCOMMANDS_Filter.c.o
                0x00075d40                ARCOMMANDS_Filter_SetCommonChargerStateMaxChargeRateChangedBehavior
 .text.ARCOMMANDS_Filter_SetCommonChargerStateCurrentChargeStateChangedBehavior
                0x00075d5c       0x1c /home/ncs/CAPSTONE/out/arsdk-native/build/libARCommands/obj/gen/Sources/ARCOMMANDS_Filter.c.o
                0x00075d5c                ARCOMMANDS_Filter_SetCommonChargerStateCurrentChargeStateChangedBehavior
 .text.ARCOMMANDS_Filter_SetCommonChargerStateLastChargeRateChangedBehavior
                0x00075d78       0x1c /home/ncs/CAPSTONE/out/arsdk-native/build/libARCommands/obj/gen/Sources/ARCOMMANDS_Filter.c.o
                0x00075d78                ARCOMMANDS_Filter_SetCommonChargerStateLastChargeRateChangedBehavior
 .text.ARCOMMANDS_Filter_SetCommonChargerStateChargingInfoBehavior
                0x00075d94       0x1c /home/ncs/CAPSTONE/out/arsdk-native/build/libARCommands/obj/gen/Sources/ARCOMMANDS_Filter.c.o
                0x00075d94                ARCOMMANDS_Filter_SetCommonChargerStateChargingInfoBehavior
 .text.ARCOMMANDS_Filter_SetCommonRunStateRunIdChangedBehavior
                0x00075db0       0x1c /home/ncs/CAPSTONE/out/arsdk-native/build/libARCommands/obj/gen/Sources/ARCOMMANDS_Filter.c.o
                0x00075db0                ARCOMMANDS_Filter_SetCommonRunStateRunIdChangedBehavior
 .text.ARCOMMANDS_Filter_SetCommonRunStateBehavior
                0x00075dcc        0x4 /home/ncs/CAPSTONE/out/arsdk-native/build/libARCommands/obj/gen/Sources/ARCOMMANDS_Filter.c.o
                0x00075dcc                ARCOMMANDS_Filter_SetCommonRunStateBehavior
 .text.ARCOMMANDS_Filter_SetControllerInfoBehavior
                0x00075dd0       0x20 /home/ncs/CAPSTONE/out/arsdk-native/build/libARCommands/obj/gen/Sources/ARCOMMANDS_Filter.c.o
                0x00075dd0                ARCOMMANDS_Filter_SetControllerInfoBehavior
 .text.ARCOMMANDS_Filter_SetControllerInfoGpsBehavior
                0x00075df0       0x1c /home/ncs/CAPSTONE/out/arsdk-native/build/libARCommands/obj/gen/Sources/ARCOMMANDS_Filter.c.o
                0x00075df0                ARCOMMANDS_Filter_SetControllerInfoGpsBehavior
 .text.ARCOMMANDS_Filter_SetControllerInfoBarometerBehavior
                0x00075e0c       0x1c /home/ncs/CAPSTONE/out/arsdk-native/build/libARCommands/obj/gen/Sources/ARCOMMANDS_Filter.c.o
                0x00075e0c                ARCOMMANDS_Filter_SetControllerInfoBarometerBehavior
 .text.ARCOMMANDS_Filter_SetDebugBehavior
                0x00075e28       0x28 /home/ncs/CAPSTONE/out/arsdk-native/build/libARCommands/obj/gen/Sources/ARCOMMANDS_Filter.c.o
                0x00075e28                ARCOMMANDS_Filter_SetDebugBehavior
 .text.ARCOMMANDS_Filter_SetDebugGetAllSettingsBehavior
                0x00075e50       0x1c /home/ncs/CAPSTONE/out/arsdk-native/build/libARCommands/obj/gen/Sources/ARCOMMANDS_Filter.c.o
                0x00075e50                ARCOMMANDS_Filter_SetDebugGetAllSettingsBehavior
 .text.ARCOMMANDS_Filter_SetDebugSetSettingBehavior
                0x00075e6c       0x1c /home/ncs/CAPSTONE/out/arsdk-native/build/libARCommands/obj/gen/Sources/ARCOMMANDS_Filter.c.o
                0x00075e6c                ARCOMMANDS_Filter_SetDebugSetSettingBehavior
 .text.ARCOMMANDS_Filter_SetDebugSettingsInfoBehavior
                0x00075e88       0x1c /home/ncs/CAPSTONE/out/arsdk-native/build/libARCommands/obj/gen/Sources/ARCOMMANDS_Filter.c.o
                0x00075e88                ARCOMMANDS_Filter_SetDebugSettingsInfoBehavior
 .text.ARCOMMANDS_Filter_SetDebugSettingsListBehavior
                0x00075ea4       0x1c /home/ncs/CAPSTONE/out/arsdk-native/build/libARCommands/obj/gen/Sources/ARCOMMANDS_Filter.c.o
                0x00075ea4                ARCOMMANDS_Filter_SetDebugSettingsListBehavior
 .text.ARCOMMANDS_Filter_SetDroneManagerBehavior
                0x00075ec0       0x34 /home/ncs/CAPSTONE/out/arsdk-native/build/libARCommands/obj/gen/Sources/ARCOMMANDS_Filter.c.o
                0x00075ec0                ARCOMMANDS_Filter_SetDroneManagerBehavior
 .text.ARCOMMANDS_Filter_SetDroneManagerDiscoverDronesBehavior
                0x00075ef4       0x1c /home/ncs/CAPSTONE/out/arsdk-native/build/libARCommands/obj/gen/Sources/ARCOMMANDS_Filter.c.o
                0x00075ef4                ARCOMMANDS_Filter_SetDroneManagerDiscoverDronesBehavior
 .text.ARCOMMANDS_Filter_SetDroneManagerConnectBehavior
                0x00075f10       0x1c /home/ncs/CAPSTONE/out/arsdk-native/build/libARCommands/obj/gen/Sources/ARCOMMANDS_Filter.c.o
                0x00075f10                ARCOMMANDS_Filter_SetDroneManagerConnectBehavior
 .text.ARCOMMANDS_Filter_SetDroneManagerForgetBehavior
                0x00075f2c       0x1c /home/ncs/CAPSTONE/out/arsdk-native/build/libARCommands/obj/gen/Sources/ARCOMMANDS_Filter.c.o
                0x00075f2c                ARCOMMANDS_Filter_SetDroneManagerForgetBehavior
 .text.ARCOMMANDS_Filter_SetDroneManagerDroneListItemBehavior
                0x00075f48       0x1c /home/ncs/CAPSTONE/out/arsdk-native/build/libARCommands/obj/gen/Sources/ARCOMMANDS_Filter.c.o
                0x00075f48                ARCOMMANDS_Filter_SetDroneManagerDroneListItemBehavior
 .text.ARCOMMANDS_Filter_SetDroneManagerConnectionStateBehavior
                0x00075f64       0x1c /home/ncs/CAPSTONE/out/arsdk-native/build/libARCommands/obj/gen/Sources/ARCOMMANDS_Filter.c.o
                0x00075f64                ARCOMMANDS_Filter_SetDroneManagerConnectionStateBehavior
 .text.ARCOMMANDS_Filter_SetDroneManagerAuthenticationFailedBehavior
                0x00075f80       0x1c /home/ncs/CAPSTONE/out/arsdk-native/build/libARCommands/obj/gen/Sources/ARCOMMANDS_Filter.c.o
                0x00075f80                ARCOMMANDS_Filter_SetDroneManagerAuthenticationFailedBehavior
 .text.ARCOMMANDS_Filter_SetDroneManagerConnectionRefusedBehavior
                0x00075f9c       0x1c /home/ncs/CAPSTONE/out/arsdk-native/build/libARCommands/obj/gen/Sources/ARCOMMANDS_Filter.c.o
                0x00075f9c                ARCOMMANDS_Filter_SetDroneManagerConnectionRefusedBehavior
 .text.ARCOMMANDS_Filter_SetJumpingSumoBehavior
                0x00075fb8       0xec /home/ncs/CAPSTONE/out/arsdk-native/build/libARCommands/obj/gen/Sources/ARCOMMANDS_Filter.c.o
                0x00075fb8                ARCOMMANDS_Filter_SetJumpingSumoBehavior
 .text.ARCOMMANDS_Filter_SetJumpingSumoPilotingBehavior
                0x000760a4       0x24 /home/ncs/CAPSTONE/out/arsdk-native/build/libARCommands/obj/gen/Sources/ARCOMMANDS_Filter.c.o
                0x000760a4                ARCOMMANDS_Filter_SetJumpingSumoPilotingBehavior
 .text.ARCOMMANDS_Filter_SetJumpingSumoPilotingStateBehavior
                0x000760c8       0x24 /home/ncs/CAPSTONE/out/arsdk-native/build/libARCommands/obj/gen/Sources/ARCOMMANDS_Filter.c.o
                0x000760c8                ARCOMMANDS_Filter_SetJumpingSumoPilotingStateBehavior
 .text.ARCOMMANDS_Filter_SetJumpingSumoAnimationsBehavior
                0x000760ec       0x2c /home/ncs/CAPSTONE/out/arsdk-native/build/libARCommands/obj/gen/Sources/ARCOMMANDS_Filter.c.o
                0x000760ec                ARCOMMANDS_Filter_SetJumpingSumoAnimationsBehavior
 .text.ARCOMMANDS_Filter_SetJumpingSumoAnimationsStateBehavior
                0x00076118       0x24 /home/ncs/CAPSTONE/out/arsdk-native/build/libARCommands/obj/gen/Sources/ARCOMMANDS_Filter.c.o
                0x00076118                ARCOMMANDS_Filter_SetJumpingSumoAnimationsStateBehavior
 .text.ARCOMMANDS_Filter_SetJumpingSumoMediaRecordBehavior
                0x0007613c       0x28 /home/ncs/CAPSTONE/out/arsdk-native/build/libARCommands/obj/gen/Sources/ARCOMMANDS_Filter.c.o
                0x0007613c                ARCOMMANDS_Filter_SetJumpingSumoMediaRecordBehavior
 .text.ARCOMMANDS_Filter_SetJumpingSumoMediaRecordStateBehavior
                0x00076164       0x28 /home/ncs/CAPSTONE/out/arsdk-native/build/libARCommands/obj/gen/Sources/ARCOMMANDS_Filter.c.o
                0x00076164                ARCOMMANDS_Filter_SetJumpingSumoMediaRecordStateBehavior
 .text.ARCOMMANDS_Filter_SetJumpingSumoMediaRecordEventBehavior
                0x0007618c       0x20 /home/ncs/CAPSTONE/out/arsdk-native/build/libARCommands/obj/gen/Sources/ARCOMMANDS_Filter.c.o
                0x0007618c                ARCOMMANDS_Filter_SetJumpingSumoMediaRecordEventBehavior
 .text.ARCOMMANDS_Filter_SetJumpingSumoNetworkBehavior
                0x000761ac       0x20 /home/ncs/CAPSTONE/out/arsdk-native/build/libARCommands/obj/gen/Sources/ARCOMMANDS_Filter.c.o
                0x000761ac                ARCOMMANDS_Filter_SetJumpingSumoNetworkBehavior
 .text.ARCOMMANDS_Filter_SetJumpingSumoNetworkStateBehavior
                0x000761cc       0x2c /home/ncs/CAPSTONE/out/arsdk-native/build/libARCommands/obj/gen/Sources/ARCOMMANDS_Filter.c.o
                0x000761cc                ARCOMMANDS_Filter_SetJumpingSumoNetworkStateBehavior
 .text.ARCOMMANDS_Filter_SetJumpingSumoAudioSettingsBehavior
                0x000761f8       0x20 /home/ncs/CAPSTONE/out/arsdk-native/build/libARCommands/obj/gen/Sources/ARCOMMANDS_Filter.c.o
                0x000761f8                ARCOMMANDS_Filter_SetJumpingSumoAudioSettingsBehavior
 .text.ARCOMMANDS_Filter_SetJumpingSumoAudioSettingsStateBehavior
                0x00076218       0x20 /home/ncs/CAPSTONE/out/arsdk-native/build/libARCommands/obj/gen/Sources/ARCOMMANDS_Filter.c.o
                0x00076218                ARCOMMANDS_Filter_SetJumpingSumoAudioSettingsStateBehavior
 .text.ARCOMMANDS_Filter_SetJumpingSumoRoadPlanBehavior
                0x00076238       0x28 /home/ncs/CAPSTONE/out/arsdk-native/build/libARCommands/obj/gen/Sources/ARCOMMANDS_Filter.c.o
                0x00076238                ARCOMMANDS_Filter_SetJumpingSumoRoadPlanBehavior
 .text.ARCOMMANDS_Filter_SetJumpingSumoRoadPlanStateBehavior
                0x00076260       0x2c /home/ncs/CAPSTONE/out/arsdk-native/build/libARCommands/obj/gen/Sources/ARCOMMANDS_Filter.c.o
                0x00076260                ARCOMMANDS_Filter_SetJumpingSumoRoadPlanStateBehavior
 .text.ARCOMMANDS_Filter_SetJumpingSumoPilotingPCMDBehavior
                0x0007628c       0x1c /home/ncs/CAPSTONE/out/arsdk-native/build/libARCommands/obj/gen/Sources/ARCOMMANDS_Filter.c.o
                0x0007628c                ARCOMMANDS_Filter_SetJumpingSumoPilotingPCMDBehavior
 .text.ARCOMMANDS_Filter_SetJumpingSumoPilotingPostureBehavior
                0x000762a8       0x1c /home/ncs/CAPSTONE/out/arsdk-native/build/libARCommands/obj/gen/Sources/ARCOMMANDS_Filter.c.o
                0x000762a8                ARCOMMANDS_Filter_SetJumpingSumoPilotingPostureBehavior
 .text.ARCOMMANDS_Filter_SetJumpingSumoPilotingAddCapOffsetBehavior
                0x000762c4       0x1c /home/ncs/CAPSTONE/out/arsdk-native/build/libARCommands/obj/gen/Sources/ARCOMMANDS_Filter.c.o
                0x000762c4                ARCOMMANDS_Filter_SetJumpingSumoPilotingAddCapOffsetBehavior
 .text.ARCOMMANDS_Filter_SetJumpingSumoAnimationsJumpStopBehavior
                0x000762e0       0x1c /home/ncs/CAPSTONE/out/arsdk-native/build/libARCommands/obj/gen/Sources/ARCOMMANDS_Filter.c.o
                0x000762e0                ARCOMMANDS_Filter_SetJumpingSumoAnimationsJumpStopBehavior
 .text.ARCOMMANDS_Filter_SetJumpingSumoAnimationsJumpCancelBehavior
                0x000762fc       0x1c /home/ncs/CAPSTONE/out/arsdk-native/build/libARCommands/obj/gen/Sources/ARCOMMANDS_Filter.c.o
                0x000762fc                ARCOMMANDS_Filter_SetJumpingSumoAnimationsJumpCancelBehavior
 .text.ARCOMMANDS_Filter_SetJumpingSumoAnimationsJumpLoadBehavior
                0x00076318       0x1c /home/ncs/CAPSTONE/out/arsdk-native/build/libARCommands/obj/gen/Sources/ARCOMMANDS_Filter.c.o
                0x00076318                ARCOMMANDS_Filter_SetJumpingSumoAnimationsJumpLoadBehavior
 .text.ARCOMMANDS_Filter_SetJumpingSumoAnimationsJumpBehavior
                0x00076334       0x1c /home/ncs/CAPSTONE/out/arsdk-native/build/libARCommands/obj/gen/Sources/ARCOMMANDS_Filter.c.o
                0x00076334                ARCOMMANDS_Filter_SetJumpingSumoAnimationsJumpBehavior
 .text.ARCOMMANDS_Filter_SetJumpingSumoAnimationsSimpleAnimationBehavior
                0x00076350       0x1c /home/ncs/CAPSTONE/out/arsdk-native/build/libARCommands/obj/gen/Sources/ARCOMMANDS_Filter.c.o
                0x00076350                ARCOMMANDS_Filter_SetJumpingSumoAnimationsSimpleAnimationBehavior
 .text.ARCOMMANDS_Filter_SetJumpingSumoMediaRecordPictureBehavior
                0x0007636c       0x1c /home/ncs/CAPSTONE/out/arsdk-native/build/libARCommands/obj/gen/Sources/ARCOMMANDS_Filter.c.o
                0x0007636c                ARCOMMANDS_Filter_SetJumpingSumoMediaRecordPictureBehavior
 .text.ARCOMMANDS_Filter_SetJumpingSumoMediaRecordVideoBehavior
                0x00076388       0x1c /home/ncs/CAPSTONE/out/arsdk-native/build/libARCommands/obj/gen/Sources/ARCOMMANDS_Filter.c.o
                0x00076388                ARCOMMANDS_Filter_SetJumpingSumoMediaRecordVideoBehavior
 .text.ARCOMMANDS_Filter_SetJumpingSumoMediaRecordPictureV2Behavior
                0x000763a4       0x1c /home/ncs/CAPSTONE/out/arsdk-native/build/libARCommands/obj/gen/Sources/ARCOMMANDS_Filter.c.o
                0x000763a4                ARCOMMANDS_Filter_SetJumpingSumoMediaRecordPictureV2Behavior
 .text.ARCOMMANDS_Filter_SetJumpingSumoMediaRecordVideoV2Behavior
                0x000763c0       0x1c /home/ncs/CAPSTONE/out/arsdk-native/build/libARCommands/obj/gen/Sources/ARCOMMANDS_Filter.c.o
                0x000763c0                ARCOMMANDS_Filter_SetJumpingSumoMediaRecordVideoV2Behavior
 .text.ARCOMMANDS_Filter_SetJumpingSumoNetworkSettingsWifiSelectionBehavior
                0x000763dc       0x1c /home/ncs/CAPSTONE/out/arsdk-native/build/libARCommands/obj/gen/Sources/ARCOMMANDS_Filter.c.o
                0x000763dc                ARCOMMANDS_Filter_SetJumpingSumoNetworkSettingsWifiSelectionBehavior
 .text.ARCOMMANDS_Filter_SetJumpingSumoNetworkSettingsBehavior
                0x000763f8        0x4 /home/ncs/CAPSTONE/out/arsdk-native/build/libARCommands/obj/gen/Sources/ARCOMMANDS_Filter.c.o
                0x000763f8                ARCOMMANDS_Filter_SetJumpingSumoNetworkSettingsBehavior
 .text.ARCOMMANDS_Filter_SetJumpingSumoNetworkWifiScanBehavior
                0x000763fc       0x1c /home/ncs/CAPSTONE/out/arsdk-native/build/libARCommands/obj/gen/Sources/ARCOMMANDS_Filter.c.o
                0x000763fc                ARCOMMANDS_Filter_SetJumpingSumoNetworkWifiScanBehavior
 .text.ARCOMMANDS_Filter_SetJumpingSumoNetworkWifiAuthChannelBehavior
                0x00076418       0x1c /home/ncs/CAPSTONE/out/arsdk-native/build/libARCommands/obj/gen/Sources/ARCOMMANDS_Filter.c.o
                0x00076418                ARCOMMANDS_Filter_SetJumpingSumoNetworkWifiAuthChannelBehavior
 .text.ARCOMMANDS_Filter_SetJumpingSumoAudioSettingsMasterVolumeBehavior
                0x00076434       0x1c /home/ncs/CAPSTONE/out/arsdk-native/build/libARCommands/obj/gen/Sources/ARCOMMANDS_Filter.c.o
                0x00076434                ARCOMMANDS_Filter_SetJumpingSumoAudioSettingsMasterVolumeBehavior
 .text.ARCOMMANDS_Filter_SetJumpingSumoAudioSettingsThemeBehavior
                0x00076450       0x1c /home/ncs/CAPSTONE/out/arsdk-native/build/libARCommands/obj/gen/Sources/ARCOMMANDS_Filter.c.o
                0x00076450                ARCOMMANDS_Filter_SetJumpingSumoAudioSettingsThemeBehavior
 .text.ARCOMMANDS_Filter_SetJumpingSumoRoadPlanAllScriptsMetadataBehavior
                0x0007646c       0x1c /home/ncs/CAPSTONE/out/arsdk-native/build/libARCommands/obj/gen/Sources/ARCOMMANDS_Filter.c.o
                0x0007646c                ARCOMMANDS_Filter_SetJumpingSumoRoadPlanAllScriptsMetadataBehavior
 .text.ARCOMMANDS_Filter_SetJumpingSumoRoadPlanScriptUploadedBehavior
                0x00076488       0x1c /home/ncs/CAPSTONE/out/arsdk-native/build/libARCommands/obj/gen/Sources/ARCOMMANDS_Filter.c.o
                0x00076488                ARCOMMANDS_Filter_SetJumpingSumoRoadPlanScriptUploadedBehavior
 .text.ARCOMMANDS_Filter_SetJumpingSumoRoadPlanScriptDeleteBehavior
                0x000764a4       0x1c /home/ncs/CAPSTONE/out/arsdk-native/build/libARCommands/obj/gen/Sources/ARCOMMANDS_Filter.c.o
                0x000764a4                ARCOMMANDS_Filter_SetJumpingSumoRoadPlanScriptDeleteBehavior
 .text.ARCOMMANDS_Filter_SetJumpingSumoRoadPlanPlayScriptBehavior
                0x000764c0       0x1c /home/ncs/CAPSTONE/out/arsdk-native/build/libARCommands/obj/gen/Sources/ARCOMMANDS_Filter.c.o
                0x000764c0                ARCOMMANDS_Filter_SetJumpingSumoRoadPlanPlayScriptBehavior
 .text.ARCOMMANDS_Filter_SetJumpingSumoSpeedSettingsOutdoorBehavior
                0x000764dc       0x1c /home/ncs/CAPSTONE/out/arsdk-native/build/libARCommands/obj/gen/Sources/ARCOMMANDS_Filter.c.o
                0x000764dc                ARCOMMANDS_Filter_SetJumpingSumoSpeedSettingsOutdoorBehavior
 .text.ARCOMMANDS_Filter_SetJumpingSumoSpeedSettingsBehavior
                0x000764f8        0x4 /home/ncs/CAPSTONE/out/arsdk-native/build/libARCommands/obj/gen/Sources/ARCOMMANDS_Filter.c.o
                0x000764f8                ARCOMMANDS_Filter_SetJumpingSumoSpeedSettingsBehavior
 .text.ARCOMMANDS_Filter_SetJumpingSumoMediaStreamingVideoEnableBehavior
                0x000764fc       0x1c /home/ncs/CAPSTONE/out/arsdk-native/build/libARCommands/obj/gen/Sources/ARCOMMANDS_Filter.c.o
                0x000764fc                ARCOMMANDS_Filter_SetJumpingSumoMediaStreamingVideoEnableBehavior
 .text.ARCOMMANDS_Filter_SetJumpingSumoMediaStreamingBehavior
                0x00076518        0x4 /home/ncs/CAPSTONE/out/arsdk-native/build/libARCommands/obj/gen/Sources/ARCOMMANDS_Filter.c.o
                0x00076518                ARCOMMANDS_Filter_SetJumpingSumoMediaStreamingBehavior
 .text.ARCOMMANDS_Filter_SetJumpingSumoVideoSettingsAutorecordBehavior
                0x0007651c       0x1c /home/ncs/CAPSTONE/out/arsdk-native/build/libARCommands/obj/gen/Sources/ARCOMMANDS_Filter.c.o
                0x0007651c                ARCOMMANDS_Filter_SetJumpingSumoVideoSettingsAutorecordBehavior
 .text.ARCOMMANDS_Filter_SetJumpingSumoVideoSettingsBehavior
                0x00076538        0x4 /home/ncs/CAPSTONE/out/arsdk-native/build/libARCommands/obj/gen/Sources/ARCOMMANDS_Filter.c.o
                0x00076538                ARCOMMANDS_Filter_SetJumpingSumoVideoSettingsBehavior
 .text.ARCOMMANDS_Filter_SetJumpingSumoPilotingStatePostureChangedBehavior
                0x0007653c       0x1c /home/ncs/CAPSTONE/out/arsdk-native/build/libARCommands/obj/gen/Sources/ARCOMMANDS_Filter.c.o
                0x0007653c                ARCOMMANDS_Filter_SetJumpingSumoPilotingStatePostureChangedBehavior
 .text.ARCOMMANDS_Filter_SetJumpingSumoPilotingStateAlertStateChangedBehavior
                0x00076558       0x1c /home/ncs/CAPSTONE/out/arsdk-native/build/libARCommands/obj/gen/Sources/ARCOMMANDS_Filter.c.o
                0x00076558                ARCOMMANDS_Filter_SetJumpingSumoPilotingStateAlertStateChangedBehavior
 .text.ARCOMMANDS_Filter_SetJumpingSumoPilotingStateSpeedChangedBehavior
                0x00076574       0x1c /home/ncs/CAPSTONE/out/arsdk-native/build/libARCommands/obj/gen/Sources/ARCOMMANDS_Filter.c.o
                0x00076574                ARCOMMANDS_Filter_SetJumpingSumoPilotingStateSpeedChangedBehavior
 .text.ARCOMMANDS_Filter_SetJumpingSumoAnimationsStateJumpLoadChangedBehavior
                0x00076590       0x1c /home/ncs/CAPSTONE/out/arsdk-native/build/libARCommands/obj/gen/Sources/ARCOMMANDS_Filter.c.o
                0x00076590                ARCOMMANDS_Filter_SetJumpingSumoAnimationsStateJumpLoadChangedBehavior
 .text.ARCOMMANDS_Filter_SetJumpingSumoAnimationsStateJumpTypeChangedBehavior
                0x000765ac       0x1c /home/ncs/CAPSTONE/out/arsdk-native/build/libARCommands/obj/gen/Sources/ARCOMMANDS_Filter.c.o
                0x000765ac                ARCOMMANDS_Filter_SetJumpingSumoAnimationsStateJumpTypeChangedBehavior
 .text.ARCOMMANDS_Filter_SetJumpingSumoAnimationsStateJumpMotorProblemChangedBehavior
                0x000765c8       0x1c /home/ncs/CAPSTONE/out/arsdk-native/build/libARCommands/obj/gen/Sources/ARCOMMANDS_Filter.c.o
                0x000765c8                ARCOMMANDS_Filter_SetJumpingSumoAnimationsStateJumpMotorProblemChangedBehavior
 .text.ARCOMMANDS_Filter_SetJumpingSumoSettingsStateProductGPSVersionChangedBehavior
                0x000765e4       0x1c /home/ncs/CAPSTONE/out/arsdk-native/build/libARCommands/obj/gen/Sources/ARCOMMANDS_Filter.c.o
                0x000765e4                ARCOMMANDS_Filter_SetJumpingSumoSettingsStateProductGPSVersionChangedBehavior
 .text.ARCOMMANDS_Filter_SetJumpingSumoSettingsStateBehavior
                0x00076600        0x4 /home/ncs/CAPSTONE/out/arsdk-native/build/libARCommands/obj/gen/Sources/ARCOMMANDS_Filter.c.o
                0x00076600                ARCOMMANDS_Filter_SetJumpingSumoSettingsStateBehavior
 .text.ARCOMMANDS_Filter_SetJumpingSumoMediaRecordStatePictureStateChangedBehavior
                0x00076604       0x1c /home/ncs/CAPSTONE/out/arsdk-native/build/libARCommands/obj/gen/Sources/ARCOMMANDS_Filter.c.o
                0x00076604                ARCOMMANDS_Filter_SetJumpingSumoMediaRecordStatePictureStateChangedBehavior
 .text.ARCOMMANDS_Filter_SetJumpingSumoMediaRecordStateVideoStateChangedBehavior
                0x00076620       0x1c /home/ncs/CAPSTONE/out/arsdk-native/build/libARCommands/obj/gen/Sources/ARCOMMANDS_Filter.c.o
                0x00076620                ARCOMMANDS_Filter_SetJumpingSumoMediaRecordStateVideoStateChangedBehavior
 .text.ARCOMMANDS_Filter_SetJumpingSumoMediaRecordStatePictureStateChangedV2Behavior
                0x0007663c       0x1c /home/ncs/CAPSTONE/out/arsdk-native/build/libARCommands/obj/gen/Sources/ARCOMMANDS_Filter.c.o
                0x0007663c                ARCOMMANDS_Filter_SetJumpingSumoMediaRecordStatePictureStateChangedV2Behavior
 .text.ARCOMMANDS_Filter_SetJumpingSumoMediaRecordStateVideoStateChangedV2Behavior
                0x00076658       0x1c /home/ncs/CAPSTONE/out/arsdk-native/build/libARCommands/obj/gen/Sources/ARCOMMANDS_Filter.c.o
                0x00076658                ARCOMMANDS_Filter_SetJumpingSumoMediaRecordStateVideoStateChangedV2Behavior
 .text.ARCOMMANDS_Filter_SetJumpingSumoMediaRecordEventPictureEventChangedBehavior
                0x00076674       0x1c /home/ncs/CAPSTONE/out/arsdk-native/build/libARCommands/obj/gen/Sources/ARCOMMANDS_Filter.c.o
                0x00076674                ARCOMMANDS_Filter_SetJumpingSumoMediaRecordEventPictureEventChangedBehavior
 .text.ARCOMMANDS_Filter_SetJumpingSumoMediaRecordEventVideoEventChangedBehavior
                0x00076690       0x1c /home/ncs/CAPSTONE/out/arsdk-native/build/libARCommands/obj/gen/Sources/ARCOMMANDS_Filter.c.o
                0x00076690                ARCOMMANDS_Filter_SetJumpingSumoMediaRecordEventVideoEventChangedBehavior
 .text.ARCOMMANDS_Filter_SetJumpingSumoNetworkSettingsStateWifiSelectionChangedBehavior
                0x000766ac       0x1c /home/ncs/CAPSTONE/out/arsdk-native/build/libARCommands/obj/gen/Sources/ARCOMMANDS_Filter.c.o
                0x000766ac                ARCOMMANDS_Filter_SetJumpingSumoNetworkSettingsStateWifiSelectionChangedBehavior
 .text.ARCOMMANDS_Filter_SetJumpingSumoNetworkSettingsStateBehavior
                0x000766c8        0x4 /home/ncs/CAPSTONE/out/arsdk-native/build/libARCommands/obj/gen/Sources/ARCOMMANDS_Filter.c.o
                0x000766c8                ARCOMMANDS_Filter_SetJumpingSumoNetworkSettingsStateBehavior
 .text.ARCOMMANDS_Filter_SetJumpingSumoNetworkStateWifiScanListChangedBehavior
                0x000766cc       0x1c /home/ncs/CAPSTONE/out/arsdk-native/build/libARCommands/obj/gen/Sources/ARCOMMANDS_Filter.c.o
                0x000766cc                ARCOMMANDS_Filter_SetJumpingSumoNetworkStateWifiScanListChangedBehavior
 .text.ARCOMMANDS_Filter_SetJumpingSumoNetworkStateAllWifiScanChangedBehavior
                0x000766e8       0x1c /home/ncs/CAPSTONE/out/arsdk-native/build/libARCommands/obj/gen/Sources/ARCOMMANDS_Filter.c.o
                0x000766e8                ARCOMMANDS_Filter_SetJumpingSumoNetworkStateAllWifiScanChangedBehavior
 .text.ARCOMMANDS_Filter_SetJumpingSumoNetworkStateWifiAuthChannelListChangedBehavior
                0x00076704       0x1c /home/ncs/CAPSTONE/out/arsdk-native/build/libARCommands/obj/gen/Sources/ARCOMMANDS_Filter.c.o
                0x00076704                ARCOMMANDS_Filter_SetJumpingSumoNetworkStateWifiAuthChannelListChangedBehavior
 .text.ARCOMMANDS_Filter_SetJumpingSumoNetworkStateAllWifiAuthChannelChangedBehavior
                0x00076720       0x1c /home/ncs/CAPSTONE/out/arsdk-native/build/libARCommands/obj/gen/Sources/ARCOMMANDS_Filter.c.o
                0x00076720                ARCOMMANDS_Filter_SetJumpingSumoNetworkStateAllWifiAuthChannelChangedBehavior
 .text.ARCOMMANDS_Filter_SetJumpingSumoNetworkStateLinkQualityChangedBehavior
                0x0007673c       0x1c /home/ncs/CAPSTONE/out/arsdk-native/build/libARCommands/obj/gen/Sources/ARCOMMANDS_Filter.c.o
                0x0007673c                ARCOMMANDS_Filter_SetJumpingSumoNetworkStateLinkQualityChangedBehavior
 .text.ARCOMMANDS_Filter_SetJumpingSumoAudioSettingsStateMasterVolumeChangedBehavior
                0x00076758       0x1c /home/ncs/CAPSTONE/out/arsdk-native/build/libARCommands/obj/gen/Sources/ARCOMMANDS_Filter.c.o
                0x00076758                ARCOMMANDS_Filter_SetJumpingSumoAudioSettingsStateMasterVolumeChangedBehavior
 .text.ARCOMMANDS_Filter_SetJumpingSumoAudioSettingsStateThemeChangedBehavior
                0x00076774       0x1c /home/ncs/CAPSTONE/out/arsdk-native/build/libARCommands/obj/gen/Sources/ARCOMMANDS_Filter.c.o
                0x00076774                ARCOMMANDS_Filter_SetJumpingSumoAudioSettingsStateThemeChangedBehavior
 .text.ARCOMMANDS_Filter_SetJumpingSumoRoadPlanStateScriptMetadataListChangedBehavior
                0x00076790       0x1c /home/ncs/CAPSTONE/out/arsdk-native/build/libARCommands/obj/gen/Sources/ARCOMMANDS_Filter.c.o
                0x00076790                ARCOMMANDS_Filter_SetJumpingSumoRoadPlanStateScriptMetadataListChangedBehavior
 .text.ARCOMMANDS_Filter_SetJumpingSumoRoadPlanStateAllScriptsMetadataChangedBehavior
                0x000767ac       0x1c /home/ncs/CAPSTONE/out/arsdk-native/build/libARCommands/obj/gen/Sources/ARCOMMANDS_Filter.c.o
                0x000767ac                ARCOMMANDS_Filter_SetJumpingSumoRoadPlanStateAllScriptsMetadataChangedBehavior
 .text.ARCOMMANDS_Filter_SetJumpingSumoRoadPlanStateScriptUploadChangedBehavior
                0x000767c8       0x1c /home/ncs/CAPSTONE/out/arsdk-native/build/libARCommands/obj/gen/Sources/ARCOMMANDS_Filter.c.o
                0x000767c8                ARCOMMANDS_Filter_SetJumpingSumoRoadPlanStateScriptUploadChangedBehavior
 .text.ARCOMMANDS_Filter_SetJumpingSumoRoadPlanStateScriptDeleteChangedBehavior
                0x000767e4       0x1c /home/ncs/CAPSTONE/out/arsdk-native/build/libARCommands/obj/gen/Sources/ARCOMMANDS_Filter.c.o
                0x000767e4                ARCOMMANDS_Filter_SetJumpingSumoRoadPlanStateScriptDeleteChangedBehavior
 .text.ARCOMMANDS_Filter_SetJumpingSumoRoadPlanStatePlayScriptChangedBehavior
                0x00076800       0x1c /home/ncs/CAPSTONE/out/arsdk-native/build/libARCommands/obj/gen/Sources/ARCOMMANDS_Filter.c.o
                0x00076800                ARCOMMANDS_Filter_SetJumpingSumoRoadPlanStatePlayScriptChangedBehavior
 .text.ARCOMMANDS_Filter_SetJumpingSumoSpeedSettingsStateOutdoorChangedBehavior
                0x0007681c       0x1c /home/ncs/CAPSTONE/out/arsdk-native/build/libARCommands/obj/gen/Sources/ARCOMMANDS_Filter.c.o
                0x0007681c                ARCOMMANDS_Filter_SetJumpingSumoSpeedSettingsStateOutdoorChangedBehavior
 .text.ARCOMMANDS_Filter_SetJumpingSumoSpeedSettingsStateBehavior
                0x00076838        0x4 /home/ncs/CAPSTONE/out/arsdk-native/build/libARCommands/obj/gen/Sources/ARCOMMANDS_Filter.c.o
                0x00076838                ARCOMMANDS_Filter_SetJumpingSumoSpeedSettingsStateBehavior
 .text.ARCOMMANDS_Filter_SetJumpingSumoMediaStreamingStateVideoEnableChangedBehavior
                0x0007683c       0x1c /home/ncs/CAPSTONE/out/arsdk-native/build/libARCommands/obj/gen/Sources/ARCOMMANDS_Filter.c.o
                0x0007683c                ARCOMMANDS_Filter_SetJumpingSumoMediaStreamingStateVideoEnableChangedBehavior
 .text.ARCOMMANDS_Filter_SetJumpingSumoMediaStreamingStateBehavior
                0x00076858        0x4 /home/ncs/CAPSTONE/out/arsdk-native/build/libARCommands/obj/gen/Sources/ARCOMMANDS_Filter.c.o
                0x00076858                ARCOMMANDS_Filter_SetJumpingSumoMediaStreamingStateBehavior
 .text.ARCOMMANDS_Filter_SetJumpingSumoVideoSettingsStateAutorecordChangedBehavior
                0x0007685c       0x1c /home/ncs/CAPSTONE/out/arsdk-native/build/libARCommands/obj/gen/Sources/ARCOMMANDS_Filter.c.o
                0x0007685c                ARCOMMANDS_Filter_SetJumpingSumoVideoSettingsStateAutorecordChangedBehavior
 .text.ARCOMMANDS_Filter_SetJumpingSumoVideoSettingsStateBehavior
                0x00076878        0x4 /home/ncs/CAPSTONE/out/arsdk-native/build/libARCommands/obj/gen/Sources/ARCOMMANDS_Filter.c.o
                0x00076878                ARCOMMANDS_Filter_SetJumpingSumoVideoSettingsStateBehavior
 .text.ARCOMMANDS_Filter_SetMapperBehavior
                0x0007687c       0x54 /home/ncs/CAPSTONE/out/arsdk-native/build/libARCommands/obj/gen/Sources/ARCOMMANDS_Filter.c.o
                0x0007687c                ARCOMMANDS_Filter_SetMapperBehavior
 .text.ARCOMMANDS_Filter_SetMapperGrabBehavior
                0x000768d0       0x1c /home/ncs/CAPSTONE/out/arsdk-native/build/libARCommands/obj/gen/Sources/ARCOMMANDS_Filter.c.o
                0x000768d0                ARCOMMANDS_Filter_SetMapperGrabBehavior
 .text.ARCOMMANDS_Filter_SetMapperMapButtonActionBehavior
                0x000768ec       0x1c /home/ncs/CAPSTONE/out/arsdk-native/build/libARCommands/obj/gen/Sources/ARCOMMANDS_Filter.c.o
                0x000768ec                ARCOMMANDS_Filter_SetMapperMapButtonActionBehavior
 .text.ARCOMMANDS_Filter_SetMapperMapAxisActionBehavior
                0x00076908       0x1c /home/ncs/CAPSTONE/out/arsdk-native/build/libARCommands/obj/gen/Sources/ARCOMMANDS_Filter.c.o
                0x00076908                ARCOMMANDS_Filter_SetMapperMapAxisActionBehavior
 .text.ARCOMMANDS_Filter_SetMapperResetMappingBehavior
                0x00076924       0x1c /home/ncs/CAPSTONE/out/arsdk-native/build/libARCommands/obj/gen/Sources/ARCOMMANDS_Filter.c.o
                0x00076924                ARCOMMANDS_Filter_SetMapperResetMappingBehavior
 .text.ARCOMMANDS_Filter_SetMapperSetExpoBehavior
                0x00076940       0x1c /home/ncs/CAPSTONE/out/arsdk-native/build/libARCommands/obj/gen/Sources/ARCOMMANDS_Filter.c.o
                0x00076940                ARCOMMANDS_Filter_SetMapperSetExpoBehavior
 .text.ARCOMMANDS_Filter_SetMapperSetInvertedBehavior
                0x0007695c       0x1c /home/ncs/CAPSTONE/out/arsdk-native/build/libARCommands/obj/gen/Sources/ARCOMMANDS_Filter.c.o
                0x0007695c                ARCOMMANDS_Filter_SetMapperSetInvertedBehavior
 .text.ARCOMMANDS_Filter_SetMapperGrabStateBehavior
                0x00076978       0x1c /home/ncs/CAPSTONE/out/arsdk-native/build/libARCommands/obj/gen/Sources/ARCOMMANDS_Filter.c.o
                0x00076978                ARCOMMANDS_Filter_SetMapperGrabStateBehavior
 .text.ARCOMMANDS_Filter_SetMapperGrabButtonEventBehavior
                0x00076994       0x1c /home/ncs/CAPSTONE/out/arsdk-native/build/libARCommands/obj/gen/Sources/ARCOMMANDS_Filter.c.o
                0x00076994                ARCOMMANDS_Filter_SetMapperGrabButtonEventBehavior
 .text.ARCOMMANDS_Filter_SetMapperGrabAxisEventBehavior
                0x000769b0       0x1c /home/ncs/CAPSTONE/out/arsdk-native/build/libARCommands/obj/gen/Sources/ARCOMMANDS_Filter.c.o
                0x000769b0                ARCOMMANDS_Filter_SetMapperGrabAxisEventBehavior
 .text.ARCOMMANDS_Filter_SetMapperButtonMappingItemBehavior
                0x000769cc       0x1c /home/ncs/CAPSTONE/out/arsdk-native/build/libARCommands/obj/gen/Sources/ARCOMMANDS_Filter.c.o
                0x000769cc                ARCOMMANDS_Filter_SetMapperButtonMappingItemBehavior
 .text.ARCOMMANDS_Filter_SetMapperAxisMappingItemBehavior
                0x000769e8       0x1c /home/ncs/CAPSTONE/out/arsdk-native/build/libARCommands/obj/gen/Sources/ARCOMMANDS_Filter.c.o
                0x000769e8                ARCOMMANDS_Filter_SetMapperAxisMappingItemBehavior
 .text.ARCOMMANDS_Filter_SetMapperApplicationAxisEventBehavior
                0x00076a04       0x1c /home/ncs/CAPSTONE/out/arsdk-native/build/libARCommands/obj/gen/Sources/ARCOMMANDS_Filter.c.o
                0x00076a04                ARCOMMANDS_Filter_SetMapperApplicationAxisEventBehavior
 .text.ARCOMMANDS_Filter_SetMapperApplicationButtonEventBehavior
                0x00076a20       0x1c /home/ncs/CAPSTONE/out/arsdk-native/build/libARCommands/obj/gen/Sources/ARCOMMANDS_Filter.c.o
                0x00076a20                ARCOMMANDS_Filter_SetMapperApplicationButtonEventBehavior
 .text.ARCOMMANDS_Filter_SetMapperExpoMapItemBehavior
                0x00076a3c       0x1c /home/ncs/CAPSTONE/out/arsdk-native/build/libARCommands/obj/gen/Sources/ARCOMMANDS_Filter.c.o
                0x00076a3c                ARCOMMANDS_Filter_SetMapperExpoMapItemBehavior
 .text.ARCOMMANDS_Filter_SetMapperInvertedMapItemBehavior
                0x00076a58       0x1c /home/ncs/CAPSTONE/out/arsdk-native/build/libARCommands/obj/gen/Sources/ARCOMMANDS_Filter.c.o
                0x00076a58                ARCOMMANDS_Filter_SetMapperInvertedMapItemBehavior
 .text.ARCOMMANDS_Filter_SetMiniDroneBehavior
                0x00076a74       0xf0 /home/ncs/CAPSTONE/out/arsdk-native/build/libARCommands/obj/gen/Sources/ARCOMMANDS_Filter.c.o
                0x00076a74                ARCOMMANDS_Filter_SetMiniDroneBehavior
 .text.ARCOMMANDS_Filter_SetMiniDronePilotingBehavior
                0x00076b64       0x38 /home/ncs/CAPSTONE/out/arsdk-native/build/libARCommands/obj/gen/Sources/ARCOMMANDS_Filter.c.o
                0x00076b64                ARCOMMANDS_Filter_SetMiniDronePilotingBehavior
 .text.ARCOMMANDS_Filter_SetMiniDronePilotingStateBehavior
                0x00076b9c       0x30 /home/ncs/CAPSTONE/out/arsdk-native/build/libARCommands/obj/gen/Sources/ARCOMMANDS_Filter.c.o
                0x00076b9c                ARCOMMANDS_Filter_SetMiniDronePilotingStateBehavior
 .text.ARCOMMANDS_Filter_SetMiniDroneAnimationsBehavior
                0x00076bcc       0x20 /home/ncs/CAPSTONE/out/arsdk-native/build/libARCommands/obj/gen/Sources/ARCOMMANDS_Filter.c.o
                0x00076bcc                ARCOMMANDS_Filter_SetMiniDroneAnimationsBehavior
 .text.ARCOMMANDS_Filter_SetMiniDroneMediaRecordBehavior
                0x00076bec       0x20 /home/ncs/CAPSTONE/out/arsdk-native/build/libARCommands/obj/gen/Sources/ARCOMMANDS_Filter.c.o
                0x00076bec                ARCOMMANDS_Filter_SetMiniDroneMediaRecordBehavior
 .text.ARCOMMANDS_Filter_SetMiniDroneMediaRecordStateBehavior
                0x00076c0c       0x20 /home/ncs/CAPSTONE/out/arsdk-native/build/libARCommands/obj/gen/Sources/ARCOMMANDS_Filter.c.o
                0x00076c0c                ARCOMMANDS_Filter_SetMiniDroneMediaRecordStateBehavior
 .text.ARCOMMANDS_Filter_SetMiniDronePilotingSettingsBehavior
                0x00076c2c       0x24 /home/ncs/CAPSTONE/out/arsdk-native/build/libARCommands/obj/gen/Sources/ARCOMMANDS_Filter.c.o
                0x00076c2c                ARCOMMANDS_Filter_SetMiniDronePilotingSettingsBehavior
 .text.ARCOMMANDS_Filter_SetMiniDronePilotingSettingsStateBehavior
                0x00076c50       0x24 /home/ncs/CAPSTONE/out/arsdk-native/build/libARCommands/obj/gen/Sources/ARCOMMANDS_Filter.c.o
                0x00076c50                ARCOMMANDS_Filter_SetMiniDronePilotingSettingsStateBehavior
 .text.ARCOMMANDS_Filter_SetMiniDroneSpeedSettingsBehavior
                0x00076c74       0x2c /home/ncs/CAPSTONE/out/arsdk-native/build/libARCommands/obj/gen/Sources/ARCOMMANDS_Filter.c.o
                0x00076c74                ARCOMMANDS_Filter_SetMiniDroneSpeedSettingsBehavior
 .text.ARCOMMANDS_Filter_SetMiniDroneSpeedSettingsStateBehavior
                0x00076ca0       0x2c /home/ncs/CAPSTONE/out/arsdk-native/build/libARCommands/obj/gen/Sources/ARCOMMANDS_Filter.c.o
                0x00076ca0                ARCOMMANDS_Filter_SetMiniDroneSpeedSettingsStateBehavior
 .text.ARCOMMANDS_Filter_SetMiniDroneSettingsStateBehavior
                0x00076ccc       0x24 /home/ncs/CAPSTONE/out/arsdk-native/build/libARCommands/obj/gen/Sources/ARCOMMANDS_Filter.c.o
                0x00076ccc                ARCOMMANDS_Filter_SetMiniDroneSettingsStateBehavior
 .text.ARCOMMANDS_Filter_SetMiniDroneGPSBehavior
                0x00076cf0       0x20 /home/ncs/CAPSTONE/out/arsdk-native/build/libARCommands/obj/gen/Sources/ARCOMMANDS_Filter.c.o
                0x00076cf0                ARCOMMANDS_Filter_SetMiniDroneGPSBehavior
 .text.ARCOMMANDS_Filter_SetMiniDroneConfigurationBehavior
                0x00076d10       0x20 /home/ncs/CAPSTONE/out/arsdk-native/build/libARCommands/obj/gen/Sources/ARCOMMANDS_Filter.c.o
                0x00076d10                ARCOMMANDS_Filter_SetMiniDroneConfigurationBehavior
 .text.ARCOMMANDS_Filter_SetMiniDroneUsbAccessoryStateBehavior
                0x00076d30       0x24 /home/ncs/CAPSTONE/out/arsdk-native/build/libARCommands/obj/gen/Sources/ARCOMMANDS_Filter.c.o
                0x00076d30                ARCOMMANDS_Filter_SetMiniDroneUsbAccessoryStateBehavior
 .text.ARCOMMANDS_Filter_SetMiniDroneUsbAccessoryBehavior
                0x00076d54       0x24 /home/ncs/CAPSTONE/out/arsdk-native/build/libARCommands/obj/gen/Sources/ARCOMMANDS_Filter.c.o
                0x00076d54                ARCOMMANDS_Filter_SetMiniDroneUsbAccessoryBehavior
 .text.ARCOMMANDS_Filter_SetMiniDronePilotingFlatTrimBehavior
                0x00076d78       0x1c /home/ncs/CAPSTONE/out/arsdk-native/build/libARCommands/obj/gen/Sources/ARCOMMANDS_Filter.c.o
                0x00076d78                ARCOMMANDS_Filter_SetMiniDronePilotingFlatTrimBehavior
 .text.ARCOMMANDS_Filter_SetMiniDronePilotingTakeOffBehavior
                0x00076d94       0x1c /home/ncs/CAPSTONE/out/arsdk-native/build/libARCommands/obj/gen/Sources/ARCOMMANDS_Filter.c.o
                0x00076d94                ARCOMMANDS_Filter_SetMiniDronePilotingTakeOffBehavior
 .text.ARCOMMANDS_Filter_SetMiniDronePilotingPCMDBehavior
                0x00076db0       0x1c /home/ncs/CAPSTONE/out/arsdk-native/build/libARCommands/obj/gen/Sources/ARCOMMANDS_Filter.c.o
                0x00076db0                ARCOMMANDS_Filter_SetMiniDronePilotingPCMDBehavior
 .text.ARCOMMANDS_Filter_SetMiniDronePilotingLandingBehavior
                0x00076dcc       0x1c /home/ncs/CAPSTONE/out/arsdk-native/build/libARCommands/obj/gen/Sources/ARCOMMANDS_Filter.c.o
                0x00076dcc                ARCOMMANDS_Filter_SetMiniDronePilotingLandingBehavior
 .text.ARCOMMANDS_Filter_SetMiniDronePilotingEmergencyBehavior
                0x00076de8       0x1c /home/ncs/CAPSTONE/out/arsdk-native/build/libARCommands/obj/gen/Sources/ARCOMMANDS_Filter.c.o
                0x00076de8                ARCOMMANDS_Filter_SetMiniDronePilotingEmergencyBehavior
 .text.ARCOMMANDS_Filter_SetMiniDronePilotingAutoTakeOffModeBehavior
                0x00076e04       0x1c /home/ncs/CAPSTONE/out/arsdk-native/build/libARCommands/obj/gen/Sources/ARCOMMANDS_Filter.c.o
                0x00076e04                ARCOMMANDS_Filter_SetMiniDronePilotingAutoTakeOffModeBehavior
 .text.ARCOMMANDS_Filter_SetMiniDronePilotingFlyingModeBehavior
                0x00076e20       0x1c /home/ncs/CAPSTONE/out/arsdk-native/build/libARCommands/obj/gen/Sources/ARCOMMANDS_Filter.c.o
                0x00076e20                ARCOMMANDS_Filter_SetMiniDronePilotingFlyingModeBehavior
 .text.ARCOMMANDS_Filter_SetMiniDronePilotingPlaneGearBoxBehavior
                0x00076e3c       0x1c /home/ncs/CAPSTONE/out/arsdk-native/build/libARCommands/obj/gen/Sources/ARCOMMANDS_Filter.c.o
                0x00076e3c                ARCOMMANDS_Filter_SetMiniDronePilotingPlaneGearBoxBehavior
 .text.ARCOMMANDS_Filter_SetMiniDroneAnimationsFlipBehavior
                0x00076e58       0x1c /home/ncs/CAPSTONE/out/arsdk-native/build/libARCommands/obj/gen/Sources/ARCOMMANDS_Filter.c.o
                0x00076e58                ARCOMMANDS_Filter_SetMiniDroneAnimationsFlipBehavior
 .text.ARCOMMANDS_Filter_SetMiniDroneAnimationsCapBehavior
                0x00076e74       0x1c /home/ncs/CAPSTONE/out/arsdk-native/build/libARCommands/obj/gen/Sources/ARCOMMANDS_Filter.c.o
                0x00076e74                ARCOMMANDS_Filter_SetMiniDroneAnimationsCapBehavior
 .text.ARCOMMANDS_Filter_SetMiniDroneMediaRecordPictureBehavior
                0x00076e90       0x1c /home/ncs/CAPSTONE/out/arsdk-native/build/libARCommands/obj/gen/Sources/ARCOMMANDS_Filter.c.o
                0x00076e90                ARCOMMANDS_Filter_SetMiniDroneMediaRecordPictureBehavior
 .text.ARCOMMANDS_Filter_SetMiniDroneMediaRecordPictureV2Behavior
                0x00076eac       0x1c /home/ncs/CAPSTONE/out/arsdk-native/build/libARCommands/obj/gen/Sources/ARCOMMANDS_Filter.c.o
                0x00076eac                ARCOMMANDS_Filter_SetMiniDroneMediaRecordPictureV2Behavior
 .text.ARCOMMANDS_Filter_SetMiniDronePilotingSettingsMaxAltitudeBehavior
                0x00076ec8       0x1c /home/ncs/CAPSTONE/out/arsdk-native/build/libARCommands/obj/gen/Sources/ARCOMMANDS_Filter.c.o
                0x00076ec8                ARCOMMANDS_Filter_SetMiniDronePilotingSettingsMaxAltitudeBehavior
 .text.ARCOMMANDS_Filter_SetMiniDronePilotingSettingsMaxTiltBehavior
                0x00076ee4       0x1c /home/ncs/CAPSTONE/out/arsdk-native/build/libARCommands/obj/gen/Sources/ARCOMMANDS_Filter.c.o
                0x00076ee4                ARCOMMANDS_Filter_SetMiniDronePilotingSettingsMaxTiltBehavior
 .text.ARCOMMANDS_Filter_SetMiniDronePilotingSettingsPlaneModePitchBehavior
                0x00076f00       0x1c /home/ncs/CAPSTONE/out/arsdk-native/build/libARCommands/obj/gen/Sources/ARCOMMANDS_Filter.c.o
                0x00076f00                ARCOMMANDS_Filter_SetMiniDronePilotingSettingsPlaneModePitchBehavior
 .text.ARCOMMANDS_Filter_SetMiniDroneSpeedSettingsMaxVerticalSpeedBehavior
                0x00076f1c       0x1c /home/ncs/CAPSTONE/out/arsdk-native/build/libARCommands/obj/gen/Sources/ARCOMMANDS_Filter.c.o
                0x00076f1c                ARCOMMANDS_Filter_SetMiniDroneSpeedSettingsMaxVerticalSpeedBehavior
 .text.ARCOMMANDS_Filter_SetMiniDroneSpeedSettingsMaxRotationSpeedBehavior
                0x00076f38       0x1c /home/ncs/CAPSTONE/out/arsdk-native/build/libARCommands/obj/gen/Sources/ARCOMMANDS_Filter.c.o
                0x00076f38                ARCOMMANDS_Filter_SetMiniDroneSpeedSettingsMaxRotationSpeedBehavior
 .text.ARCOMMANDS_Filter_SetMiniDroneSpeedSettingsWheelsBehavior
                0x00076f54       0x1c /home/ncs/CAPSTONE/out/arsdk-native/build/libARCommands/obj/gen/Sources/ARCOMMANDS_Filter.c.o
                0x00076f54                ARCOMMANDS_Filter_SetMiniDroneSpeedSettingsWheelsBehavior
 .text.ARCOMMANDS_Filter_SetMiniDroneSpeedSettingsMaxHorizontalSpeedBehavior
                0x00076f70       0x1c /home/ncs/CAPSTONE/out/arsdk-native/build/libARCommands/obj/gen/Sources/ARCOMMANDS_Filter.c.o
                0x00076f70                ARCOMMANDS_Filter_SetMiniDroneSpeedSettingsMaxHorizontalSpeedBehavior
 .text.ARCOMMANDS_Filter_SetMiniDroneSpeedSettingsMaxPlaneModeRotationSpeedBehavior
                0x00076f8c       0x1c /home/ncs/CAPSTONE/out/arsdk-native/build/libARCommands/obj/gen/Sources/ARCOMMANDS_Filter.c.o
                0x00076f8c                ARCOMMANDS_Filter_SetMiniDroneSpeedSettingsMaxPlaneModeRotationSpeedBehavior
 .text.ARCOMMANDS_Filter_SetMiniDroneSettingsCutOutModeBehavior
                0x00076fa8       0x1c /home/ncs/CAPSTONE/out/arsdk-native/build/libARCommands/obj/gen/Sources/ARCOMMANDS_Filter.c.o
                0x00076fa8                ARCOMMANDS_Filter_SetMiniDroneSettingsCutOutModeBehavior
 .text.ARCOMMANDS_Filter_SetMiniDroneSettingsBehavior
                0x00076fc4        0x4 /home/ncs/CAPSTONE/out/arsdk-native/build/libARCommands/obj/gen/Sources/ARCOMMANDS_Filter.c.o
                0x00076fc4                ARCOMMANDS_Filter_SetMiniDroneSettingsBehavior
 .text.ARCOMMANDS_Filter_SetMiniDroneGPSControllerLatitudeForRunBehavior
                0x00076fc8       0x1c /home/ncs/CAPSTONE/out/arsdk-native/build/libARCommands/obj/gen/Sources/ARCOMMANDS_Filter.c.o
                0x00076fc8                ARCOMMANDS_Filter_SetMiniDroneGPSControllerLatitudeForRunBehavior
 .text.ARCOMMANDS_Filter_SetMiniDroneGPSControllerLongitudeForRunBehavior
                0x00076fe4       0x1c /home/ncs/CAPSTONE/out/arsdk-native/build/libARCommands/obj/gen/Sources/ARCOMMANDS_Filter.c.o
                0x00076fe4                ARCOMMANDS_Filter_SetMiniDroneGPSControllerLongitudeForRunBehavior
 .text.ARCOMMANDS_Filter_SetMiniDroneConfigurationControllerTypeBehavior
                0x00077000       0x1c /home/ncs/CAPSTONE/out/arsdk-native/build/libARCommands/obj/gen/Sources/ARCOMMANDS_Filter.c.o
                0x00077000                ARCOMMANDS_Filter_SetMiniDroneConfigurationControllerTypeBehavior
 .text.ARCOMMANDS_Filter_SetMiniDroneConfigurationControllerNameBehavior
                0x0007701c       0x1c /home/ncs/CAPSTONE/out/arsdk-native/build/libARCommands/obj/gen/Sources/ARCOMMANDS_Filter.c.o
                0x0007701c                ARCOMMANDS_Filter_SetMiniDroneConfigurationControllerNameBehavior
 .text.ARCOMMANDS_Filter_SetMiniDroneUsbAccessoryLightControlBehavior
                0x00077038       0x1c /home/ncs/CAPSTONE/out/arsdk-native/build/libARCommands/obj/gen/Sources/ARCOMMANDS_Filter.c.o
                0x00077038                ARCOMMANDS_Filter_SetMiniDroneUsbAccessoryLightControlBehavior
 .text.ARCOMMANDS_Filter_SetMiniDroneUsbAccessoryClawControlBehavior
                0x00077054       0x1c /home/ncs/CAPSTONE/out/arsdk-native/build/libARCommands/obj/gen/Sources/ARCOMMANDS_Filter.c.o
                0x00077054                ARCOMMANDS_Filter_SetMiniDroneUsbAccessoryClawControlBehavior
 .text.ARCOMMANDS_Filter_SetMiniDroneUsbAccessoryGunControlBehavior
                0x00077070       0x1c /home/ncs/CAPSTONE/out/arsdk-native/build/libARCommands/obj/gen/Sources/ARCOMMANDS_Filter.c.o
                0x00077070                ARCOMMANDS_Filter_SetMiniDroneUsbAccessoryGunControlBehavior
 .text.ARCOMMANDS_Filter_SetMiniDroneRemoteControllerSetPairedRemoteBehavior
                0x0007708c       0x1c /home/ncs/CAPSTONE/out/arsdk-native/build/libARCommands/obj/gen/Sources/ARCOMMANDS_Filter.c.o
                0x0007708c                ARCOMMANDS_Filter_SetMiniDroneRemoteControllerSetPairedRemoteBehavior
 .text.ARCOMMANDS_Filter_SetMiniDroneRemoteControllerBehavior
                0x000770a8        0x4 /home/ncs/CAPSTONE/out/arsdk-native/build/libARCommands/obj/gen/Sources/ARCOMMANDS_Filter.c.o
                0x000770a8                ARCOMMANDS_Filter_SetMiniDroneRemoteControllerBehavior
 .text.ARCOMMANDS_Filter_SetMiniDronePilotingStateFlatTrimChangedBehavior
                0x000770ac       0x1c /home/ncs/CAPSTONE/out/arsdk-native/build/libARCommands/obj/gen/Sources/ARCOMMANDS_Filter.c.o
                0x000770ac                ARCOMMANDS_Filter_SetMiniDronePilotingStateFlatTrimChangedBehavior
 .text.ARCOMMANDS_Filter_SetMiniDronePilotingStateFlyingStateChangedBehavior
                0x000770c8       0x1c /home/ncs/CAPSTONE/out/arsdk-native/build/libARCommands/obj/gen/Sources/ARCOMMANDS_Filter.c.o
                0x000770c8                ARCOMMANDS_Filter_SetMiniDronePilotingStateFlyingStateChangedBehavior
 .text.ARCOMMANDS_Filter_SetMiniDronePilotingStateAlertStateChangedBehavior
                0x000770e4       0x1c /home/ncs/CAPSTONE/out/arsdk-native/build/libARCommands/obj/gen/Sources/ARCOMMANDS_Filter.c.o
                0x000770e4                ARCOMMANDS_Filter_SetMiniDronePilotingStateAlertStateChangedBehavior
 .text.ARCOMMANDS_Filter_SetMiniDronePilotingStateAutoTakeOffModeChangedBehavior
                0x00077100       0x1c /home/ncs/CAPSTONE/out/arsdk-native/build/libARCommands/obj/gen/Sources/ARCOMMANDS_Filter.c.o
                0x00077100                ARCOMMANDS_Filter_SetMiniDronePilotingStateAutoTakeOffModeChangedBehavior
 .text.ARCOMMANDS_Filter_SetMiniDronePilotingStateFlyingModeChangedBehavior
                0x0007711c       0x1c /home/ncs/CAPSTONE/out/arsdk-native/build/libARCommands/obj/gen/Sources/ARCOMMANDS_Filter.c.o
                0x0007711c                ARCOMMANDS_Filter_SetMiniDronePilotingStateFlyingModeChangedBehavior
 .text.ARCOMMANDS_Filter_SetMiniDronePilotingStatePlaneGearBoxChangedBehavior
                0x00077138       0x1c /home/ncs/CAPSTONE/out/arsdk-native/build/libARCommands/obj/gen/Sources/ARCOMMANDS_Filter.c.o
                0x00077138                ARCOMMANDS_Filter_SetMiniDronePilotingStatePlaneGearBoxChangedBehavior
 .text.ARCOMMANDS_Filter_SetMiniDroneMediaRecordStatePictureStateChangedBehavior
                0x00077154       0x1c /home/ncs/CAPSTONE/out/arsdk-native/build/libARCommands/obj/gen/Sources/ARCOMMANDS_Filter.c.o
                0x00077154                ARCOMMANDS_Filter_SetMiniDroneMediaRecordStatePictureStateChangedBehavior
 .text.ARCOMMANDS_Filter_SetMiniDroneMediaRecordStatePictureStateChangedV2Behavior
                0x00077170       0x1c /home/ncs/CAPSTONE/out/arsdk-native/build/libARCommands/obj/gen/Sources/ARCOMMANDS_Filter.c.o
                0x00077170                ARCOMMANDS_Filter_SetMiniDroneMediaRecordStatePictureStateChangedV2Behavior
 .text.ARCOMMANDS_Filter_SetMiniDroneMediaRecordEventPictureEventChangedBehavior
                0x0007718c       0x1c /home/ncs/CAPSTONE/out/arsdk-native/build/libARCommands/obj/gen/Sources/ARCOMMANDS_Filter.c.o
                0x0007718c                ARCOMMANDS_Filter_SetMiniDroneMediaRecordEventPictureEventChangedBehavior
 .text.ARCOMMANDS_Filter_SetMiniDroneMediaRecordEventBehavior
                0x000771a8        0x4 /home/ncs/CAPSTONE/out/arsdk-native/build/libARCommands/obj/gen/Sources/ARCOMMANDS_Filter.c.o
                0x000771a8                ARCOMMANDS_Filter_SetMiniDroneMediaRecordEventBehavior
 .text.ARCOMMANDS_Filter_SetMiniDronePilotingSettingsStateMaxAltitudeChangedBehavior
                0x000771ac       0x1c /home/ncs/CAPSTONE/out/arsdk-native/build/libARCommands/obj/gen/Sources/ARCOMMANDS_Filter.c.o
                0x000771ac                ARCOMMANDS_Filter_SetMiniDronePilotingSettingsStateMaxAltitudeChangedBehavior
 .text.ARCOMMANDS_Filter_SetMiniDronePilotingSettingsStateMaxTiltChangedBehavior
                0x000771c8       0x1c /home/ncs/CAPSTONE/out/arsdk-native/build/libARCommands/obj/gen/Sources/ARCOMMANDS_Filter.c.o
                0x000771c8                ARCOMMANDS_Filter_SetMiniDronePilotingSettingsStateMaxTiltChangedBehavior
 .text.ARCOMMANDS_Filter_SetMiniDronePilotingSettingsStatePlaneModePitchChangedBehavior
                0x000771e4       0x1c /home/ncs/CAPSTONE/out/arsdk-native/build/libARCommands/obj/gen/Sources/ARCOMMANDS_Filter.c.o
                0x000771e4                ARCOMMANDS_Filter_SetMiniDronePilotingSettingsStatePlaneModePitchChangedBehavior
 .text.ARCOMMANDS_Filter_SetMiniDroneSpeedSettingsStateMaxVerticalSpeedChangedBehavior
                0x00077200       0x1c /home/ncs/CAPSTONE/out/arsdk-native/build/libARCommands/obj/gen/Sources/ARCOMMANDS_Filter.c.o
                0x00077200                ARCOMMANDS_Filter_SetMiniDroneSpeedSettingsStateMaxVerticalSpeedChangedBehavior
 .text.ARCOMMANDS_Filter_SetMiniDroneSpeedSettingsStateMaxRotationSpeedChangedBehavior
                0x0007721c       0x1c /home/ncs/CAPSTONE/out/arsdk-native/build/libARCommands/obj/gen/Sources/ARCOMMANDS_Filter.c.o
                0x0007721c                ARCOMMANDS_Filter_SetMiniDroneSpeedSettingsStateMaxRotationSpeedChangedBehavior
 .text.ARCOMMANDS_Filter_SetMiniDroneSpeedSettingsStateWheelsChangedBehavior
                0x00077238       0x1c /home/ncs/CAPSTONE/out/arsdk-native/build/libARCommands/obj/gen/Sources/ARCOMMANDS_Filter.c.o
                0x00077238                ARCOMMANDS_Filter_SetMiniDroneSpeedSettingsStateWheelsChangedBehavior
 .text.ARCOMMANDS_Filter_SetMiniDroneSpeedSettingsStateMaxHorizontalSpeedChangedBehavior
                0x00077254       0x1c /home/ncs/CAPSTONE/out/arsdk-native/build/libARCommands/obj/gen/Sources/ARCOMMANDS_Filter.c.o
                0x00077254                ARCOMMANDS_Filter_SetMiniDroneSpeedSettingsStateMaxHorizontalSpeedChangedBehavior
 .text.ARCOMMANDS_Filter_SetMiniDroneSpeedSettingsStateMaxPlaneModeRotationSpeedChangedBehavior
                0x00077270       0x1c /home/ncs/CAPSTONE/out/arsdk-native/build/libARCommands/obj/gen/Sources/ARCOMMANDS_Filter.c.o
                0x00077270                ARCOMMANDS_Filter_SetMiniDroneSpeedSettingsStateMaxPlaneModeRotationSpeedChangedBehavior
 .text.ARCOMMANDS_Filter_SetMiniDroneSettingsStateProductMotorsVersionChangedBehavior
                0x0007728c       0x1c /home/ncs/CAPSTONE/out/arsdk-native/build/libARCommands/obj/gen/Sources/ARCOMMANDS_Filter.c.o
                0x0007728c                ARCOMMANDS_Filter_SetMiniDroneSettingsStateProductMotorsVersionChangedBehavior
 .text.ARCOMMANDS_Filter_SetMiniDroneSettingsStateProductInertialVersionChangedBehavior
                0x000772a8       0x1c /home/ncs/CAPSTONE/out/arsdk-native/build/libARCommands/obj/gen/Sources/ARCOMMANDS_Filter.c.o
                0x000772a8                ARCOMMANDS_Filter_SetMiniDroneSettingsStateProductInertialVersionChangedBehavior
 .text.ARCOMMANDS_Filter_SetMiniDroneSettingsStateCutOutModeChangedBehavior
                0x000772c4       0x1c /home/ncs/CAPSTONE/out/arsdk-native/build/libARCommands/obj/gen/Sources/ARCOMMANDS_Filter.c.o
                0x000772c4                ARCOMMANDS_Filter_SetMiniDroneSettingsStateCutOutModeChangedBehavior
 .text.ARCOMMANDS_Filter_SetMiniDroneFloodControlStateFloodControlChangedBehavior
                0x000772e0       0x1c /home/ncs/CAPSTONE/out/arsdk-native/build/libARCommands/obj/gen/Sources/ARCOMMANDS_Filter.c.o
                0x000772e0                ARCOMMANDS_Filter_SetMiniDroneFloodControlStateFloodControlChangedBehavior
 .text.ARCOMMANDS_Filter_SetMiniDroneFloodControlStateBehavior
                0x000772fc        0x4 /home/ncs/CAPSTONE/out/arsdk-native/build/libARCommands/obj/gen/Sources/ARCOMMANDS_Filter.c.o
                0x000772fc                ARCOMMANDS_Filter_SetMiniDroneFloodControlStateBehavior
 .text.ARCOMMANDS_Filter_SetMiniDroneUsbAccessoryStateLightStateBehavior
                0x00077300       0x1c /home/ncs/CAPSTONE/out/arsdk-native/build/libARCommands/obj/gen/Sources/ARCOMMANDS_Filter.c.o
                0x00077300                ARCOMMANDS_Filter_SetMiniDroneUsbAccessoryStateLightStateBehavior
 .text.ARCOMMANDS_Filter_SetMiniDroneUsbAccessoryStateClawStateBehavior
                0x0007731c       0x1c /home/ncs/CAPSTONE/out/arsdk-native/build/libARCommands/obj/gen/Sources/ARCOMMANDS_Filter.c.o
                0x0007731c                ARCOMMANDS_Filter_SetMiniDroneUsbAccessoryStateClawStateBehavior
 .text.ARCOMMANDS_Filter_SetMiniDroneUsbAccessoryStateGunStateBehavior
                0x00077338       0x1c /home/ncs/CAPSTONE/out/arsdk-native/build/libARCommands/obj/gen/Sources/ARCOMMANDS_Filter.c.o
                0x00077338                ARCOMMANDS_Filter_SetMiniDroneUsbAccessoryStateGunStateBehavior
 .text.ARCOMMANDS_Filter_SetMiniDroneNavigationDataStateDronePositionBehavior
                0x00077354       0x1c /home/ncs/CAPSTONE/out/arsdk-native/build/libARCommands/obj/gen/Sources/ARCOMMANDS_Filter.c.o
                0x00077354                ARCOMMANDS_Filter_SetMiniDroneNavigationDataStateDronePositionBehavior
 .text.ARCOMMANDS_Filter_SetMiniDroneNavigationDataStateBehavior
                0x00077370        0x4 /home/ncs/CAPSTONE/out/arsdk-native/build/libARCommands/obj/gen/Sources/ARCOMMANDS_Filter.c.o
                0x00077370                ARCOMMANDS_Filter_SetMiniDroneNavigationDataStateBehavior
 .text.ARCOMMANDS_Filter_SetPowerupBehavior
                0x00077374       0x9c /home/ncs/CAPSTONE/out/arsdk-native/build/libARCommands/obj/gen/Sources/ARCOMMANDS_Filter.c.o
                0x00077374                ARCOMMANDS_Filter_SetPowerupBehavior
 .text.ARCOMMANDS_Filter_SetPowerupPilotingBehavior
                0x00077410       0x24 /home/ncs/CAPSTONE/out/arsdk-native/build/libARCommands/obj/gen/Sources/ARCOMMANDS_Filter.c.o
                0x00077410                ARCOMMANDS_Filter_SetPowerupPilotingBehavior
 .text.ARCOMMANDS_Filter_SetPowerupPilotingStateBehavior
                0x00077434       0x2c /home/ncs/CAPSTONE/out/arsdk-native/build/libARCommands/obj/gen/Sources/ARCOMMANDS_Filter.c.o
                0x00077434                ARCOMMANDS_Filter_SetPowerupPilotingStateBehavior
 .text.ARCOMMANDS_Filter_SetPowerupMediaRecordBehavior
                0x00077460       0x20 /home/ncs/CAPSTONE/out/arsdk-native/build/libARCommands/obj/gen/Sources/ARCOMMANDS_Filter.c.o
                0x00077460                ARCOMMANDS_Filter_SetPowerupMediaRecordBehavior
 .text.ARCOMMANDS_Filter_SetPowerupMediaRecordStateBehavior
                0x00077480       0x20 /home/ncs/CAPSTONE/out/arsdk-native/build/libARCommands/obj/gen/Sources/ARCOMMANDS_Filter.c.o
                0x00077480                ARCOMMANDS_Filter_SetPowerupMediaRecordStateBehavior
 .text.ARCOMMANDS_Filter_SetPowerupMediaRecordEventBehavior
                0x000774a0       0x20 /home/ncs/CAPSTONE/out/arsdk-native/build/libARCommands/obj/gen/Sources/ARCOMMANDS_Filter.c.o
                0x000774a0                ARCOMMANDS_Filter_SetPowerupMediaRecordEventBehavior
 .text.ARCOMMANDS_Filter_SetPowerupNetworkBehavior
                0x000774c0       0x20 /home/ncs/CAPSTONE/out/arsdk-native/build/libARCommands/obj/gen/Sources/ARCOMMANDS_Filter.c.o
                0x000774c0                ARCOMMANDS_Filter_SetPowerupNetworkBehavior
 .text.ARCOMMANDS_Filter_SetPowerupNetworkStateBehavior
                0x000774e0       0x2c /home/ncs/CAPSTONE/out/arsdk-native/build/libARCommands/obj/gen/Sources/ARCOMMANDS_Filter.c.o
                0x000774e0                ARCOMMANDS_Filter_SetPowerupNetworkStateBehavior
 .text.ARCOMMANDS_Filter_SetPowerupVideoSettingsBehavior
                0x0007750c       0x20 /home/ncs/CAPSTONE/out/arsdk-native/build/libARCommands/obj/gen/Sources/ARCOMMANDS_Filter.c.o
                0x0007750c                ARCOMMANDS_Filter_SetPowerupVideoSettingsBehavior
 .text.ARCOMMANDS_Filter_SetPowerupVideoSettingsStateBehavior
                0x0007752c       0x20 /home/ncs/CAPSTONE/out/arsdk-native/build/libARCommands/obj/gen/Sources/ARCOMMANDS_Filter.c.o
                0x0007752c                ARCOMMANDS_Filter_SetPowerupVideoSettingsStateBehavior
 .text.ARCOMMANDS_Filter_SetPowerupPilotingPCMDBehavior
                0x0007754c       0x1c /home/ncs/CAPSTONE/out/arsdk-native/build/libARCommands/obj/gen/Sources/ARCOMMANDS_Filter.c.o
                0x0007754c                ARCOMMANDS_Filter_SetPowerupPilotingPCMDBehavior
 .text.ARCOMMANDS_Filter_SetPowerupPilotingUserTakeOffBehavior
                0x00077568       0x1c /home/ncs/CAPSTONE/out/arsdk-native/build/libARCommands/obj/gen/Sources/ARCOMMANDS_Filter.c.o
                0x00077568                ARCOMMANDS_Filter_SetPowerupPilotingUserTakeOffBehavior
 .text.ARCOMMANDS_Filter_SetPowerupPilotingMotorModeBehavior
                0x00077584       0x1c /home/ncs/CAPSTONE/out/arsdk-native/build/libARCommands/obj/gen/Sources/ARCOMMANDS_Filter.c.o
                0x00077584                ARCOMMANDS_Filter_SetPowerupPilotingMotorModeBehavior
 .text.ARCOMMANDS_Filter_SetPowerupPilotingSettingsSetBehavior
                0x000775a0       0x1c /home/ncs/CAPSTONE/out/arsdk-native/build/libARCommands/obj/gen/Sources/ARCOMMANDS_Filter.c.o
                0x000775a0                ARCOMMANDS_Filter_SetPowerupPilotingSettingsSetBehavior
 .text.ARCOMMANDS_Filter_SetPowerupPilotingSettingsBehavior
                0x000775bc        0x4 /home/ncs/CAPSTONE/out/arsdk-native/build/libARCommands/obj/gen/Sources/ARCOMMANDS_Filter.c.o
                0x000775bc                ARCOMMANDS_Filter_SetPowerupPilotingSettingsBehavior
 .text.ARCOMMANDS_Filter_SetPowerupMediaRecordPictureV2Behavior
                0x000775c0       0x1c /home/ncs/CAPSTONE/out/arsdk-native/build/libARCommands/obj/gen/Sources/ARCOMMANDS_Filter.c.o
                0x000775c0                ARCOMMANDS_Filter_SetPowerupMediaRecordPictureV2Behavior
 .text.ARCOMMANDS_Filter_SetPowerupMediaRecordVideoV2Behavior
                0x000775dc       0x1c /home/ncs/CAPSTONE/out/arsdk-native/build/libARCommands/obj/gen/Sources/ARCOMMANDS_Filter.c.o
                0x000775dc                ARCOMMANDS_Filter_SetPowerupMediaRecordVideoV2Behavior
 .text.ARCOMMANDS_Filter_SetPowerupNetworkSettingsWifiSelectionBehavior
                0x000775f8       0x1c /home/ncs/CAPSTONE/out/arsdk-native/build/libARCommands/obj/gen/Sources/ARCOMMANDS_Filter.c.o
                0x000775f8                ARCOMMANDS_Filter_SetPowerupNetworkSettingsWifiSelectionBehavior
 .text.ARCOMMANDS_Filter_SetPowerupNetworkSettingsBehavior
                0x00077614        0x4 /home/ncs/CAPSTONE/out/arsdk-native/build/libARCommands/obj/gen/Sources/ARCOMMANDS_Filter.c.o
                0x00077614                ARCOMMANDS_Filter_SetPowerupNetworkSettingsBehavior
 .text.ARCOMMANDS_Filter_SetPowerupNetworkWifiScanBehavior
                0x00077618       0x1c /home/ncs/CAPSTONE/out/arsdk-native/build/libARCommands/obj/gen/Sources/ARCOMMANDS_Filter.c.o
                0x00077618                ARCOMMANDS_Filter_SetPowerupNetworkWifiScanBehavior
 .text.ARCOMMANDS_Filter_SetPowerupNetworkWifiAuthChannelBehavior
                0x00077634       0x1c /home/ncs/CAPSTONE/out/arsdk-native/build/libARCommands/obj/gen/Sources/ARCOMMANDS_Filter.c.o
                0x00077634                ARCOMMANDS_Filter_SetPowerupNetworkWifiAuthChannelBehavior
 .text.ARCOMMANDS_Filter_SetPowerupMediaStreamingVideoEnableBehavior
                0x00077650       0x1c /home/ncs/CAPSTONE/out/arsdk-native/build/libARCommands/obj/gen/Sources/ARCOMMANDS_Filter.c.o
                0x00077650                ARCOMMANDS_Filter_SetPowerupMediaStreamingVideoEnableBehavior
 .text.ARCOMMANDS_Filter_SetPowerupMediaStreamingBehavior
                0x0007766c        0x4 /home/ncs/CAPSTONE/out/arsdk-native/build/libARCommands/obj/gen/Sources/ARCOMMANDS_Filter.c.o
                0x0007766c                ARCOMMANDS_Filter_SetPowerupMediaStreamingBehavior
 .text.ARCOMMANDS_Filter_SetPowerupVideoSettingsAutorecordBehavior
                0x00077670       0x1c /home/ncs/CAPSTONE/out/arsdk-native/build/libARCommands/obj/gen/Sources/ARCOMMANDS_Filter.c.o
                0x00077670                ARCOMMANDS_Filter_SetPowerupVideoSettingsAutorecordBehavior
 .text.ARCOMMANDS_Filter_SetPowerupVideoSettingsVideoModeBehavior
                0x0007768c       0x1c /home/ncs/CAPSTONE/out/arsdk-native/build/libARCommands/obj/gen/Sources/ARCOMMANDS_Filter.c.o
                0x0007768c                ARCOMMANDS_Filter_SetPowerupVideoSettingsVideoModeBehavior
 .text.ARCOMMANDS_Filter_SetPowerupSoundsBuzzBehavior
                0x000776a8       0x1c /home/ncs/CAPSTONE/out/arsdk-native/build/libARCommands/obj/gen/Sources/ARCOMMANDS_Filter.c.o
                0x000776a8                ARCOMMANDS_Filter_SetPowerupSoundsBuzzBehavior
 .text.ARCOMMANDS_Filter_SetPowerupSoundsBehavior
                0x000776c4        0x4 /home/ncs/CAPSTONE/out/arsdk-native/build/libARCommands/obj/gen/Sources/ARCOMMANDS_Filter.c.o
                0x000776c4                ARCOMMANDS_Filter_SetPowerupSoundsBehavior
 .text.ARCOMMANDS_Filter_SetPowerupPilotingStateAlertStateChangedBehavior
                0x000776c8       0x1c /home/ncs/CAPSTONE/out/arsdk-native/build/libARCommands/obj/gen/Sources/ARCOMMANDS_Filter.c.o
                0x000776c8                ARCOMMANDS_Filter_SetPowerupPilotingStateAlertStateChangedBehavior
 .text.ARCOMMANDS_Filter_SetPowerupPilotingStateFlyingStateChangedBehavior
                0x000776e4       0x1c /home/ncs/CAPSTONE/out/arsdk-native/build/libARCommands/obj/gen/Sources/ARCOMMANDS_Filter.c.o
                0x000776e4                ARCOMMANDS_Filter_SetPowerupPilotingStateFlyingStateChangedBehavior
 .text.ARCOMMANDS_Filter_SetPowerupPilotingStateMotorModeChangedBehavior
                0x00077700       0x1c /home/ncs/CAPSTONE/out/arsdk-native/build/libARCommands/obj/gen/Sources/ARCOMMANDS_Filter.c.o
                0x00077700                ARCOMMANDS_Filter_SetPowerupPilotingStateMotorModeChangedBehavior
 .text.ARCOMMANDS_Filter_SetPowerupPilotingStateAttitudeChangedBehavior
                0x0007771c       0x1c /home/ncs/CAPSTONE/out/arsdk-native/build/libARCommands/obj/gen/Sources/ARCOMMANDS_Filter.c.o
                0x0007771c                ARCOMMANDS_Filter_SetPowerupPilotingStateAttitudeChangedBehavior
 .text.ARCOMMANDS_Filter_SetPowerupPilotingStateAltitudeChangedBehavior
                0x00077738       0x1c /home/ncs/CAPSTONE/out/arsdk-native/build/libARCommands/obj/gen/Sources/ARCOMMANDS_Filter.c.o
                0x00077738                ARCOMMANDS_Filter_SetPowerupPilotingStateAltitudeChangedBehavior
 .text.ARCOMMANDS_Filter_SetPowerupPilotingSettingsStateSettingChangedBehavior
                0x00077754       0x1c /home/ncs/CAPSTONE/out/arsdk-native/build/libARCommands/obj/gen/Sources/ARCOMMANDS_Filter.c.o
                0x00077754                ARCOMMANDS_Filter_SetPowerupPilotingSettingsStateSettingChangedBehavior
 .text.ARCOMMANDS_Filter_SetPowerupPilotingSettingsStateBehavior
                0x00077770        0x4 /home/ncs/CAPSTONE/out/arsdk-native/build/libARCommands/obj/gen/Sources/ARCOMMANDS_Filter.c.o
                0x00077770                ARCOMMANDS_Filter_SetPowerupPilotingSettingsStateBehavior
 .text.ARCOMMANDS_Filter_SetPowerupMediaRecordStatePictureStateChangedV2Behavior
                0x00077774       0x1c /home/ncs/CAPSTONE/out/arsdk-native/build/libARCommands/obj/gen/Sources/ARCOMMANDS_Filter.c.o
                0x00077774                ARCOMMANDS_Filter_SetPowerupMediaRecordStatePictureStateChangedV2Behavior
 .text.ARCOMMANDS_Filter_SetPowerupMediaRecordStateVideoStateChangedV2Behavior
                0x00077790       0x1c /home/ncs/CAPSTONE/out/arsdk-native/build/libARCommands/obj/gen/Sources/ARCOMMANDS_Filter.c.o
                0x00077790                ARCOMMANDS_Filter_SetPowerupMediaRecordStateVideoStateChangedV2Behavior
 .text.ARCOMMANDS_Filter_SetPowerupMediaRecordEventPictureEventChangedBehavior
                0x000777ac       0x1c /home/ncs/CAPSTONE/out/arsdk-native/build/libARCommands/obj/gen/Sources/ARCOMMANDS_Filter.c.o
                0x000777ac                ARCOMMANDS_Filter_SetPowerupMediaRecordEventPictureEventChangedBehavior
 .text.ARCOMMANDS_Filter_SetPowerupMediaRecordEventVideoEventChangedBehavior
                0x000777c8       0x1c /home/ncs/CAPSTONE/out/arsdk-native/build/libARCommands/obj/gen/Sources/ARCOMMANDS_Filter.c.o
                0x000777c8                ARCOMMANDS_Filter_SetPowerupMediaRecordEventVideoEventChangedBehavior
 .text.ARCOMMANDS_Filter_SetPowerupNetworkSettingsStateWifiSelectionChangedBehavior
                0x000777e4       0x1c /home/ncs/CAPSTONE/out/arsdk-native/build/libARCommands/obj/gen/Sources/ARCOMMANDS_Filter.c.o
                0x000777e4                ARCOMMANDS_Filter_SetPowerupNetworkSettingsStateWifiSelectionChangedBehavior
 .text.ARCOMMANDS_Filter_SetPowerupNetworkSettingsStateBehavior
                0x00077800        0x4 /home/ncs/CAPSTONE/out/arsdk-native/build/libARCommands/obj/gen/Sources/ARCOMMANDS_Filter.c.o
                0x00077800                ARCOMMANDS_Filter_SetPowerupNetworkSettingsStateBehavior
 .text.ARCOMMANDS_Filter_SetPowerupNetworkStateWifiScanListChangedBehavior
                0x00077804       0x1c /home/ncs/CAPSTONE/out/arsdk-native/build/libARCommands/obj/gen/Sources/ARCOMMANDS_Filter.c.o
                0x00077804                ARCOMMANDS_Filter_SetPowerupNetworkStateWifiScanListChangedBehavior
 .text.ARCOMMANDS_Filter_SetPowerupNetworkStateAllWifiScanChangedBehavior
                0x00077820       0x1c /home/ncs/CAPSTONE/out/arsdk-native/build/libARCommands/obj/gen/Sources/ARCOMMANDS_Filter.c.o
                0x00077820                ARCOMMANDS_Filter_SetPowerupNetworkStateAllWifiScanChangedBehavior
 .text.ARCOMMANDS_Filter_SetPowerupNetworkStateWifiAuthChannelListChangedBehavior
                0x0007783c       0x1c /home/ncs/CAPSTONE/out/arsdk-native/build/libARCommands/obj/gen/Sources/ARCOMMANDS_Filter.c.o
                0x0007783c                ARCOMMANDS_Filter_SetPowerupNetworkStateWifiAuthChannelListChangedBehavior
 .text.ARCOMMANDS_Filter_SetPowerupNetworkStateAllWifiAuthChannelChangedBehavior
                0x00077858       0x1c /home/ncs/CAPSTONE/out/arsdk-native/build/libARCommands/obj/gen/Sources/ARCOMMANDS_Filter.c.o
                0x00077858                ARCOMMANDS_Filter_SetPowerupNetworkStateAllWifiAuthChannelChangedBehavior
 .text.ARCOMMANDS_Filter_SetPowerupNetworkStateLinkQualityChangedBehavior
                0x00077874       0x1c /home/ncs/CAPSTONE/out/arsdk-native/build/libARCommands/obj/gen/Sources/ARCOMMANDS_Filter.c.o
                0x00077874                ARCOMMANDS_Filter_SetPowerupNetworkStateLinkQualityChangedBehavior
 .text.ARCOMMANDS_Filter_SetPowerupMediaStreamingStateVideoEnableChangedBehavior
                0x00077890       0x1c /home/ncs/CAPSTONE/out/arsdk-native/build/libARCommands/obj/gen/Sources/ARCOMMANDS_Filter.c.o
                0x00077890                ARCOMMANDS_Filter_SetPowerupMediaStreamingStateVideoEnableChangedBehavior
 .text.ARCOMMANDS_Filter_SetPowerupMediaStreamingStateBehavior
                0x000778ac        0x4 /home/ncs/CAPSTONE/out/arsdk-native/build/libARCommands/obj/gen/Sources/ARCOMMANDS_Filter.c.o
                0x000778ac                ARCOMMANDS_Filter_SetPowerupMediaStreamingStateBehavior
 .text.ARCOMMANDS_Filter_SetPowerupVideoSettingsStateAutorecordChangedBehavior
                0x000778b0       0x1c /home/ncs/CAPSTONE/out/arsdk-native/build/libARCommands/obj/gen/Sources/ARCOMMANDS_Filter.c.o
                0x000778b0                ARCOMMANDS_Filter_SetPowerupVideoSettingsStateAutorecordChangedBehavior
 .text.ARCOMMANDS_Filter_SetPowerupVideoSettingsStateVideoModeChangedBehavior
                0x000778cc       0x1c /home/ncs/CAPSTONE/out/arsdk-native/build/libARCommands/obj/gen/Sources/ARCOMMANDS_Filter.c.o
                0x000778cc                ARCOMMANDS_Filter_SetPowerupVideoSettingsStateVideoModeChangedBehavior
 .text.ARCOMMANDS_Filter_SetPowerupSoundsStateBuzzChangedBehavior
                0x000778e8       0x1c /home/ncs/CAPSTONE/out/arsdk-native/build/libARCommands/obj/gen/Sources/ARCOMMANDS_Filter.c.o
                0x000778e8                ARCOMMANDS_Filter_SetPowerupSoundsStateBuzzChangedBehavior
 .text.ARCOMMANDS_Filter_SetPowerupSoundsStateBehavior
                0x00077904        0x4 /home/ncs/CAPSTONE/out/arsdk-native/build/libARCommands/obj/gen/Sources/ARCOMMANDS_Filter.c.o
                0x00077904                ARCOMMANDS_Filter_SetPowerupSoundsStateBehavior
 .text.ARCOMMANDS_Filter_SetProBehavior
                0x00077908       0x30 /home/ncs/CAPSTONE/out/arsdk-native/build/libARCommands/obj/gen/Sources/ARCOMMANDS_Filter.c.o
                0x00077908                ARCOMMANDS_Filter_SetProBehavior
 .text.ARCOMMANDS_Filter_SetProProBehavior
                0x00077938       0x24 /home/ncs/CAPSTONE/out/arsdk-native/build/libARCommands/obj/gen/Sources/ARCOMMANDS_Filter.c.o
                0x00077938                ARCOMMANDS_Filter_SetProProBehavior
 .text.ARCOMMANDS_Filter_SetProProStateBehavior
                0x0007795c       0x20 /home/ncs/CAPSTONE/out/arsdk-native/build/libARCommands/obj/gen/Sources/ARCOMMANDS_Filter.c.o
                0x0007795c                ARCOMMANDS_Filter_SetProProStateBehavior
 .text.ARCOMMANDS_Filter_SetProProBoughtFeaturesBehavior
                0x0007797c       0x1c /home/ncs/CAPSTONE/out/arsdk-native/build/libARCommands/obj/gen/Sources/ARCOMMANDS_Filter.c.o
                0x0007797c                ARCOMMANDS_Filter_SetProProBoughtFeaturesBehavior
 .text.ARCOMMANDS_Filter_SetProProResponseBehavior
                0x00077998       0x1c /home/ncs/CAPSTONE/out/arsdk-native/build/libARCommands/obj/gen/Sources/ARCOMMANDS_Filter.c.o
                0x00077998                ARCOMMANDS_Filter_SetProProResponseBehavior
 .text.ARCOMMANDS_Filter_SetProProActivateFeaturesBehavior
                0x000779b4       0x1c /home/ncs/CAPSTONE/out/arsdk-native/build/libARCommands/obj/gen/Sources/ARCOMMANDS_Filter.c.o
                0x000779b4                ARCOMMANDS_Filter_SetProProActivateFeaturesBehavior
 .text.ARCOMMANDS_Filter_SetProProStateSupportedFeaturesBehavior
                0x000779d0       0x1c /home/ncs/CAPSTONE/out/arsdk-native/build/libARCommands/obj/gen/Sources/ARCOMMANDS_Filter.c.o
                0x000779d0                ARCOMMANDS_Filter_SetProProStateSupportedFeaturesBehavior
 .text.ARCOMMANDS_Filter_SetProProStateFeaturesActivatedBehavior
                0x000779ec       0x1c /home/ncs/CAPSTONE/out/arsdk-native/build/libARCommands/obj/gen/Sources/ARCOMMANDS_Filter.c.o
                0x000779ec                ARCOMMANDS_Filter_SetProProStateFeaturesActivatedBehavior
 .text.ARCOMMANDS_Filter_SetProProEventChallengeEventBehavior
                0x00077a08       0x1c /home/ncs/CAPSTONE/out/arsdk-native/build/libARCommands/obj/gen/Sources/ARCOMMANDS_Filter.c.o
                0x00077a08                ARCOMMANDS_Filter_SetProProEventChallengeEventBehavior
 .text.ARCOMMANDS_Filter_SetProProEventBehavior
                0x00077a24        0x4 /home/ncs/CAPSTONE/out/arsdk-native/build/libARCommands/obj/gen/Sources/ARCOMMANDS_Filter.c.o
                0x00077a24                ARCOMMANDS_Filter_SetProProEventBehavior
 .text.ARCOMMANDS_Filter_SetRcBehavior
                0x00077a28       0x40 /home/ncs/CAPSTONE/out/arsdk-native/build/libARCommands/obj/gen/Sources/ARCOMMANDS_Filter.c.o
                0x00077a28                ARCOMMANDS_Filter_SetRcBehavior
 .text.ARCOMMANDS_Filter_SetRcMonitorChannelsBehavior
                0x00077a68       0x1c /home/ncs/CAPSTONE/out/arsdk-native/build/libARCommands/obj/gen/Sources/ARCOMMANDS_Filter.c.o
                0x00077a68                ARCOMMANDS_Filter_SetRcMonitorChannelsBehavior
 .text.ARCOMMANDS_Filter_SetRcStartCalibrationBehavior
                0x00077a84       0x1c /home/ncs/CAPSTONE/out/arsdk-native/build/libARCommands/obj/gen/Sources/ARCOMMANDS_Filter.c.o
                0x00077a84                ARCOMMANDS_Filter_SetRcStartCalibrationBehavior
 .text.ARCOMMANDS_Filter_SetRcInvertChannelBehavior
                0x00077aa0       0x1c /home/ncs/CAPSTONE/out/arsdk-native/build/libARCommands/obj/gen/Sources/ARCOMMANDS_Filter.c.o
                0x00077aa0                ARCOMMANDS_Filter_SetRcInvertChannelBehavior
 .text.ARCOMMANDS_Filter_SetRcAbortCalibrationBehavior
                0x00077abc       0x1c /home/ncs/CAPSTONE/out/arsdk-native/build/libARCommands/obj/gen/Sources/ARCOMMANDS_Filter.c.o
                0x00077abc                ARCOMMANDS_Filter_SetRcAbortCalibrationBehavior
 .text.ARCOMMANDS_Filter_SetRcResetCalibrationBehavior
                0x00077ad8       0x1c /home/ncs/CAPSTONE/out/arsdk-native/build/libARCommands/obj/gen/Sources/ARCOMMANDS_Filter.c.o
                0x00077ad8                ARCOMMANDS_Filter_SetRcResetCalibrationBehavior
 .text.ARCOMMANDS_Filter_SetRcReceiverStateBehavior
                0x00077af4       0x1c /home/ncs/CAPSTONE/out/arsdk-native/build/libARCommands/obj/gen/Sources/ARCOMMANDS_Filter.c.o
                0x00077af4                ARCOMMANDS_Filter_SetRcReceiverStateBehavior
 .text.ARCOMMANDS_Filter_SetRcChannelsMonitorStateBehavior
                0x00077b10       0x1c /home/ncs/CAPSTONE/out/arsdk-native/build/libARCommands/obj/gen/Sources/ARCOMMANDS_Filter.c.o
                0x00077b10                ARCOMMANDS_Filter_SetRcChannelsMonitorStateBehavior
 .text.ARCOMMANDS_Filter_SetRcChannelValueBehavior
                0x00077b2c       0x1c /home/ncs/CAPSTONE/out/arsdk-native/build/libARCommands/obj/gen/Sources/ARCOMMANDS_Filter.c.o
                0x00077b2c                ARCOMMANDS_Filter_SetRcChannelValueBehavior
 .text.ARCOMMANDS_Filter_SetRcCalibrationStateBehavior
                0x00077b48       0x1c /home/ncs/CAPSTONE/out/arsdk-native/build/libARCommands/obj/gen/Sources/ARCOMMANDS_Filter.c.o
                0x00077b48                ARCOMMANDS_Filter_SetRcCalibrationStateBehavior
 .text.ARCOMMANDS_Filter_SetRcReceiverQualityBehavior
                0x00077b64       0x1c /home/ncs/CAPSTONE/out/arsdk-native/build/libARCommands/obj/gen/Sources/ARCOMMANDS_Filter.c.o
                0x00077b64                ARCOMMANDS_Filter_SetRcReceiverQualityBehavior
 .text.ARCOMMANDS_Filter_SetSkyControllerBehavior
                0x00077b80      0x132 /home/ncs/CAPSTONE/out/arsdk-native/build/libARCommands/obj/gen/Sources/ARCOMMANDS_Filter.c.o
                0x00077b80                ARCOMMANDS_Filter_SetSkyControllerBehavior
 .text.ARCOMMANDS_Filter_SetSkyControllerWifiStateBehavior
                0x00077cb2       0x2c /home/ncs/CAPSTONE/out/arsdk-native/build/libARCommands/obj/gen/Sources/ARCOMMANDS_Filter.c.o
                0x00077cb2                ARCOMMANDS_Filter_SetSkyControllerWifiStateBehavior
 .text.ARCOMMANDS_Filter_SetSkyControllerWifiBehavior
                0x00077cde       0x2c /home/ncs/CAPSTONE/out/arsdk-native/build/libARCommands/obj/gen/Sources/ARCOMMANDS_Filter.c.o
                0x00077cde                ARCOMMANDS_Filter_SetSkyControllerWifiBehavior
 .text.ARCOMMANDS_Filter_SetSkyControllerDeviceBehavior
                0x00077d0a       0x24 /home/ncs/CAPSTONE/out/arsdk-native/build/libARCommands/obj/gen/Sources/ARCOMMANDS_Filter.c.o
                0x00077d0a                ARCOMMANDS_Filter_SetSkyControllerDeviceBehavior
 .text.ARCOMMANDS_Filter_SetSkyControllerDeviceStateBehavior
                0x00077d2e       0x20 /home/ncs/CAPSTONE/out/arsdk-native/build/libARCommands/obj/gen/Sources/ARCOMMANDS_Filter.c.o
                0x00077d2e                ARCOMMANDS_Filter_SetSkyControllerDeviceStateBehavior
 .text.ARCOMMANDS_Filter_SetSkyControllerSettingsBehavior
                0x00077d4e       0x20 /home/ncs/CAPSTONE/out/arsdk-native/build/libARCommands/obj/gen/Sources/ARCOMMANDS_Filter.c.o
                0x00077d4e                ARCOMMANDS_Filter_SetSkyControllerSettingsBehavior
 .text.ARCOMMANDS_Filter_SetSkyControllerSettingsStateBehavior
                0x00077d6e       0x2c /home/ncs/CAPSTONE/out/arsdk-native/build/libARCommands/obj/gen/Sources/ARCOMMANDS_Filter.c.o
                0x00077d6e                ARCOMMANDS_Filter_SetSkyControllerSettingsStateBehavior
 .text.ARCOMMANDS_Filter_SetSkyControllerSkyControllerStateBehavior
                0x00077d9a       0x2c /home/ncs/CAPSTONE/out/arsdk-native/build/libARCommands/obj/gen/Sources/ARCOMMANDS_Filter.c.o
                0x00077d9a                ARCOMMANDS_Filter_SetSkyControllerSkyControllerStateBehavior
 .text.ARCOMMANDS_Filter_SetSkyControllerAccessPointSettingsBehavior
                0x00077dc6       0x24 /home/ncs/CAPSTONE/out/arsdk-native/build/libARCommands/obj/gen/Sources/ARCOMMANDS_Filter.c.o
                0x00077dc6                ARCOMMANDS_Filter_SetSkyControllerAccessPointSettingsBehavior
 .text.ARCOMMANDS_Filter_SetSkyControllerAccessPointSettingsStateBehavior
                0x00077dea       0x24 /home/ncs/CAPSTONE/out/arsdk-native/build/libARCommands/obj/gen/Sources/ARCOMMANDS_Filter.c.o
                0x00077dea                ARCOMMANDS_Filter_SetSkyControllerAccessPointSettingsStateBehavior
 .text.ARCOMMANDS_Filter_SetSkyControllerGamepadInfosStateBehavior
                0x00077e0e       0x20 /home/ncs/CAPSTONE/out/arsdk-native/build/libARCommands/obj/gen/Sources/ARCOMMANDS_Filter.c.o
                0x00077e0e                ARCOMMANDS_Filter_SetSkyControllerGamepadInfosStateBehavior
 .text.ARCOMMANDS_Filter_SetSkyControllerButtonMappingsBehavior
                0x00077e2e       0x28 /home/ncs/CAPSTONE/out/arsdk-native/build/libARCommands/obj/gen/Sources/ARCOMMANDS_Filter.c.o
                0x00077e2e                ARCOMMANDS_Filter_SetSkyControllerButtonMappingsBehavior
 .text.ARCOMMANDS_Filter_SetSkyControllerButtonMappingsStateBehavior
                0x00077e56       0x28 /home/ncs/CAPSTONE/out/arsdk-native/build/libARCommands/obj/gen/Sources/ARCOMMANDS_Filter.c.o
                0x00077e56                ARCOMMANDS_Filter_SetSkyControllerButtonMappingsStateBehavior
 .text.ARCOMMANDS_Filter_SetSkyControllerAxisMappingsBehavior
                0x00077e7e       0x28 /home/ncs/CAPSTONE/out/arsdk-native/build/libARCommands/obj/gen/Sources/ARCOMMANDS_Filter.c.o
                0x00077e7e                ARCOMMANDS_Filter_SetSkyControllerAxisMappingsBehavior
 .text.ARCOMMANDS_Filter_SetSkyControllerAxisMappingsStateBehavior
                0x00077ea6       0x28 /home/ncs/CAPSTONE/out/arsdk-native/build/libARCommands/obj/gen/Sources/ARCOMMANDS_Filter.c.o
                0x00077ea6                ARCOMMANDS_Filter_SetSkyControllerAxisMappingsStateBehavior
 .text.ARCOMMANDS_Filter_SetSkyControllerAxisFiltersBehavior
                0x00077ece       0x28 /home/ncs/CAPSTONE/out/arsdk-native/build/libARCommands/obj/gen/Sources/ARCOMMANDS_Filter.c.o
                0x00077ece                ARCOMMANDS_Filter_SetSkyControllerAxisFiltersBehavior
 .text.ARCOMMANDS_Filter_SetSkyControllerAxisFiltersStateBehavior
                0x00077ef6       0x28 /home/ncs/CAPSTONE/out/arsdk-native/build/libARCommands/obj/gen/Sources/ARCOMMANDS_Filter.c.o
                0x00077ef6                ARCOMMANDS_Filter_SetSkyControllerAxisFiltersStateBehavior
 .text.ARCOMMANDS_Filter_SetSkyControllerCalibrationStateBehavior
                0x00077f1e       0x20 /home/ncs/CAPSTONE/out/arsdk-native/build/libARCommands/obj/gen/Sources/ARCOMMANDS_Filter.c.o
                0x00077f1e                ARCOMMANDS_Filter_SetSkyControllerCalibrationStateBehavior
 .text.ARCOMMANDS_Filter_SetSkyControllerWifiRequestWifiListBehavior
                0x00077f3e       0x1c /home/ncs/CAPSTONE/out/arsdk-native/build/libARCommands/obj/gen/Sources/ARCOMMANDS_Filter.c.o
                0x00077f3e                ARCOMMANDS_Filter_SetSkyControllerWifiRequestWifiListBehavior
 .text.ARCOMMANDS_Filter_SetSkyControllerWifiRequestCurrentWifiBehavior
                0x00077f5a       0x1c /home/ncs/CAPSTONE/out/arsdk-native/build/libARCommands/obj/gen/Sources/ARCOMMANDS_Filter.c.o
                0x00077f5a                ARCOMMANDS_Filter_SetSkyControllerWifiRequestCurrentWifiBehavior
 .text.ARCOMMANDS_Filter_SetSkyControllerWifiConnectToWifiBehavior
                0x00077f76       0x1c /home/ncs/CAPSTONE/out/arsdk-native/build/libARCommands/obj/gen/Sources/ARCOMMANDS_Filter.c.o
                0x00077f76                ARCOMMANDS_Filter_SetSkyControllerWifiConnectToWifiBehavior
 .text.ARCOMMANDS_Filter_SetSkyControllerWifiForgetWifiBehavior
                0x00077f92       0x1c /home/ncs/CAPSTONE/out/arsdk-native/build/libARCommands/obj/gen/Sources/ARCOMMANDS_Filter.c.o
                0x00077f92                ARCOMMANDS_Filter_SetSkyControllerWifiForgetWifiBehavior
 .text.ARCOMMANDS_Filter_SetSkyControllerWifiWifiAuthChannelBehavior
                0x00077fae       0x1c /home/ncs/CAPSTONE/out/arsdk-native/build/libARCommands/obj/gen/Sources/ARCOMMANDS_Filter.c.o
                0x00077fae                ARCOMMANDS_Filter_SetSkyControllerWifiWifiAuthChannelBehavior
 .text.ARCOMMANDS_Filter_SetSkyControllerDeviceRequestDeviceListBehavior
                0x00077fca       0x1c /home/ncs/CAPSTONE/out/arsdk-native/build/libARCommands/obj/gen/Sources/ARCOMMANDS_Filter.c.o
                0x00077fca                ARCOMMANDS_Filter_SetSkyControllerDeviceRequestDeviceListBehavior
 .text.ARCOMMANDS_Filter_SetSkyControllerDeviceRequestCurrentDeviceBehavior
                0x00077fe6       0x1c /home/ncs/CAPSTONE/out/arsdk-native/build/libARCommands/obj/gen/Sources/ARCOMMANDS_Filter.c.o
                0x00077fe6                ARCOMMANDS_Filter_SetSkyControllerDeviceRequestCurrentDeviceBehavior
 .text.ARCOMMANDS_Filter_SetSkyControllerDeviceConnectToDeviceBehavior
                0x00078002       0x1c /home/ncs/CAPSTONE/out/arsdk-native/build/libARCommands/obj/gen/Sources/ARCOMMANDS_Filter.c.o
                0x00078002                ARCOMMANDS_Filter_SetSkyControllerDeviceConnectToDeviceBehavior
 .text.ARCOMMANDS_Filter_SetSkyControllerSettingsAllSettingsBehavior
                0x0007801e       0x1c /home/ncs/CAPSTONE/out/arsdk-native/build/libARCommands/obj/gen/Sources/ARCOMMANDS_Filter.c.o
                0x0007801e                ARCOMMANDS_Filter_SetSkyControllerSettingsAllSettingsBehavior
 .text.ARCOMMANDS_Filter_SetSkyControllerSettingsResetBehavior
                0x0007803a       0x1c /home/ncs/CAPSTONE/out/arsdk-native/build/libARCommands/obj/gen/Sources/ARCOMMANDS_Filter.c.o
                0x0007803a                ARCOMMANDS_Filter_SetSkyControllerSettingsResetBehavior
 .text.ARCOMMANDS_Filter_SetSkyControllerCommonAllStatesBehavior
                0x00078056       0x1c /home/ncs/CAPSTONE/out/arsdk-native/build/libARCommands/obj/gen/Sources/ARCOMMANDS_Filter.c.o
                0x00078056                ARCOMMANDS_Filter_SetSkyControllerCommonAllStatesBehavior
 .text.ARCOMMANDS_Filter_SetSkyControllerCommonBehavior
                0x00078072        0x4 /home/ncs/CAPSTONE/out/arsdk-native/build/libARCommands/obj/gen/Sources/ARCOMMANDS_Filter.c.o
                0x00078072                ARCOMMANDS_Filter_SetSkyControllerCommonBehavior
 .text.ARCOMMANDS_Filter_SetSkyControllerAccessPointSettingsAccessPointSSIDBehavior
                0x00078076       0x1c /home/ncs/CAPSTONE/out/arsdk-native/build/libARCommands/obj/gen/Sources/ARCOMMANDS_Filter.c.o
                0x00078076                ARCOMMANDS_Filter_SetSkyControllerAccessPointSettingsAccessPointSSIDBehavior
 .text.ARCOMMANDS_Filter_SetSkyControllerAccessPointSettingsAccessPointChannelBehavior
                0x00078092       0x1c /home/ncs/CAPSTONE/out/arsdk-native/build/libARCommands/obj/gen/Sources/ARCOMMANDS_Filter.c.o
                0x00078092                ARCOMMANDS_Filter_SetSkyControllerAccessPointSettingsAccessPointChannelBehavior
 .text.ARCOMMANDS_Filter_SetSkyControllerAccessPointSettingsWifiSelectionBehavior
                0x000780ae       0x1c /home/ncs/CAPSTONE/out/arsdk-native/build/libARCommands/obj/gen/Sources/ARCOMMANDS_Filter.c.o
                0x000780ae                ARCOMMANDS_Filter_SetSkyControllerAccessPointSettingsWifiSelectionBehavior
 .text.ARCOMMANDS_Filter_SetSkyControllerCameraResetOrientationBehavior
                0x000780ca       0x1c /home/ncs/CAPSTONE/out/arsdk-native/build/libARCommands/obj/gen/Sources/ARCOMMANDS_Filter.c.o
                0x000780ca                ARCOMMANDS_Filter_SetSkyControllerCameraResetOrientationBehavior
 .text.ARCOMMANDS_Filter_SetSkyControllerCameraBehavior
                0x000780e6        0x4 /home/ncs/CAPSTONE/out/arsdk-native/build/libARCommands/obj/gen/Sources/ARCOMMANDS_Filter.c.o
                0x000780e6                ARCOMMANDS_Filter_SetSkyControllerCameraBehavior
 .text.ARCOMMANDS_Filter_SetSkyControllerGamepadInfosGetGamepadControlsBehavior
                0x000780ea       0x1c /home/ncs/CAPSTONE/out/arsdk-native/build/libARCommands/obj/gen/Sources/ARCOMMANDS_Filter.c.o
                0x000780ea                ARCOMMANDS_Filter_SetSkyControllerGamepadInfosGetGamepadControlsBehavior
 .text.ARCOMMANDS_Filter_SetSkyControllerGamepadInfosBehavior
                0x00078106        0x4 /home/ncs/CAPSTONE/out/arsdk-native/build/libARCommands/obj/gen/Sources/ARCOMMANDS_Filter.c.o
                0x00078106                ARCOMMANDS_Filter_SetSkyControllerGamepadInfosBehavior
 .text.ARCOMMANDS_Filter_SetSkyControllerButtonMappingsGetCurrentButtonMappingsBehavior
                0x0007810a       0x1c /home/ncs/CAPSTONE/out/arsdk-native/build/libARCommands/obj/gen/Sources/ARCOMMANDS_Filter.c.o
                0x0007810a                ARCOMMANDS_Filter_SetSkyControllerButtonMappingsGetCurrentButtonMappingsBehavior
 .text.ARCOMMANDS_Filter_SetSkyControllerButtonMappingsGetAvailableButtonMappingsBehavior
                0x00078126       0x1c /home/ncs/CAPSTONE/out/arsdk-native/build/libARCommands/obj/gen/Sources/ARCOMMANDS_Filter.c.o
                0x00078126                ARCOMMANDS_Filter_SetSkyControllerButtonMappingsGetAvailableButtonMappingsBehavior
 .text.ARCOMMANDS_Filter_SetSkyControllerButtonMappingsSetButtonMappingBehavior
                0x00078142       0x1c /home/ncs/CAPSTONE/out/arsdk-native/build/libARCommands/obj/gen/Sources/ARCOMMANDS_Filter.c.o
                0x00078142                ARCOMMANDS_Filter_SetSkyControllerButtonMappingsSetButtonMappingBehavior
 .text.ARCOMMANDS_Filter_SetSkyControllerButtonMappingsDefaultButtonMappingBehavior
                0x0007815e       0x1c /home/ncs/CAPSTONE/out/arsdk-native/build/libARCommands/obj/gen/Sources/ARCOMMANDS_Filter.c.o
                0x0007815e                ARCOMMANDS_Filter_SetSkyControllerButtonMappingsDefaultButtonMappingBehavior
 .text.ARCOMMANDS_Filter_SetSkyControllerAxisMappingsGetCurrentAxisMappingsBehavior
                0x0007817a       0x1c /home/ncs/CAPSTONE/out/arsdk-native/build/libARCommands/obj/gen/Sources/ARCOMMANDS_Filter.c.o
                0x0007817a                ARCOMMANDS_Filter_SetSkyControllerAxisMappingsGetCurrentAxisMappingsBehavior
 .text.ARCOMMANDS_Filter_SetSkyControllerAxisMappingsGetAvailableAxisMappingsBehavior
                0x00078196       0x1c /home/ncs/CAPSTONE/out/arsdk-native/build/libARCommands/obj/gen/Sources/ARCOMMANDS_Filter.c.o
                0x00078196                ARCOMMANDS_Filter_SetSkyControllerAxisMappingsGetAvailableAxisMappingsBehavior
 .text.ARCOMMANDS_Filter_SetSkyControllerAxisMappingsSetAxisMappingBehavior
                0x000781b2       0x1c /home/ncs/CAPSTONE/out/arsdk-native/build/libARCommands/obj/gen/Sources/ARCOMMANDS_Filter.c.o
                0x000781b2                ARCOMMANDS_Filter_SetSkyControllerAxisMappingsSetAxisMappingBehavior
 .text.ARCOMMANDS_Filter_SetSkyControllerAxisMappingsDefaultAxisMappingBehavior
                0x000781ce       0x1c /home/ncs/CAPSTONE/out/arsdk-native/build/libARCommands/obj/gen/Sources/ARCOMMANDS_Filter.c.o
                0x000781ce                ARCOMMANDS_Filter_SetSkyControllerAxisMappingsDefaultAxisMappingBehavior
 .text.ARCOMMANDS_Filter_SetSkyControllerAxisFiltersGetCurrentAxisFiltersBehavior
                0x000781ea       0x1c /home/ncs/CAPSTONE/out/arsdk-native/build/libARCommands/obj/gen/Sources/ARCOMMANDS_Filter.c.o
                0x000781ea                ARCOMMANDS_Filter_SetSkyControllerAxisFiltersGetCurrentAxisFiltersBehavior
 .text.ARCOMMANDS_Filter_SetSkyControllerAxisFiltersGetPresetAxisFiltersBehavior
                0x00078206       0x1c /home/ncs/CAPSTONE/out/arsdk-native/build/libARCommands/obj/gen/Sources/ARCOMMANDS_Filter.c.o
                0x00078206                ARCOMMANDS_Filter_SetSkyControllerAxisFiltersGetPresetAxisFiltersBehavior
 .text.ARCOMMANDS_Filter_SetSkyControllerAxisFiltersSetAxisFilterBehavior
                0x00078222       0x1c /home/ncs/CAPSTONE/out/arsdk-native/build/libARCommands/obj/gen/Sources/ARCOMMANDS_Filter.c.o
                0x00078222                ARCOMMANDS_Filter_SetSkyControllerAxisFiltersSetAxisFilterBehavior
 .text.ARCOMMANDS_Filter_SetSkyControllerAxisFiltersDefaultAxisFiltersBehavior
                0x0007823e       0x1c /home/ncs/CAPSTONE/out/arsdk-native/build/libARCommands/obj/gen/Sources/ARCOMMANDS_Filter.c.o
                0x0007823e                ARCOMMANDS_Filter_SetSkyControllerAxisFiltersDefaultAxisFiltersBehavior
 .text.ARCOMMANDS_Filter_SetSkyControllerCoPilotingSetPilotingSourceBehavior
                0x0007825a       0x1c /home/ncs/CAPSTONE/out/arsdk-native/build/libARCommands/obj/gen/Sources/ARCOMMANDS_Filter.c.o
                0x0007825a                ARCOMMANDS_Filter_SetSkyControllerCoPilotingSetPilotingSourceBehavior
 .text.ARCOMMANDS_Filter_SetSkyControllerCoPilotingBehavior
                0x00078276        0x4 /home/ncs/CAPSTONE/out/arsdk-native/build/libARCommands/obj/gen/Sources/ARCOMMANDS_Filter.c.o
                0x00078276                ARCOMMANDS_Filter_SetSkyControllerCoPilotingBehavior
 .text.ARCOMMANDS_Filter_SetSkyControllerCalibrationEnableMagnetoCalibrationQualityUpdatesBehavior
                0x0007827a       0x1c /home/ncs/CAPSTONE/out/arsdk-native/build/libARCommands/obj/gen/Sources/ARCOMMANDS_Filter.c.o
                0x0007827a                ARCOMMANDS_Filter_SetSkyControllerCalibrationEnableMagnetoCalibrationQualityUpdatesBehavior
 .text.ARCOMMANDS_Filter_SetSkyControllerCalibrationBehavior
                0x00078296        0x4 /home/ncs/CAPSTONE/out/arsdk-native/build/libARCommands/obj/gen/Sources/ARCOMMANDS_Filter.c.o
                0x00078296                ARCOMMANDS_Filter_SetSkyControllerCalibrationBehavior
 .text.ARCOMMANDS_Filter_SetSkyControllerFactoryResetBehavior
                0x0007829a       0x1c /home/ncs/CAPSTONE/out/arsdk-native/build/libARCommands/obj/gen/Sources/ARCOMMANDS_Filter.c.o
                0x0007829a                ARCOMMANDS_Filter_SetSkyControllerFactoryResetBehavior
 .text.ARCOMMANDS_Filter_SetSkyControllerFactoryBehavior
                0x000782b6        0x4 /home/ncs/CAPSTONE/out/arsdk-native/build/libARCommands/obj/gen/Sources/ARCOMMANDS_Filter.c.o
                0x000782b6                ARCOMMANDS_Filter_SetSkyControllerFactoryBehavior
 .text.ARCOMMANDS_Filter_SetSkyControllerWifiStateWifiListBehavior
                0x000782ba       0x1c /home/ncs/CAPSTONE/out/arsdk-native/build/libARCommands/obj/gen/Sources/ARCOMMANDS_Filter.c.o
                0x000782ba                ARCOMMANDS_Filter_SetSkyControllerWifiStateWifiListBehavior
 .text.ARCOMMANDS_Filter_SetSkyControllerWifiStateConnexionChangedBehavior
                0x000782d6       0x1c /home/ncs/CAPSTONE/out/arsdk-native/build/libARCommands/obj/gen/Sources/ARCOMMANDS_Filter.c.o
                0x000782d6                ARCOMMANDS_Filter_SetSkyControllerWifiStateConnexionChangedBehavior
 .text.ARCOMMANDS_Filter_SetSkyControllerWifiStateWifiAuthChannelListChangedBehavior
                0x000782f2       0x1c /home/ncs/CAPSTONE/out/arsdk-native/build/libARCommands/obj/gen/Sources/ARCOMMANDS_Filter.c.o
                0x000782f2                ARCOMMANDS_Filter_SetSkyControllerWifiStateWifiAuthChannelListChangedBehavior
 .text.ARCOMMANDS_Filter_SetSkyControllerWifiStateAllWifiAuthChannelChangedBehavior
                0x0007830e       0x1c /home/ncs/CAPSTONE/out/arsdk-native/build/libARCommands/obj/gen/Sources/ARCOMMANDS_Filter.c.o
                0x0007830e                ARCOMMANDS_Filter_SetSkyControllerWifiStateAllWifiAuthChannelChangedBehavior
 .text.ARCOMMANDS_Filter_SetSkyControllerWifiStateWifiSignalChangedBehavior
                0x0007832a       0x1c /home/ncs/CAPSTONE/out/arsdk-native/build/libARCommands/obj/gen/Sources/ARCOMMANDS_Filter.c.o
                0x0007832a                ARCOMMANDS_Filter_SetSkyControllerWifiStateWifiSignalChangedBehavior
 .text.ARCOMMANDS_Filter_SetSkyControllerDeviceStateDeviceListBehavior
                0x00078346       0x1c /home/ncs/CAPSTONE/out/arsdk-native/build/libARCommands/obj/gen/Sources/ARCOMMANDS_Filter.c.o
                0x00078346                ARCOMMANDS_Filter_SetSkyControllerDeviceStateDeviceListBehavior
 .text.ARCOMMANDS_Filter_SetSkyControllerDeviceStateConnexionChangedBehavior
                0x00078362       0x1c /home/ncs/CAPSTONE/out/arsdk-native/build/libARCommands/obj/gen/Sources/ARCOMMANDS_Filter.c.o
                0x00078362                ARCOMMANDS_Filter_SetSkyControllerDeviceStateConnexionChangedBehavior
 .text.ARCOMMANDS_Filter_SetSkyControllerSettingsStateAllSettingsChangedBehavior
                0x0007837e       0x1c /home/ncs/CAPSTONE/out/arsdk-native/build/libARCommands/obj/gen/Sources/ARCOMMANDS_Filter.c.o
                0x0007837e                ARCOMMANDS_Filter_SetSkyControllerSettingsStateAllSettingsChangedBehavior
 .text.ARCOMMANDS_Filter_SetSkyControllerSettingsStateResetChangedBehavior
                0x0007839a       0x1c /home/ncs/CAPSTONE/out/arsdk-native/build/libARCommands/obj/gen/Sources/ARCOMMANDS_Filter.c.o
                0x0007839a                ARCOMMANDS_Filter_SetSkyControllerSettingsStateResetChangedBehavior
 .text.ARCOMMANDS_Filter_SetSkyControllerSettingsStateProductSerialChangedBehavior
                0x000783b6       0x1c /home/ncs/CAPSTONE/out/arsdk-native/build/libARCommands/obj/gen/Sources/ARCOMMANDS_Filter.c.o
                0x000783b6                ARCOMMANDS_Filter_SetSkyControllerSettingsStateProductSerialChangedBehavior
 .text.ARCOMMANDS_Filter_SetSkyControllerSettingsStateProductVariantChangedBehavior
                0x000783d2       0x1c /home/ncs/CAPSTONE/out/arsdk-native/build/libARCommands/obj/gen/Sources/ARCOMMANDS_Filter.c.o
                0x000783d2                ARCOMMANDS_Filter_SetSkyControllerSettingsStateProductVariantChangedBehavior
 .text.ARCOMMANDS_Filter_SetSkyControllerSettingsStateProductVersionChangedBehavior
                0x000783ee       0x1c /home/ncs/CAPSTONE/out/arsdk-native/build/libARCommands/obj/gen/Sources/ARCOMMANDS_Filter.c.o
                0x000783ee                ARCOMMANDS_Filter_SetSkyControllerSettingsStateProductVersionChangedBehavior
 .text.ARCOMMANDS_Filter_SetSkyControllerCommonStateAllStatesChangedBehavior
                0x0007840a       0x1c /home/ncs/CAPSTONE/out/arsdk-native/build/libARCommands/obj/gen/Sources/ARCOMMANDS_Filter.c.o
                0x0007840a                ARCOMMANDS_Filter_SetSkyControllerCommonStateAllStatesChangedBehavior
 .text.ARCOMMANDS_Filter_SetSkyControllerCommonStateBehavior
                0x00078426        0x4 /home/ncs/CAPSTONE/out/arsdk-native/build/libARCommands/obj/gen/Sources/ARCOMMANDS_Filter.c.o
                0x00078426                ARCOMMANDS_Filter_SetSkyControllerCommonStateBehavior
 .text.ARCOMMANDS_Filter_SetSkyControllerSkyControllerStateBatteryChangedBehavior
                0x0007842a       0x1c /home/ncs/CAPSTONE/out/arsdk-native/build/libARCommands/obj/gen/Sources/ARCOMMANDS_Filter.c.o
                0x0007842a                ARCOMMANDS_Filter_SetSkyControllerSkyControllerStateBatteryChangedBehavior
 .text.ARCOMMANDS_Filter_SetSkyControllerSkyControllerStateGpsFixChangedBehavior
                0x00078446       0x1c /home/ncs/CAPSTONE/out/arsdk-native/build/libARCommands/obj/gen/Sources/ARCOMMANDS_Filter.c.o
                0x00078446                ARCOMMANDS_Filter_SetSkyControllerSkyControllerStateGpsFixChangedBehavior
 .text.ARCOMMANDS_Filter_SetSkyControllerSkyControllerStateGpsPositionChangedBehavior
                0x00078462       0x1c /home/ncs/CAPSTONE/out/arsdk-native/build/libARCommands/obj/gen/Sources/ARCOMMANDS_Filter.c.o
                0x00078462                ARCOMMANDS_Filter_SetSkyControllerSkyControllerStateGpsPositionChangedBehavior
 .text.ARCOMMANDS_Filter_SetSkyControllerSkyControllerStateBatteryStateBehavior
                0x0007847e       0x1c /home/ncs/CAPSTONE/out/arsdk-native/build/libARCommands/obj/gen/Sources/ARCOMMANDS_Filter.c.o
                0x0007847e                ARCOMMANDS_Filter_SetSkyControllerSkyControllerStateBatteryStateBehavior
 .text.ARCOMMANDS_Filter_SetSkyControllerSkyControllerStateAttitudeChangedBehavior
                0x0007849a       0x1c /home/ncs/CAPSTONE/out/arsdk-native/build/libARCommands/obj/gen/Sources/ARCOMMANDS_Filter.c.o
                0x0007849a                ARCOMMANDS_Filter_SetSkyControllerSkyControllerStateAttitudeChangedBehavior
 .text.ARCOMMANDS_Filter_SetSkyControllerAccessPointSettingsStateAccessPointSSIDChangedBehavior
                0x000784b6       0x1c /home/ncs/CAPSTONE/out/arsdk-native/build/libARCommands/obj/gen/Sources/ARCOMMANDS_Filter.c.o
                0x000784b6                ARCOMMANDS_Filter_SetSkyControllerAccessPointSettingsStateAccessPointSSIDChangedBehavior
 .text.ARCOMMANDS_Filter_SetSkyControllerAccessPointSettingsStateAccessPointChannelChangedBehavior
                0x000784d2       0x1c /home/ncs/CAPSTONE/out/arsdk-native/build/libARCommands/obj/gen/Sources/ARCOMMANDS_Filter.c.o
                0x000784d2                ARCOMMANDS_Filter_SetSkyControllerAccessPointSettingsStateAccessPointChannelChangedBehavior
 .text.ARCOMMANDS_Filter_SetSkyControllerAccessPointSettingsStateWifiSelectionChangedBehavior
                0x000784ee       0x1c /home/ncs/CAPSTONE/out/arsdk-native/build/libARCommands/obj/gen/Sources/ARCOMMANDS_Filter.c.o
                0x000784ee                ARCOMMANDS_Filter_SetSkyControllerAccessPointSettingsStateWifiSelectionChangedBehavior
 .text.ARCOMMANDS_Filter_SetSkyControllerGamepadInfosStateGamepadControlBehavior
                0x0007850a       0x1c /home/ncs/CAPSTONE/out/arsdk-native/build/libARCommands/obj/gen/Sources/ARCOMMANDS_Filter.c.o
                0x0007850a                ARCOMMANDS_Filter_SetSkyControllerGamepadInfosStateGamepadControlBehavior
 .text.ARCOMMANDS_Filter_SetSkyControllerGamepadInfosStateAllGamepadControlsSentBehavior
                0x00078526       0x1c /home/ncs/CAPSTONE/out/arsdk-native/build/libARCommands/obj/gen/Sources/ARCOMMANDS_Filter.c.o
                0x00078526                ARCOMMANDS_Filter_SetSkyControllerGamepadInfosStateAllGamepadControlsSentBehavior
 .text.ARCOMMANDS_Filter_SetSkyControllerButtonMappingsStateCurrentButtonMappingsBehavior
                0x00078542       0x1c /home/ncs/CAPSTONE/out/arsdk-native/build/libARCommands/obj/gen/Sources/ARCOMMANDS_Filter.c.o
                0x00078542                ARCOMMANDS_Filter_SetSkyControllerButtonMappingsStateCurrentButtonMappingsBehavior
 .text.ARCOMMANDS_Filter_SetSkyControllerButtonMappingsStateAllCurrentButtonMappingsSentBehavior
                0x0007855e       0x1c /home/ncs/CAPSTONE/out/arsdk-native/build/libARCommands/obj/gen/Sources/ARCOMMANDS_Filter.c.o
                0x0007855e                ARCOMMANDS_Filter_SetSkyControllerButtonMappingsStateAllCurrentButtonMappingsSentBehavior
 .text.ARCOMMANDS_Filter_SetSkyControllerButtonMappingsStateAvailableButtonMappingsBehavior
                0x0007857a       0x1c /home/ncs/CAPSTONE/out/arsdk-native/build/libARCommands/obj/gen/Sources/ARCOMMANDS_Filter.c.o
                0x0007857a                ARCOMMANDS_Filter_SetSkyControllerButtonMappingsStateAvailableButtonMappingsBehavior
 .text.ARCOMMANDS_Filter_SetSkyControllerButtonMappingsStateAllAvailableButtonsMappingsSentBehavior
                0x00078596       0x1c /home/ncs/CAPSTONE/out/arsdk-native/build/libARCommands/obj/gen/Sources/ARCOMMANDS_Filter.c.o
                0x00078596                ARCOMMANDS_Filter_SetSkyControllerButtonMappingsStateAllAvailableButtonsMappingsSentBehavior
 .text.ARCOMMANDS_Filter_SetSkyControllerAxisMappingsStateCurrentAxisMappingsBehavior
                0x000785b2       0x1c /home/ncs/CAPSTONE/out/arsdk-native/build/libARCommands/obj/gen/Sources/ARCOMMANDS_Filter.c.o
                0x000785b2                ARCOMMANDS_Filter_SetSkyControllerAxisMappingsStateCurrentAxisMappingsBehavior
 .text.ARCOMMANDS_Filter_SetSkyControllerAxisMappingsStateAllCurrentAxisMappingsSentBehavior
                0x000785ce       0x1c /home/ncs/CAPSTONE/out/arsdk-native/build/libARCommands/obj/gen/Sources/ARCOMMANDS_Filter.c.o
                0x000785ce                ARCOMMANDS_Filter_SetSkyControllerAxisMappingsStateAllCurrentAxisMappingsSentBehavior
 .text.ARCOMMANDS_Filter_SetSkyControllerAxisMappingsStateAvailableAxisMappingsBehavior
                0x000785ea       0x1c /home/ncs/CAPSTONE/out/arsdk-native/build/libARCommands/obj/gen/Sources/ARCOMMANDS_Filter.c.o
                0x000785ea                ARCOMMANDS_Filter_SetSkyControllerAxisMappingsStateAvailableAxisMappingsBehavior
 .text.ARCOMMANDS_Filter_SetSkyControllerAxisMappingsStateAllAvailableAxisMappingsSentBehavior
                0x00078606       0x1c /home/ncs/CAPSTONE/out/arsdk-native/build/libARCommands/obj/gen/Sources/ARCOMMANDS_Filter.c.o
                0x00078606                ARCOMMANDS_Filter_SetSkyControllerAxisMappingsStateAllAvailableAxisMappingsSentBehavior
 .text.ARCOMMANDS_Filter_SetSkyControllerAxisFiltersStateCurrentAxisFiltersBehavior
                0x00078622       0x1c /home/ncs/CAPSTONE/out/arsdk-native/build/libARCommands/obj/gen/Sources/ARCOMMANDS_Filter.c.o
                0x00078622                ARCOMMANDS_Filter_SetSkyControllerAxisFiltersStateCurrentAxisFiltersBehavior
 .text.ARCOMMANDS_Filter_SetSkyControllerAxisFiltersStateAllCurrentFiltersSentBehavior
                0x0007863e       0x1c /home/ncs/CAPSTONE/out/arsdk-native/build/libARCommands/obj/gen/Sources/ARCOMMANDS_Filter.c.o
                0x0007863e                ARCOMMANDS_Filter_SetSkyControllerAxisFiltersStateAllCurrentFiltersSentBehavior
 .text.ARCOMMANDS_Filter_SetSkyControllerAxisFiltersStatePresetAxisFiltersBehavior
                0x0007865a       0x1c /home/ncs/CAPSTONE/out/arsdk-native/build/libARCommands/obj/gen/Sources/ARCOMMANDS_Filter.c.o
                0x0007865a                ARCOMMANDS_Filter_SetSkyControllerAxisFiltersStatePresetAxisFiltersBehavior
 .text.ARCOMMANDS_Filter_SetSkyControllerAxisFiltersStateAllPresetFiltersSentBehavior
                0x00078676       0x1c /home/ncs/CAPSTONE/out/arsdk-native/build/libARCommands/obj/gen/Sources/ARCOMMANDS_Filter.c.o
                0x00078676                ARCOMMANDS_Filter_SetSkyControllerAxisFiltersStateAllPresetFiltersSentBehavior
 .text.ARCOMMANDS_Filter_SetSkyControllerCoPilotingStatePilotingSourceBehavior
                0x00078692       0x1c /home/ncs/CAPSTONE/out/arsdk-native/build/libARCommands/obj/gen/Sources/ARCOMMANDS_Filter.c.o
                0x00078692                ARCOMMANDS_Filter_SetSkyControllerCoPilotingStatePilotingSourceBehavior
 .text.ARCOMMANDS_Filter_SetSkyControllerCoPilotingStateBehavior
                0x000786ae        0x4 /home/ncs/CAPSTONE/out/arsdk-native/build/libARCommands/obj/gen/Sources/ARCOMMANDS_Filter.c.o
                0x000786ae                ARCOMMANDS_Filter_SetSkyControllerCoPilotingStateBehavior
 .text.ARCOMMANDS_Filter_SetSkyControllerCalibrationStateMagnetoCalibrationStateBehavior
                0x000786b2       0x1c /home/ncs/CAPSTONE/out/arsdk-native/build/libARCommands/obj/gen/Sources/ARCOMMANDS_Filter.c.o
                0x000786b2                ARCOMMANDS_Filter_SetSkyControllerCalibrationStateMagnetoCalibrationStateBehavior
 .text.ARCOMMANDS_Filter_SetSkyControllerCalibrationStateMagnetoCalibrationQualityUpdatesStateBehavior
                0x000786ce       0x1c /home/ncs/CAPSTONE/out/arsdk-native/build/libARCommands/obj/gen/Sources/ARCOMMANDS_Filter.c.o
                0x000786ce                ARCOMMANDS_Filter_SetSkyControllerCalibrationStateMagnetoCalibrationQualityUpdatesStateBehavior
 .text.ARCOMMANDS_Filter_SetSkyControllerButtonEventsSettingsBehavior
                0x000786ea       0x1c /home/ncs/CAPSTONE/out/arsdk-native/build/libARCommands/obj/gen/Sources/ARCOMMANDS_Filter.c.o
                0x000786ea                ARCOMMANDS_Filter_SetSkyControllerButtonEventsSettingsBehavior
 .text.ARCOMMANDS_Filter_SetSkyControllerButtonEventsBehavior
                0x00078706        0x4 /home/ncs/CAPSTONE/out/arsdk-native/build/libARCommands/obj/gen/Sources/ARCOMMANDS_Filter.c.o
                0x00078706                ARCOMMANDS_Filter_SetSkyControllerButtonEventsBehavior
 .text.ARCOMMANDS_Filter_SetUnknownFeature1Behavior
                0x0007870a       0x74 /home/ncs/CAPSTONE/out/arsdk-native/build/libARCommands/obj/gen/Sources/ARCOMMANDS_Filter.c.o
                0x0007870a                ARCOMMANDS_Filter_SetUnknownFeature1Behavior
 .text.ARCOMMANDS_Filter_SetUnknownFeature1GeographicRunBehavior
                0x0007877e       0x1c /home/ncs/CAPSTONE/out/arsdk-native/build/libARCommands/obj/gen/Sources/ARCOMMANDS_Filter.c.o
                0x0007877e                ARCOMMANDS_Filter_SetUnknownFeature1GeographicRunBehavior
 .text.ARCOMMANDS_Filter_SetUnknownFeature1RelativeRunBehavior
                0x0007879a       0x1c /home/ncs/CAPSTONE/out/arsdk-native/build/libARCommands/obj/gen/Sources/ARCOMMANDS_Filter.c.o
                0x0007879a                ARCOMMANDS_Filter_SetUnknownFeature1RelativeRunBehavior
 .text.ARCOMMANDS_Filter_SetUnknownFeature1LookAtRunBehavior
                0x000787b6       0x1c /home/ncs/CAPSTONE/out/arsdk-native/build/libARCommands/obj/gen/Sources/ARCOMMANDS_Filter.c.o
                0x000787b6                ARCOMMANDS_Filter_SetUnknownFeature1LookAtRunBehavior
 .text.ARCOMMANDS_Filter_SetUnknownFeature1SpiralAnimRunBehavior
                0x000787d2       0x1c /home/ncs/CAPSTONE/out/arsdk-native/build/libARCommands/obj/gen/Sources/ARCOMMANDS_Filter.c.o
                0x000787d2                ARCOMMANDS_Filter_SetUnknownFeature1SpiralAnimRunBehavior
 .text.ARCOMMANDS_Filter_SetUnknownFeature1SwingAnimRunBehavior
                0x000787ee       0x1c /home/ncs/CAPSTONE/out/arsdk-native/build/libARCommands/obj/gen/Sources/ARCOMMANDS_Filter.c.o
                0x000787ee                ARCOMMANDS_Filter_SetUnknownFeature1SwingAnimRunBehavior
 .text.ARCOMMANDS_Filter_SetUnknownFeature1BoomerangAnimRunBehavior
                0x0007880a       0x1c /home/ncs/CAPSTONE/out/arsdk-native/build/libARCommands/obj/gen/Sources/ARCOMMANDS_Filter.c.o
                0x0007880a                ARCOMMANDS_Filter_SetUnknownFeature1BoomerangAnimRunBehavior
 .text.ARCOMMANDS_Filter_SetUnknownFeature1CandleAnimRunBehavior
                0x00078826       0x1c /home/ncs/CAPSTONE/out/arsdk-native/build/libARCommands/obj/gen/Sources/ARCOMMANDS_Filter.c.o
                0x00078826                ARCOMMANDS_Filter_SetUnknownFeature1CandleAnimRunBehavior
 .text.ARCOMMANDS_Filter_SetUnknownFeature1DollySlideAnimRunBehavior
                0x00078842       0x1c /home/ncs/CAPSTONE/out/arsdk-native/build/libARCommands/obj/gen/Sources/ARCOMMANDS_Filter.c.o
                0x00078842                ARCOMMANDS_Filter_SetUnknownFeature1DollySlideAnimRunBehavior
 .text.ARCOMMANDS_Filter_SetUnknownFeature1UserFramingPositionBehavior
                0x0007885e       0x1c /home/ncs/CAPSTONE/out/arsdk-native/build/libARCommands/obj/gen/Sources/ARCOMMANDS_Filter.c.o
                0x0007885e                ARCOMMANDS_Filter_SetUnknownFeature1UserFramingPositionBehavior
 .text.ARCOMMANDS_Filter_SetUnknownFeature1UserGPSDataBehavior
                0x0007887a       0x1c /home/ncs/CAPSTONE/out/arsdk-native/build/libARCommands/obj/gen/Sources/ARCOMMANDS_Filter.c.o
                0x0007887a                ARCOMMANDS_Filter_SetUnknownFeature1UserGPSDataBehavior
 .text.ARCOMMANDS_Filter_SetUnknownFeature1UserBaroDataBehavior
                0x00078896       0x1c /home/ncs/CAPSTONE/out/arsdk-native/build/libARCommands/obj/gen/Sources/ARCOMMANDS_Filter.c.o
                0x00078896                ARCOMMANDS_Filter_SetUnknownFeature1UserBaroDataBehavior
 .text.ARCOMMANDS_Filter_SetUnknownFeature1LynxDetectionBehavior
                0x000788b2       0x1c /home/ncs/CAPSTONE/out/arsdk-native/build/libARCommands/obj/gen/Sources/ARCOMMANDS_Filter.c.o
                0x000788b2                ARCOMMANDS_Filter_SetUnknownFeature1LynxDetectionBehavior
 .text.ARCOMMANDS_Filter_SetUnknownFeature1AvailabilityBehavior
                0x000788ce       0x1c /home/ncs/CAPSTONE/out/arsdk-native/build/libARCommands/obj/gen/Sources/ARCOMMANDS_Filter.c.o
                0x000788ce                ARCOMMANDS_Filter_SetUnknownFeature1AvailabilityBehavior
 .text.ARCOMMANDS_Filter_SetUnknownFeature1RunBehavior
                0x000788ea       0x1c /home/ncs/CAPSTONE/out/arsdk-native/build/libARCommands/obj/gen/Sources/ARCOMMANDS_Filter.c.o
                0x000788ea                ARCOMMANDS_Filter_SetUnknownFeature1RunBehavior
 .text.ARCOMMANDS_Filter_SetUnknownFeature1GeographicConfigChangedBehavior
                0x00078906       0x1c /home/ncs/CAPSTONE/out/arsdk-native/build/libARCommands/obj/gen/Sources/ARCOMMANDS_Filter.c.o
                0x00078906                ARCOMMANDS_Filter_SetUnknownFeature1GeographicConfigChangedBehavior
 .text.ARCOMMANDS_Filter_SetUnknownFeature1RelativeConfigChangedBehavior
                0x00078922       0x1c /home/ncs/CAPSTONE/out/arsdk-native/build/libARCommands/obj/gen/Sources/ARCOMMANDS_Filter.c.o
                0x00078922                ARCOMMANDS_Filter_SetUnknownFeature1RelativeConfigChangedBehavior
 .text.ARCOMMANDS_Filter_SetUnknownFeature1AnimRunBehavior
                0x0007893e       0x1c /home/ncs/CAPSTONE/out/arsdk-native/build/libARCommands/obj/gen/Sources/ARCOMMANDS_Filter.c.o
                0x0007893e                ARCOMMANDS_Filter_SetUnknownFeature1AnimRunBehavior
 .text.ARCOMMANDS_Filter_SetUnknownFeature1SpiralAnimConfigChangedBehavior
                0x0007895a       0x1c /home/ncs/CAPSTONE/out/arsdk-native/build/libARCommands/obj/gen/Sources/ARCOMMANDS_Filter.c.o
                0x0007895a                ARCOMMANDS_Filter_SetUnknownFeature1SpiralAnimConfigChangedBehavior
 .text.ARCOMMANDS_Filter_SetUnknownFeature1SwingAnimConfigChangedBehavior
                0x00078976       0x1c /home/ncs/CAPSTONE/out/arsdk-native/build/libARCommands/obj/gen/Sources/ARCOMMANDS_Filter.c.o
                0x00078976                ARCOMMANDS_Filter_SetUnknownFeature1SwingAnimConfigChangedBehavior
 .text.ARCOMMANDS_Filter_SetUnknownFeature1BoomerangAnimConfigChangedBehavior
                0x00078992       0x1c /home/ncs/CAPSTONE/out/arsdk-native/build/libARCommands/obj/gen/Sources/ARCOMMANDS_Filter.c.o
                0x00078992                ARCOMMANDS_Filter_SetUnknownFeature1BoomerangAnimConfigChangedBehavior
 .text.ARCOMMANDS_Filter_SetUnknownFeature1CandleAnimConfigChangedBehavior
                0x000789ae       0x1c /home/ncs/CAPSTONE/out/arsdk-native/build/libARCommands/obj/gen/Sources/ARCOMMANDS_Filter.c.o
                0x000789ae                ARCOMMANDS_Filter_SetUnknownFeature1CandleAnimConfigChangedBehavior
 .text.ARCOMMANDS_Filter_SetUnknownFeature1DollySlideAnimConfigChangedBehavior
                0x000789ca       0x1c /home/ncs/CAPSTONE/out/arsdk-native/build/libARCommands/obj/gen/Sources/ARCOMMANDS_Filter.c.o
                0x000789ca                ARCOMMANDS_Filter_SetUnknownFeature1DollySlideAnimConfigChangedBehavior
 .text.ARCOMMANDS_Filter_SetUnknownFeature1UserFramingPositionChangedBehavior
                0x000789e6       0x1c /home/ncs/CAPSTONE/out/arsdk-native/build/libARCommands/obj/gen/Sources/ARCOMMANDS_Filter.c.o
                0x000789e6                ARCOMMANDS_Filter_SetUnknownFeature1UserFramingPositionChangedBehavior
 .text.ARCOMMANDS_Filter_SetWifiBehavior
                0x00078a02       0x4c /home/ncs/CAPSTONE/out/arsdk-native/build/libARCommands/obj/gen/Sources/ARCOMMANDS_Filter.c.o
                0x00078a02                ARCOMMANDS_Filter_SetWifiBehavior
 .text.ARCOMMANDS_Filter_SetWifiScanBehavior
                0x00078a4e       0x1c /home/ncs/CAPSTONE/out/arsdk-native/build/libARCommands/obj/gen/Sources/ARCOMMANDS_Filter.c.o
                0x00078a4e                ARCOMMANDS_Filter_SetWifiScanBehavior
 .text.ARCOMMANDS_Filter_SetWifiUpdateAuthorizedChannelsBehavior
                0x00078a6a       0x1c /home/ncs/CAPSTONE/out/arsdk-native/build/libARCommands/obj/gen/Sources/ARCOMMANDS_Filter.c.o
                0x00078a6a                ARCOMMANDS_Filter_SetWifiUpdateAuthorizedChannelsBehavior
 .text.ARCOMMANDS_Filter_SetWifiSetApChannelBehavior
                0x00078a86       0x1c /home/ncs/CAPSTONE/out/arsdk-native/build/libARCommands/obj/gen/Sources/ARCOMMANDS_Filter.c.o
                0x00078a86                ARCOMMANDS_Filter_SetWifiSetApChannelBehavior
 .text.ARCOMMANDS_Filter_SetWifiSetSecurityBehavior
                0x00078aa2       0x1c /home/ncs/CAPSTONE/out/arsdk-native/build/libARCommands/obj/gen/Sources/ARCOMMANDS_Filter.c.o
                0x00078aa2                ARCOMMANDS_Filter_SetWifiSetSecurityBehavior
 .text.ARCOMMANDS_Filter_SetWifiSetCountryBehavior
                0x00078abe       0x1c /home/ncs/CAPSTONE/out/arsdk-native/build/libARCommands/obj/gen/Sources/ARCOMMANDS_Filter.c.o
                0x00078abe                ARCOMMANDS_Filter_SetWifiSetCountryBehavior
 .text.ARCOMMANDS_Filter_SetWifiSetEnvironmentBehavior
                0x00078ada       0x1c /home/ncs/CAPSTONE/out/arsdk-native/build/libARCommands/obj/gen/Sources/ARCOMMANDS_Filter.c.o
                0x00078ada                ARCOMMANDS_Filter_SetWifiSetEnvironmentBehavior
 .text.ARCOMMANDS_Filter_SetWifiScannedItemBehavior
                0x00078af6       0x1c /home/ncs/CAPSTONE/out/arsdk-native/build/libARCommands/obj/gen/Sources/ARCOMMANDS_Filter.c.o
                0x00078af6                ARCOMMANDS_Filter_SetWifiScannedItemBehavior
 .text.ARCOMMANDS_Filter_SetWifiAuthorizedChannelBehavior
                0x00078b12       0x1c /home/ncs/CAPSTONE/out/arsdk-native/build/libARCommands/obj/gen/Sources/ARCOMMANDS_Filter.c.o
                0x00078b12                ARCOMMANDS_Filter_SetWifiAuthorizedChannelBehavior
 .text.ARCOMMANDS_Filter_SetWifiApChannelChangedBehavior
                0x00078b2e       0x1c /home/ncs/CAPSTONE/out/arsdk-native/build/libARCommands/obj/gen/Sources/ARCOMMANDS_Filter.c.o
                0x00078b2e                ARCOMMANDS_Filter_SetWifiApChannelChangedBehavior
 .text.ARCOMMANDS_Filter_SetWifiSecurityChangedBehavior
                0x00078b4a       0x1c /home/ncs/CAPSTONE/out/arsdk-native/build/libARCommands/obj/gen/Sources/ARCOMMANDS_Filter.c.o
                0x00078b4a                ARCOMMANDS_Filter_SetWifiSecurityChangedBehavior
 .text.ARCOMMANDS_Filter_SetWifiCountryChangedBehavior
                0x00078b66       0x1c /home/ncs/CAPSTONE/out/arsdk-native/build/libARCommands/obj/gen/Sources/ARCOMMANDS_Filter.c.o
                0x00078b66                ARCOMMANDS_Filter_SetWifiCountryChangedBehavior
 .text.ARCOMMANDS_Filter_SetWifiEnvironmentChangedBehavior
                0x00078b82       0x1c /home/ncs/CAPSTONE/out/arsdk-native/build/libARCommands/obj/gen/Sources/ARCOMMANDS_Filter.c.o
                0x00078b82                ARCOMMANDS_Filter_SetWifiEnvironmentChangedBehavior
 .text.ARCOMMANDS_Filter_SetWifiRssiChangedBehavior
                0x00078b9e       0x1c /home/ncs/CAPSTONE/out/arsdk-native/build/libARCommands/obj/gen/Sources/ARCOMMANDS_Filter.c.o
                0x00078b9e                ARCOMMANDS_Filter_SetWifiRssiChangedBehavior
 .text.ARCOMMANDS_ReadWrite_AddU8ToBuffer
                0x00078bba       0x12 /home/ncs/CAPSTONE/out/arsdk-native/build/libARCommands/obj/gen/Sources/ARCOMMANDS_ReadWrite.c.o
                0x00078bba                ARCOMMANDS_ReadWrite_AddU8ToBuffer
 .text.ARCOMMANDS_ReadWrite_AddU16ToBuffer
                0x00078bcc       0x40 /home/ncs/CAPSTONE/out/arsdk-native/build/libARCommands/obj/gen/Sources/ARCOMMANDS_ReadWrite.c.o
                0x00078bcc                ARCOMMANDS_ReadWrite_AddU16ToBuffer
 .text.ARCOMMANDS_ReadWrite_AddU32ToBuffer
                0x00078c0c       0x38 /home/ncs/CAPSTONE/out/arsdk-native/build/libARCommands/obj/gen/Sources/ARCOMMANDS_ReadWrite.c.o
                0x00078c0c                ARCOMMANDS_ReadWrite_AddU32ToBuffer
 .text.ARCOMMANDS_ReadWrite_AddU64ToBuffer
                0x00078c44       0x54 /home/ncs/CAPSTONE/out/arsdk-native/build/libARCommands/obj/gen/Sources/ARCOMMANDS_ReadWrite.c.o
                0x00078c44                ARCOMMANDS_ReadWrite_AddU64ToBuffer
 .text.ARCOMMANDS_ReadWrite_AddStringToBuffer
                0x00078c98       0x24 /home/ncs/CAPSTONE/out/arsdk-native/build/libARCommands/obj/gen/Sources/ARCOMMANDS_ReadWrite.c.o
                0x00078c98                ARCOMMANDS_ReadWrite_AddStringToBuffer
 .text.ARCOMMANDS_ReadWrite_AddFloatToBuffer
                0x00078cbc        0xc /home/ncs/CAPSTONE/out/arsdk-native/build/libARCommands/obj/gen/Sources/ARCOMMANDS_ReadWrite.c.o
                0x00078cbc                ARCOMMANDS_ReadWrite_AddFloatToBuffer
 .text.ARCOMMANDS_ReadWrite_AddDoubleToBuffer
                0x00078cc8       0x18 /home/ncs/CAPSTONE/out/arsdk-native/build/libARCommands/obj/gen/Sources/ARCOMMANDS_ReadWrite.c.o
                0x00078cc8                ARCOMMANDS_ReadWrite_AddDoubleToBuffer
 .text.ARCOMMANDS_ReadWrite_Read8FromBuffer
                0x00078ce0       0x1e /home/ncs/CAPSTONE/out/arsdk-native/build/libARCommands/obj/gen/Sources/ARCOMMANDS_ReadWrite.c.o
                0x00078ce0                ARCOMMANDS_ReadWrite_Read8FromBuffer
 *fill*         0x00078cfe        0x2 
 .text.ARCOMMANDS_ReadWrite_Read16FromBuffer
                0x00078d00       0x4c /home/ncs/CAPSTONE/out/arsdk-native/build/libARCommands/obj/gen/Sources/ARCOMMANDS_ReadWrite.c.o
                0x00078d00                ARCOMMANDS_ReadWrite_Read16FromBuffer
 .text.ARCOMMANDS_ReadWrite_Read32FromBuffer
                0x00078d4c       0x48 /home/ncs/CAPSTONE/out/arsdk-native/build/libARCommands/obj/gen/Sources/ARCOMMANDS_ReadWrite.c.o
                0x00078d4c                ARCOMMANDS_ReadWrite_Read32FromBuffer
 .text.ARCOMMANDS_ReadWrite_Read64FromBuffer
                0x00078d94       0x54 /home/ncs/CAPSTONE/out/arsdk-native/build/libARCommands/obj/gen/Sources/ARCOMMANDS_ReadWrite.c.o
                0x00078d94                ARCOMMANDS_ReadWrite_Read64FromBuffer
 .text.ARCOMMANDS_ReadWrite_ReadFloatFromBuffer
                0x00078de8       0x44 /home/ncs/CAPSTONE/out/arsdk-native/build/libARCommands/obj/gen/Sources/ARCOMMANDS_ReadWrite.c.o
                0x00078de8                ARCOMMANDS_ReadWrite_ReadFloatFromBuffer
 .text.ARCOMMANDS_ReadWrite_ReadDoubleFromBuffer
                0x00078e2c       0x54 /home/ncs/CAPSTONE/out/arsdk-native/build/libARCommands/obj/gen/Sources/ARCOMMANDS_ReadWrite.c.o
                0x00078e2c                ARCOMMANDS_ReadWrite_ReadDoubleFromBuffer
 .text.ARCOMMANDS_ReadWrite_ReadStringFromBuffer
                0x00078e80       0x22 /home/ncs/CAPSTONE/out/arsdk-native/build/libARCommands/obj/gen/Sources/ARCOMMANDS_ReadWrite.c.o
                0x00078e80                ARCOMMANDS_ReadWrite_ReadStringFromBuffer
 .text.ARCOMMANDS_ReadWrite_WriteString
                0x00078ea2       0x30 /home/ncs/CAPSTONE/out/arsdk-native/build/libARCommands/obj/gen/Sources/ARCOMMANDS_ReadWrite.c.o
                0x00078ea2                ARCOMMANDS_ReadWrite_WriteString
 *fill*         0x00078ed2        0x2 
 .text.ARCOMMANDS_ReadWrite_PrintU8
                0x00078ed4       0x44 /home/ncs/CAPSTONE/out/arsdk-native/build/libARCommands/obj/gen/Sources/ARCOMMANDS_ReadWrite.c.o
                0x00078ed4                ARCOMMANDS_ReadWrite_PrintU8
 .text.ARCOMMANDS_ReadWrite_PrintI8
                0x00078f18       0x44 /home/ncs/CAPSTONE/out/arsdk-native/build/libARCommands/obj/gen/Sources/ARCOMMANDS_ReadWrite.c.o
                0x00078f18                ARCOMMANDS_ReadWrite_PrintI8
 .text.ARCOMMANDS_ReadWrite_PrintU16
                0x00078f5c       0x44 /home/ncs/CAPSTONE/out/arsdk-native/build/libARCommands/obj/gen/Sources/ARCOMMANDS_ReadWrite.c.o
                0x00078f5c                ARCOMMANDS_ReadWrite_PrintU16
 .text.ARCOMMANDS_ReadWrite_PrintI16
                0x00078fa0       0x44 /home/ncs/CAPSTONE/out/arsdk-native/build/libARCommands/obj/gen/Sources/ARCOMMANDS_ReadWrite.c.o
                0x00078fa0                ARCOMMANDS_ReadWrite_PrintI16
 .text.ARCOMMANDS_ReadWrite_PrintU32
                0x00078fe4       0x44 /home/ncs/CAPSTONE/out/arsdk-native/build/libARCommands/obj/gen/Sources/ARCOMMANDS_ReadWrite.c.o
                0x00078fe4                ARCOMMANDS_ReadWrite_PrintU32
 .text.ARCOMMANDS_ReadWrite_PrintI32
                0x00079028       0x44 /home/ncs/CAPSTONE/out/arsdk-native/build/libARCommands/obj/gen/Sources/ARCOMMANDS_ReadWrite.c.o
                0x00079028                ARCOMMANDS_ReadWrite_PrintI32
 .text.ARCOMMANDS_ReadWrite_PrintU64
                0x0007906c       0x50 /home/ncs/CAPSTONE/out/arsdk-native/build/libARCommands/obj/gen/Sources/ARCOMMANDS_ReadWrite.c.o
                0x0007906c                ARCOMMANDS_ReadWrite_PrintU64
 .text.ARCOMMANDS_ReadWrite_PrintFloat
                0x000790bc       0x50 /home/ncs/CAPSTONE/out/arsdk-native/build/libARCommands/obj/gen/Sources/ARCOMMANDS_ReadWrite.c.o
                0x000790bc                ARCOMMANDS_ReadWrite_PrintFloat
 .text.ARCOMMANDS_ReadWrite_PrintDouble
                0x0007910c       0x4c /home/ncs/CAPSTONE/out/arsdk-native/build/libARCommands/obj/gen/Sources/ARCOMMANDS_ReadWrite.c.o
                0x0007910c                ARCOMMANDS_ReadWrite_PrintDouble
 .text.ARCOMMANDS_ReadWrite_PrintString
                0x00079158       0x26 /home/ncs/CAPSTONE/out/arsdk-native/build/libARCommands/obj/gen/Sources/ARCOMMANDS_ReadWrite.c.o
                0x00079158                ARCOMMANDS_ReadWrite_PrintString
 *fill*         0x0007917e        0x2 
 .text.ARCOMMANDS_ReadWrite_PrintString.__stub
                0x00079180        0x4 linker stubs
 *(.gnu.warning)
 *(.glue_7t)
 .glue_7t       0x00079184        0x0 linker stubs
 *(.glue_7)
 .glue_7        0x00079184        0x0 linker stubs
 *(.vfp11_veneer)
 .vfp11_veneer  0x00079184        0x0 linker stubs
 *(.v4_bx)
 .v4_bx         0x00079184        0x0 linker stubs

.fini           0x00079184        0x8
 *(SORT(.fini))
 .fini          0x00079184        0x4 /usr/lib/gcc/arm-linux-gnueabihf/5/../../../arm-linux-gnueabihf/crti.o
                0x00079184                _fini
 .fini          0x00079188        0x4 /usr/lib/gcc/arm-linux-gnueabihf/5/../../../arm-linux-gnueabihf/crtn.o
                [!provide]                PROVIDE (__etext, .)
                [!provide]                PROVIDE (_etext, .)
                [!provide]                PROVIDE (etext, .)

.rodata         0x0007918c     0x805e
 *(.rodata .rodata.* .gnu.linkonce.r.*)
 .rodata.str1.1
                0x0007918c        0xc /home/ncs/CAPSTONE/out/arsdk-native/build/libARCommands/obj/Sources/ARCOMMANDS_Version.c.o
 .rodata.str1.1
                0x00079198     0x8044 /home/ncs/CAPSTONE/out/arsdk-native/build/libARCommands/obj/gen/Sources/ARCOMMANDS_Decoder.c.o
                               0x805f (size before relaxing)
 .rodata.str1.1
                0x000811dc        0xe /home/ncs/CAPSTONE/out/arsdk-native/build/libARCommands/obj/gen/Sources/ARCOMMANDS_ReadWrite.c.o

.rodata1
 *(.rodata1)

.ARM.extab
 *(.ARM.extab* .gnu.linkonce.armextab.*)
                [!provide]                PROVIDE (__exidx_start, .)

.ARM.exidx
 *(.ARM.exidx* .gnu.linkonce.armexidx.*)
                [!provide]                PROVIDE (__exidx_end, .)

.eh_frame_hdr
 *(.eh_frame_hdr)
 *(.eh_frame_entry .eh_frame_entry.*)

.eh_frame       0x000811ec        0x4
 *(.eh_frame)
 .eh_frame      0x000811ec        0x4 /usr/lib/gcc/arm-linux-gnueabihf/5/crtendS.o
 *(.eh_frame.*)

.gcc_except_table
 *(.gcc_except_table .gcc_except_table.*)

.gnu_extab
 *(.gnu_extab*)

.exception_ranges
 *(.exception_ranges .exception_ranges*)
                0x00091efc                . = DATA_SEGMENT_ALIGN (0x10000, 0x1000)

.eh_frame
 *(.eh_frame)
 *(.eh_frame.*)

.gnu_extab
 *(.gnu_extab)

.gcc_except_table
 *(.gcc_except_table .gcc_except_table.*)

.exception_ranges
 *(.exception_ranges .exception_ranges*)

.tdata
 *(.tdata .tdata.* .gnu.linkonce.td.*)

.tbss
 *(.tbss .tbss.* .gnu.linkonce.tb.*)
 *(.tcommon)

.preinit_array
 *(.preinit_array)

.init_array     0x00091efc        0x4
 *(SORT(.init_array.*) SORT(.ctors.*))
 *(.init_array EXCLUDE_FILE(*crtend?.o *crtend.o *crtbegin?.o *crtbegin.o) .ctors)
 .init_array    0x00091efc        0x4 /usr/lib/gcc/arm-linux-gnueabihf/5/crtbeginS.o

.fini_array     0x00091f00        0x4
 *(SORT(.fini_array.*) SORT(.dtors.*))
 *(.fini_array EXCLUDE_FILE(*crtend?.o *crtend.o *crtbegin?.o *crtbegin.o) .dtors)
 .fini_array    0x00091f00        0x4 /usr/lib/gcc/arm-linux-gnueabihf/5/crtbeginS.o

.ctors
 *crtbegin.o(.ctors)
 *crtbegin?.o(.ctors)
 *(EXCLUDE_FILE(*crtend?.o *crtend.o) .ctors)
 *(SORT(.ctors.*))
 *(.ctors)

.dtors
 *crtbegin.o(.dtors)
 *crtbegin?.o(.dtors)
 *(EXCLUDE_FILE(*crtend?.o *crtend.o) .dtors)
 *(SORT(.dtors.*))
 *(.dtors)

.jcr            0x00091f04        0x4
 *(.jcr)
 .jcr           0x00091f04        0x0 /usr/lib/gcc/arm-linux-gnueabihf/5/crtbeginS.o
 .jcr           0x00091f04        0x4 /usr/lib/gcc/arm-linux-gnueabihf/5/crtendS.o

.data.rel.ro
 *(.data.rel.ro.local* .gnu.linkonce.d.rel.ro.local.*)
 *(.data.rel.ro .data.rel.ro.* .gnu.linkonce.d.rel.ro.*)

.dynamic        0x00091f08       0xf8
 *(.dynamic)
 .dynamic       0x00091f08       0xf8 /usr/lib/gcc/arm-linux-gnueabihf/5/../../../arm-linux-gnueabihf/crti.o
                0x00091f08                _DYNAMIC
                0x00092000                . = DATA_SEGMENT_RELRO_END (., 0x0)

.got            0x00092000       0xcc
 *(.got.plt)
 .got.plt       0x00092000       0xb4 /usr/lib/gcc/arm-linux-gnueabihf/5/../../../arm-linux-gnueabihf/crti.o
                0x00092000                _GLOBAL_OFFSET_TABLE_
 *(.igot.plt)
 .igot.plt      0x000920b4        0x0 /usr/lib/gcc/arm-linux-gnueabihf/5/../../../arm-linux-gnueabihf/crti.o
 *(.got)
 .got           0x000920b4       0x18 /usr/lib/gcc/arm-linux-gnueabihf/5/../../../arm-linux-gnueabihf/crti.o
 *(.igot)

.data           0x000920cc        0x4
                [!provide]                PROVIDE (__data_start, .)
 *(.data .data.* .gnu.linkonce.d.*)
 .data.rel.local
                0x000920cc        0x4 /usr/lib/gcc/arm-linux-gnueabihf/5/crtbeginS.o
                0x000920cc                __dso_handle

.tm_clone_table
                0x000920d0        0x0
 .tm_clone_table
                0x000920d0        0x0 /usr/lib/gcc/arm-linux-gnueabihf/5/crtbeginS.o
 .tm_clone_table
                0x000920d0        0x0 /usr/lib/gcc/arm-linux-gnueabihf/5/crtendS.o

.data1
 *(.data1)
                0x000920d0                _edata = .
                [!provide]                PROVIDE (edata, .)
                0x000920d0                . = .
                0x000920d0                __bss_start = .
                0x000920d0                __bss_start__ = .

.bss            0x000920d0     0x100c
 *(.dynbss)
 .dynbss        0x000920d0        0x0 /usr/lib/gcc/arm-linux-gnueabihf/5/../../../arm-linux-gnueabihf/crti.o
 *(.bss .bss.* .gnu.linkonce.b.*)
 .bss           0x000920d0        0x1 /usr/lib/gcc/arm-linux-gnueabihf/5/crtbeginS.o
 *fill*         0x000920d1        0x3 
 .bss           0x000920d4     0x1008 /home/ncs/CAPSTONE/out/arsdk-native/build/libARCommands/obj/gen/Sources/ARCOMMANDS_Decoder.c.o
 *(COMMON)
                0x000930dc                . = ALIGN ((. != 0x0)?0x4:0x1)
                0x000930dc                _bss_end__ = .
                0x000930dc                __bss_end__ = .
                0x000930dc                . = ALIGN (0x4)
                0x000930dc                . = SEGMENT_START ("ldata-segment", .)
                0x000930dc                . = ALIGN (0x4)
                0x000930dc                __end__ = .
                0x000930dc                _end = .
                [!provide]                PROVIDE (end, .)
                0x000930dc                . = DATA_SEGMENT_END (.)

.stab
 *(.stab)

.stabstr
 *(.stabstr)

.stab.excl
 *(.stab.excl)

.stab.exclstr
 *(.stab.exclstr)

.stab.index
 *(.stab.index)

.stab.indexstr
 *(.stab.indexstr)

.comment        0x00000000       0x3b
 *(.comment)
 .comment       0x00000000       0x3b /usr/lib/gcc/arm-linux-gnueabihf/5/crtbeginS.o
                                 0x3c (size before relaxing)
 .comment       0x0000003b       0x3c /home/ncs/CAPSTONE/out/arsdk-native/build/libARCommands/obj/Sources/ARCOMMANDS_Version.c.o
 .comment       0x0000003b       0x3c /home/ncs/CAPSTONE/out/arsdk-native/build/libARCommands/obj/gen/Sources/ARCOMMANDS_Generator.c.o
 .comment       0x0000003b       0x3c /home/ncs/CAPSTONE/out/arsdk-native/build/libARCommands/obj/gen/Sources/ARCOMMANDS_Decoder.c.o
 .comment       0x0000003b       0x3c /home/ncs/CAPSTONE/out/arsdk-native/build/libARCommands/obj/gen/Sources/ARCOMMANDS_Filter.c.o
 .comment       0x0000003b       0x3c /home/ncs/CAPSTONE/out/arsdk-native/build/libARCommands/obj/gen/Sources/ARCOMMANDS_ReadWrite.c.o
 .comment       0x0000003b       0x3c /usr/lib/gcc/arm-linux-gnueabihf/5/crtendS.o

.ARM.attributes
                0x00000000       0x31
 .ARM.attributes
                0x00000000       0x27 /usr/lib/gcc/arm-linux-gnueabihf/5/../../../arm-linux-gnueabihf/crti.o
 .ARM.attributes
                0x00000027       0x33 /usr/lib/gcc/arm-linux-gnueabihf/5/crtbeginS.o
 .ARM.attributes
                0x0000005a       0x33 /home/ncs/CAPSTONE/out/arsdk-native/build/libARCommands/obj/Sources/ARCOMMANDS_Version.c.o
 .ARM.attributes
                0x0000008d       0x33 /home/ncs/CAPSTONE/out/arsdk-native/build/libARCommands/obj/gen/Sources/ARCOMMANDS_Generator.c.o
 .ARM.attributes
                0x000000c0       0x33 /home/ncs/CAPSTONE/out/arsdk-native/build/libARCommands/obj/gen/Sources/ARCOMMANDS_Decoder.c.o
 .ARM.attributes
                0x000000f3       0x33 /home/ncs/CAPSTONE/out/arsdk-native/build/libARCommands/obj/gen/Sources/ARCOMMANDS_Filter.c.o
 .ARM.attributes
                0x00000126       0x33 /home/ncs/CAPSTONE/out/arsdk-native/build/libARCommands/obj/gen/Sources/ARCOMMANDS_ReadWrite.c.o
 .ARM.attributes
                0x00000159       0x33 /usr/lib/gcc/arm-linux-gnueabihf/5/crtendS.o
 .ARM.attributes
                0x0000018c       0x27 /usr/lib/gcc/arm-linux-gnueabihf/5/../../../arm-linux-gnueabihf/crtn.o

.debug
 *(.debug)

.line
 *(.line)

.debug_srcinfo
 *(.debug_srcinfo)

.debug_sfnames
 *(.debug_sfnames)

.debug_aranges  0x00000000     0x4500
 *(.debug_aranges)
 .debug_aranges
                0x00000000       0x28 /home/ncs/CAPSTONE/out/arsdk-native/build/libARCommands/obj/Sources/ARCOMMANDS_Version.c.o
 .debug_aranges
                0x00000028     0x1018 /home/ncs/CAPSTONE/out/arsdk-native/build/libARCommands/obj/gen/Sources/ARCOMMANDS_Generator.c.o
 .debug_aranges
                0x00001040     0x2048 /home/ncs/CAPSTONE/out/arsdk-native/build/libARCommands/obj/gen/Sources/ARCOMMANDS_Decoder.c.o
 .debug_aranges
                0x00003088     0x1398 /home/ncs/CAPSTONE/out/arsdk-native/build/libARCommands/obj/gen/Sources/ARCOMMANDS_Filter.c.o
 .debug_aranges
                0x00004420       0xe0 /home/ncs/CAPSTONE/out/arsdk-native/build/libARCommands/obj/gen/Sources/ARCOMMANDS_ReadWrite.c.o

.debug_pubnames
 *(.debug_pubnames)

.debug_info     0x00000000    0x90986
 *(.debug_info .gnu.linkonce.wi.*)
 .debug_info    0x00000000      0x256 /home/ncs/CAPSTONE/out/arsdk-native/build/libARCommands/obj/Sources/ARCOMMANDS_Version.c.o
 .debug_info    0x00000256    0x2802a /home/ncs/CAPSTONE/out/arsdk-native/build/libARCommands/obj/gen/Sources/ARCOMMANDS_Generator.c.o
 .debug_info    0x00028280    0x586e6 /home/ncs/CAPSTONE/out/arsdk-native/build/libARCommands/obj/gen/Sources/ARCOMMANDS_Decoder.c.o
 .debug_info    0x00080966     0xe7fe /home/ncs/CAPSTONE/out/arsdk-native/build/libARCommands/obj/gen/Sources/ARCOMMANDS_Filter.c.o
 .debug_info    0x0008f164     0x1822 /home/ncs/CAPSTONE/out/arsdk-native/build/libARCommands/obj/gen/Sources/ARCOMMANDS_ReadWrite.c.o

.debug_abbrev   0x00000000      0x862
 *(.debug_abbrev)
 .debug_abbrev  0x00000000       0xd6 /home/ncs/CAPSTONE/out/arsdk-native/build/libARCommands/obj/Sources/ARCOMMANDS_Version.c.o
 .debug_abbrev  0x000000d6      0x151 /home/ncs/CAPSTONE/out/arsdk-native/build/libARCommands/obj/gen/Sources/ARCOMMANDS_Generator.c.o
 .debug_abbrev  0x00000227      0x237 /home/ncs/CAPSTONE/out/arsdk-native/build/libARCommands/obj/gen/Sources/ARCOMMANDS_Decoder.c.o
 .debug_abbrev  0x0000045e      0x182 /home/ncs/CAPSTONE/out/arsdk-native/build/libARCommands/obj/gen/Sources/ARCOMMANDS_Filter.c.o
 .debug_abbrev  0x000005e0      0x282 /home/ncs/CAPSTONE/out/arsdk-native/build/libARCommands/obj/gen/Sources/ARCOMMANDS_ReadWrite.c.o

.debug_line     0x00000000    0x185c5
 *(.debug_line .debug_line.* .debug_line_end)
 .debug_line    0x00000000       0xa4 /home/ncs/CAPSTONE/out/arsdk-native/build/libARCommands/obj/Sources/ARCOMMANDS_Version.c.o
 .debug_line    0x000000a4     0x6bb2 /home/ncs/CAPSTONE/out/arsdk-native/build/libARCommands/obj/gen/Sources/ARCOMMANDS_Generator.c.o
 .debug_line    0x00006c56     0xcab7 /home/ncs/CAPSTONE/out/arsdk-native/build/libARCommands/obj/gen/Sources/ARCOMMANDS_Decoder.c.o
 .debug_line    0x0001370d     0x4974 /home/ncs/CAPSTONE/out/arsdk-native/build/libARCommands/obj/gen/Sources/ARCOMMANDS_Filter.c.o
 .debug_line    0x00018081      0x544 /home/ncs/CAPSTONE/out/arsdk-native/build/libARCommands/obj/gen/Sources/ARCOMMANDS_ReadWrite.c.o

.debug_frame    0x00000000    0x11d34
 *(.debug_frame)
 .debug_frame   0x00000000       0x50 /home/ncs/CAPSTONE/out/arsdk-native/build/libARCommands/obj/Sources/ARCOMMANDS_Version.c.o
 .debug_frame   0x00000050     0x4620 /home/ncs/CAPSTONE/out/arsdk-native/build/libARCommands/obj/gen/Sources/ARCOMMANDS_Generator.c.o
 .debug_frame   0x00004670     0xa900 /home/ncs/CAPSTONE/out/arsdk-native/build/libARCommands/obj/gen/Sources/ARCOMMANDS_Decoder.c.o
 .debug_frame   0x0000ef70     0x2a84 /home/ncs/CAPSTONE/out/arsdk-native/build/libARCommands/obj/gen/Sources/ARCOMMANDS_Filter.c.o
 .debug_frame   0x000119f4      0x340 /home/ncs/CAPSTONE/out/arsdk-native/build/libARCommands/obj/gen/Sources/ARCOMMANDS_ReadWrite.c.o

.debug_str      0x00000000    0x5c71a
 *(.debug_str)
 .debug_str     0x00000000      0x214 /home/ncs/CAPSTONE/out/arsdk-native/build/libARCommands/obj/Sources/ARCOMMANDS_Version.c.o
                                0x254 (size before relaxing)
 .debug_str     0x00000214    0x244d7 /home/ncs/CAPSTONE/out/arsdk-native/build/libARCommands/obj/gen/Sources/ARCOMMANDS_Generator.c.o
                              0x24727 (size before relaxing)
 .debug_str     0x000246eb    0x28050 /home/ncs/CAPSTONE/out/arsdk-native/build/libARCommands/obj/gen/Sources/ARCOMMANDS_Decoder.c.o
                              0x4f30f (size before relaxing)
 .debug_str     0x0004c73b     0xfeb2 /home/ncs/CAPSTONE/out/arsdk-native/build/libARCommands/obj/gen/Sources/ARCOMMANDS_Filter.c.o
                              0x18f95 (size before relaxing)
 .debug_str     0x0005c5ed      0x12d /home/ncs/CAPSTONE/out/arsdk-native/build/libARCommands/obj/gen/Sources/ARCOMMANDS_ReadWrite.c.o
                                0x6e0 (size before relaxing)

.debug_loc      0x00000000    0xb08cc
 *(.debug_loc)
 .debug_loc     0x00000000       0xe2 /home/ncs/CAPSTONE/out/arsdk-native/build/libARCommands/obj/Sources/ARCOMMANDS_Version.c.o
 .debug_loc     0x000000e2    0x3884c /home/ncs/CAPSTONE/out/arsdk-native/build/libARCommands/obj/gen/Sources/ARCOMMANDS_Generator.c.o
 .debug_loc     0x0003892e    0x5d30f /home/ncs/CAPSTONE/out/arsdk-native/build/libARCommands/obj/gen/Sources/ARCOMMANDS_Decoder.c.o
 .debug_loc     0x00095c3d    0x18d41 /home/ncs/CAPSTONE/out/arsdk-native/build/libARCommands/obj/gen/Sources/ARCOMMANDS_Filter.c.o
 .debug_loc     0x000ae97e     0x1f4e /home/ncs/CAPSTONE/out/arsdk-native/build/libARCommands/obj/gen/Sources/ARCOMMANDS_ReadWrite.c.o

.debug_macinfo
 *(.debug_macinfo)

.debug_weaknames
 *(.debug_weaknames)

.debug_funcnames
 *(.debug_funcnames)

.debug_typenames
 *(.debug_typenames)

.debug_varnames
 *(.debug_varnames)

.debug_pubtypes
 *(.debug_pubtypes)

.debug_ranges   0x00000000     0xb430
 *(.debug_ranges)
 .debug_ranges  0x00000000       0x18 /home/ncs/CAPSTONE/out/arsdk-native/build/libARCommands/obj/Sources/ARCOMMANDS_Version.c.o
 .debug_ranges  0x00000018     0x1008 /home/ncs/CAPSTONE/out/arsdk-native/build/libARCommands/obj/gen/Sources/ARCOMMANDS_Generator.c.o
 .debug_ranges  0x00001020     0x8dd0 /home/ncs/CAPSTONE/out/arsdk-native/build/libARCommands/obj/gen/Sources/ARCOMMANDS_Decoder.c.o
 .debug_ranges  0x00009df0     0x1388 /home/ncs/CAPSTONE/out/arsdk-native/build/libARCommands/obj/gen/Sources/ARCOMMANDS_Filter.c.o
 .debug_ranges  0x0000b178      0x2b8 /home/ncs/CAPSTONE/out/arsdk-native/build/libARCommands/obj/gen/Sources/ARCOMMANDS_ReadWrite.c.o

.debug_macro
 *(.debug_macro)

.gnu.attributes
 *(.gnu.attributes)

.note.gnu.arm.ident
 *(.note.gnu.arm.ident)

/DISCARD/
 *(.note.GNU-stack)
 *(.gnu_debuglink)
 *(.gnu.lto_*)
OUTPUT(out/arsdk-native/build/libARCommands/libarcommands.so elf32-littlearm)
