Archive member included to satisfy reference by file (symbol)

/usr/lib/arm-linux-gnueabihf/libc_nonshared.a(stat.oS)
                              /home/ncs/CAPSTONE/out/arsdk-native/build/libARUtils/obj/Sources/ARUTILS_FileSystem.c.o (stat)

As-needed library included to satisfy reference by file (symbol)

libarsal.so                   /home/ncs/CAPSTONE/out/arsdk-native/build/libARUtils/obj/Sources/ARUTILS_FileSystem.c.o (ARSAL_Nftw)
libmux.so                     /home/ncs/CAPSTONE/out/arsdk-native/build/libARUtils/obj/Sources/ARUTILS_WifiFtp.c.o (mux_channel_open_ftp)
libcurl.so                    /home/ncs/CAPSTONE/out/arsdk-native/build/libARUtils/obj/Sources/ARUTILS_Http.c.o (curl_easy_cleanup)
libgcc_s.so.1                 /home/ncs/CAPSTONE/out/arsdk-native/build/libARUtils/obj/Sources/ARUTILS_FileSystem.c.o (__aeabi_idiv@@GCC_3.5)
libpthread.so.0               /home/ncs/CAPSTONE/out/arsdk-native/build/libARUtils/obj/Sources/ARUTILS_Http.c.o (close@@GLIBC_2.4)
libc.so.6                     /home/ncs/CAPSTONE/out/arsdk-native/build/libARUtils/obj/Sources/ARUTILS_Http.c.o (socket@@GLIBC_2.4)
ld-linux-armhf.so.3           /home/ncs/CAPSTONE/out/arsdk-native/build/libARUtils/obj/Sources/ARUTILS_FileSystem.c.o (__stack_chk_guard@@GLIBC_2.4)

Discarded input sections

 .data          0x00000000        0x0 /usr/lib/gcc/arm-linux-gnueabihf/5/../../../arm-linux-gnueabihf/crti.o
 .bss           0x00000000        0x0 /usr/lib/gcc/arm-linux-gnueabihf/5/../../../arm-linux-gnueabihf/crti.o
 .note.GNU-stack
                0x00000000        0x0 /usr/lib/gcc/arm-linux-gnueabihf/5/../../../arm-linux-gnueabihf/crti.o
 .data          0x00000000        0x0 /usr/lib/gcc/arm-linux-gnueabihf/5/crtbeginS.o
 .note.GNU-stack
                0x00000000        0x0 /usr/lib/gcc/arm-linux-gnueabihf/5/crtbeginS.o
 .text          0x00000000        0x0 /home/ncs/CAPSTONE/out/arsdk-native/build/libARUtils/obj/Sources/ARUTILS_FileSystem.c.o
 .data          0x00000000        0x0 /home/ncs/CAPSTONE/out/arsdk-native/build/libARUtils/obj/Sources/ARUTILS_FileSystem.c.o
 .bss           0x00000000        0x0 /home/ncs/CAPSTONE/out/arsdk-native/build/libARUtils/obj/Sources/ARUTILS_FileSystem.c.o
 .note.GNU-stack
                0x00000000        0x0 /home/ncs/CAPSTONE/out/arsdk-native/build/libARUtils/obj/Sources/ARUTILS_FileSystem.c.o
 .text          0x00000000        0x0 /home/ncs/CAPSTONE/out/arsdk-native/build/libARUtils/obj/Sources/ARUTILS_Http.c.o
 .data          0x00000000        0x0 /home/ncs/CAPSTONE/out/arsdk-native/build/libARUtils/obj/Sources/ARUTILS_Http.c.o
 .bss           0x00000000        0x0 /home/ncs/CAPSTONE/out/arsdk-native/build/libARUtils/obj/Sources/ARUTILS_Http.c.o
 .note.GNU-stack
                0x00000000        0x0 /home/ncs/CAPSTONE/out/arsdk-native/build/libARUtils/obj/Sources/ARUTILS_Http.c.o
 .text          0x00000000        0x0 /home/ncs/CAPSTONE/out/arsdk-native/build/libARUtils/obj/Sources/ARUTILS_Manager.c.o
 .data          0x00000000        0x0 /home/ncs/CAPSTONE/out/arsdk-native/build/libARUtils/obj/Sources/ARUTILS_Manager.c.o
 .bss           0x00000000        0x0 /home/ncs/CAPSTONE/out/arsdk-native/build/libARUtils/obj/Sources/ARUTILS_Manager.c.o
 .note.GNU-stack
                0x00000000        0x0 /home/ncs/CAPSTONE/out/arsdk-native/build/libARUtils/obj/Sources/ARUTILS_Manager.c.o
 .text          0x00000000        0x0 /home/ncs/CAPSTONE/out/arsdk-native/build/libARUtils/obj/Sources/ARUTILS_WifiFtp.c.o
 .data          0x00000000        0x0 /home/ncs/CAPSTONE/out/arsdk-native/build/libARUtils/obj/Sources/ARUTILS_WifiFtp.c.o
 .bss           0x00000000        0x0 /home/ncs/CAPSTONE/out/arsdk-native/build/libARUtils/obj/Sources/ARUTILS_WifiFtp.c.o
 .note.GNU-stack
                0x00000000        0x0 /home/ncs/CAPSTONE/out/arsdk-native/build/libARUtils/obj/Sources/ARUTILS_WifiFtp.c.o
 .text          0x00000000        0x0 /home/ncs/CAPSTONE/out/arsdk-native/build/libARUtils/obj/gen/Sources/ARUTILS_Error.c.o
 .data          0x00000000        0x0 /home/ncs/CAPSTONE/out/arsdk-native/build/libARUtils/obj/gen/Sources/ARUTILS_Error.c.o
 .bss           0x00000000        0x0 /home/ncs/CAPSTONE/out/arsdk-native/build/libARUtils/obj/gen/Sources/ARUTILS_Error.c.o
 .note.GNU-stack
                0x00000000        0x0 /home/ncs/CAPSTONE/out/arsdk-native/build/libARUtils/obj/gen/Sources/ARUTILS_Error.c.o
 .data          0x00000000        0x0 /usr/lib/arm-linux-gnueabihf/libc_nonshared.a(stat.oS)
 .bss           0x00000000        0x0 /usr/lib/arm-linux-gnueabihf/libc_nonshared.a(stat.oS)
 .note.GNU-stack
                0x00000000        0x0 /usr/lib/arm-linux-gnueabihf/libc_nonshared.a(stat.oS)
 .text          0x00000000        0x0 /usr/lib/gcc/arm-linux-gnueabihf/5/crtendS.o
 .data          0x00000000        0x0 /usr/lib/gcc/arm-linux-gnueabihf/5/crtendS.o
 .bss           0x00000000        0x0 /usr/lib/gcc/arm-linux-gnueabihf/5/crtendS.o
 .note.GNU-stack
                0x00000000        0x0 /usr/lib/gcc/arm-linux-gnueabihf/5/crtendS.o
 .text          0x00000000        0x0 /usr/lib/gcc/arm-linux-gnueabihf/5/../../../arm-linux-gnueabihf/crtn.o
 .data          0x00000000        0x0 /usr/lib/gcc/arm-linux-gnueabihf/5/../../../arm-linux-gnueabihf/crtn.o
 .bss           0x00000000        0x0 /usr/lib/gcc/arm-linux-gnueabihf/5/../../../arm-linux-gnueabihf/crtn.o
 .note.GNU-stack
                0x00000000        0x0 /usr/lib/gcc/arm-linux-gnueabihf/5/../../../arm-linux-gnueabihf/crtn.o

Memory Configuration

Name             Origin             Length             Attributes
*default*        0x00000000         0xffffffff

Linker script and memory map

LOAD /usr/lib/gcc/arm-linux-gnueabihf/5/../../../arm-linux-gnueabihf/crti.o
LOAD /usr/lib/gcc/arm-linux-gnueabihf/5/crtbeginS.o
LOAD /home/ncs/CAPSTONE/out/arsdk-native/build/libARUtils/obj/Sources/ARUTILS_FileSystem.c.o
LOAD /home/ncs/CAPSTONE/out/arsdk-native/build/libARUtils/obj/Sources/ARUTILS_Http.c.o
LOAD /home/ncs/CAPSTONE/out/arsdk-native/build/libARUtils/obj/Sources/ARUTILS_Manager.c.o
LOAD /home/ncs/CAPSTONE/out/arsdk-native/build/libARUtils/obj/Sources/ARUTILS_WifiFtp.c.o
LOAD /home/ncs/CAPSTONE/out/arsdk-native/build/libARUtils/obj/gen/Sources/ARUTILS_Error.c.o
LOAD /home/ncs/CAPSTONE/out/arsdk-native/staging/usr/lib/libarsal.so
LOAD /home/ncs/CAPSTONE/out/arsdk-native/staging/usr/lib/libardiscovery.so
LOAD /home/ncs/CAPSTONE/out/arsdk-native/staging/usr/lib/libarcommands.so
LOAD /home/ncs/CAPSTONE/out/arsdk-native/staging/usr/lib/libmux.so
LOAD /home/ncs/CAPSTONE/out/arsdk-native/staging/usr/lib/libcurl.so
LOAD /usr/lib/gcc/arm-linux-gnueabihf/5/../../../arm-linux-gnueabihf/librt.so
LOAD /usr/lib/gcc/arm-linux-gnueabihf/5/libstdc++.so
LOAD /usr/lib/gcc/arm-linux-gnueabihf/5/../../../arm-linux-gnueabihf/libm.so
LOAD /usr/lib/gcc/arm-linux-gnueabihf/5/libgcc_s.so
START GROUP
LOAD /usr/lib/gcc/arm-linux-gnueabihf/5/libgcc_s.so.1
LOAD /usr/lib/gcc/arm-linux-gnueabihf/5/libgcc.a
END GROUP
LOAD /usr/lib/gcc/arm-linux-gnueabihf/5/../../../arm-linux-gnueabihf/libpthread.so
START GROUP
LOAD /lib/arm-linux-gnueabihf/libpthread.so.0
LOAD /usr/lib/arm-linux-gnueabihf/libpthread_nonshared.a
END GROUP
LOAD /usr/lib/gcc/arm-linux-gnueabihf/5/../../../arm-linux-gnueabihf/libc.so
START GROUP
LOAD /lib/arm-linux-gnueabihf/libc.so.6
LOAD /usr/lib/arm-linux-gnueabihf/libc_nonshared.a
LOAD /lib/arm-linux-gnueabihf/ld-linux-armhf.so.3
END GROUP
LOAD /usr/lib/gcc/arm-linux-gnueabihf/5/libgcc_s.so
START GROUP
LOAD /usr/lib/gcc/arm-linux-gnueabihf/5/libgcc_s.so.1
LOAD /usr/lib/gcc/arm-linux-gnueabihf/5/libgcc.a
END GROUP
LOAD /usr/lib/gcc/arm-linux-gnueabihf/5/crtendS.o
LOAD /usr/lib/gcc/arm-linux-gnueabihf/5/../../../arm-linux-gnueabihf/crtn.o
                0x000000f4                . = (0x0 + SIZEOF_HEADERS)

.note.gnu.build-id
                0x000000f4       0x24
 *(.note.gnu.build-id)
 .note.gnu.build-id
                0x000000f4       0x24 linker stubs

.hash
 *(.hash)

.gnu.hash       0x00000118      0x2a8
 *(.gnu.hash)
 .gnu.hash      0x00000118      0x2a8 /usr/lib/gcc/arm-linux-gnueabihf/5/../../../arm-linux-gnueabihf/crti.o

.dynsym         0x000003c0      0x9e0
 *(.dynsym)
 .dynsym        0x000003c0      0x9e0 /usr/lib/gcc/arm-linux-gnueabihf/5/../../../arm-linux-gnueabihf/crti.o

.dynstr         0x00000da0      0xd00
 *(.dynstr)
 .dynstr        0x00000da0      0xd00 /usr/lib/gcc/arm-linux-gnueabihf/5/../../../arm-linux-gnueabihf/crti.o

.gnu.version    0x00001aa0      0x13c
 *(.gnu.version)
 .gnu.version   0x00001aa0      0x13c /usr/lib/gcc/arm-linux-gnueabihf/5/../../../arm-linux-gnueabihf/crti.o

.gnu.version_d  0x00001bdc        0x0
 *(.gnu.version_d)
 .gnu.version_d
                0x00001bdc        0x0 /usr/lib/gcc/arm-linux-gnueabihf/5/../../../arm-linux-gnueabihf/crti.o

.gnu.version_r  0x00001bdc       0x90
 *(.gnu.version_r)
 .gnu.version_r
                0x00001bdc       0x90 /usr/lib/gcc/arm-linux-gnueabihf/5/../../../arm-linux-gnueabihf/crti.o

.rel.dyn        0x00001c6c      0x100
 *(.rel.init)
 *(.rel.text .rel.text.* .rel.gnu.linkonce.t.*)
 .rel.text      0x00001c6c        0x0 /usr/lib/gcc/arm-linux-gnueabihf/5/../../../arm-linux-gnueabihf/crti.o
 *(.rel.fini)
 *(.rel.rodata .rel.rodata.* .rel.gnu.linkonce.r.*)
 *(.rel.data.rel.ro .rel.data.rel.ro.* .rel.gnu.linkonce.d.rel.ro.*)
 *(.rel.data .rel.data.* .rel.gnu.linkonce.d.*)
 .rel.data.rel.local
                0x00001c6c        0x8 /usr/lib/gcc/arm-linux-gnueabihf/5/../../../arm-linux-gnueabihf/crti.o
 *(.rel.tdata .rel.tdata.* .rel.gnu.linkonce.td.*)
 *(.rel.tbss .rel.tbss.* .rel.gnu.linkonce.tb.*)
 *(.rel.ctors)
 *(.rel.dtors)
 *(.rel.got)
 .rel.got       0x00001c74       0xe8 /usr/lib/gcc/arm-linux-gnueabihf/5/../../../arm-linux-gnueabihf/crti.o
 *(.rel.bss .rel.bss.* .rel.gnu.linkonce.b.*)
 *(.rel.iplt)
 .rel.iplt      0x00001d5c        0x0 /usr/lib/gcc/arm-linux-gnueabihf/5/../../../arm-linux-gnueabihf/crti.o
 .rel.fini_array
                0x00001d5c        0x8 /usr/lib/gcc/arm-linux-gnueabihf/5/../../../arm-linux-gnueabihf/crti.o
 .rel.init_array
                0x00001d64        0x8 /usr/lib/gcc/arm-linux-gnueabihf/5/../../../arm-linux-gnueabihf/crti.o

.rela.dyn
 *(.rela.init)
 *(.rela.text .rela.text.* .rela.gnu.linkonce.t.*)
 *(.rela.fini)
 *(.rela.rodata .rela.rodata.* .rela.gnu.linkonce.r.*)
 *(.rela.data .rela.data.* .rela.gnu.linkonce.d.*)
 *(.rela.tdata .rela.tdata.* .rela.gnu.linkonce.td.*)
 *(.rela.tbss .rela.tbss.* .rela.gnu.linkonce.tb.*)
 *(.rela.ctors)
 *(.rela.dtors)
 *(.rela.got)
 *(.rela.bss .rela.bss.* .rela.gnu.linkonce.b.*)
 *(.rela.iplt)

.rel.plt        0x00001d6c      0x2c0
 *(.rel.plt)
 .rel.plt       0x00001d6c      0x2c0 /usr/lib/gcc/arm-linux-gnueabihf/5/../../../arm-linux-gnueabihf/crti.o

.rela.plt
 *(.rela.plt)

.init           0x0000202c        0xc
 *(SORT(.init))
 .init          0x0000202c        0x8 /usr/lib/gcc/arm-linux-gnueabihf/5/../../../arm-linux-gnueabihf/crti.o
                0x0000202c                _init
 .init          0x00002034        0x4 /usr/lib/gcc/arm-linux-gnueabihf/5/../../../arm-linux-gnueabihf/crtn.o

.plt            0x00002038      0x468
 *(.plt)
 .plt           0x00002038      0x468 /usr/lib/gcc/arm-linux-gnueabihf/5/../../../arm-linux-gnueabihf/crti.o

.iplt           0x000024a0        0x0
 *(.iplt)
 .iplt          0x000024a0        0x0 /usr/lib/gcc/arm-linux-gnueabihf/5/../../../arm-linux-gnueabihf/crti.o

.text           0x000024a0     0x3ab4
 *(.text.unlikely .text.*_unlikely .text.unlikely.*)
 *(.text.exit .text.exit.*)
 *(.text.startup .text.startup.*)
 *(.text.hot .text.hot.*)
 *(.text .stub .text.* .gnu.linkonce.t.*)
 .text          0x000024a0       0x24 /usr/lib/gcc/arm-linux-gnueabihf/5/../../../arm-linux-gnueabihf/crti.o
 .text          0x000024c4       0xd0 /usr/lib/gcc/arm-linux-gnueabihf/5/crtbeginS.o
 .text.ARUTILS_FileSystem_IsExist
                0x00002594       0x5c /home/ncs/CAPSTONE/out/arsdk-native/build/libARUtils/obj/Sources/ARUTILS_FileSystem.c.o
                0x00002594                ARUTILS_FileSystem_IsExist
 .text.ARUTILS_FileSystem_GetFileSize
                0x000025f0       0xe4 /home/ncs/CAPSTONE/out/arsdk-native/build/libARUtils/obj/Sources/ARUTILS_FileSystem.c.o
                0x000025f0                ARUTILS_FileSystem_GetFileSize
 .text.ARUTILS_FileSystem_Rename
                0x000026d4       0xb8 /home/ncs/CAPSTONE/out/arsdk-native/build/libARUtils/obj/Sources/ARUTILS_FileSystem.c.o
                0x000026d4                ARUTILS_FileSystem_Rename
 .text.ARUTILS_FileSystem_RemoveFile
                0x0000278c       0xa0 /home/ncs/CAPSTONE/out/arsdk-native/build/libARUtils/obj/Sources/ARUTILS_FileSystem.c.o
                0x0000278c                ARUTILS_FileSystem_RemoveFile
 .text.ARUTILS_FileSystem_RemoveDir
                0x0000282c       0xc0 /home/ncs/CAPSTONE/out/arsdk-native/build/libARUtils/obj/Sources/ARUTILS_FileSystem.c.o
                0x0000282c                ARUTILS_FileSystem_RemoveDir
 .text.ARUTILS_FileSystem_RemoveDirCallback
                0x000028ec       0xbc /home/ncs/CAPSTONE/out/arsdk-native/build/libARUtils/obj/Sources/ARUTILS_FileSystem.c.o
 .text.ARUTILS_FileSystem_GetFreeSpace
                0x000029a8       0xd0 /home/ncs/CAPSTONE/out/arsdk-native/build/libARUtils/obj/Sources/ARUTILS_FileSystem.c.o
                0x000029a8                ARUTILS_FileSystem_GetFreeSpace
 .text.ARUTILS_Http_ProgressCallback
                0x00002a78       0x50 /home/ncs/CAPSTONE/out/arsdk-native/build/libARUtils/obj/Sources/ARUTILS_Http.c.o
                0x00002a78                ARUTILS_Http_ProgressCallback
 .text.ARUTILS_Http_ClosesocketCallback
                0x00002ac8       0x14 /home/ncs/CAPSTONE/out/arsdk-native/build/libARUtils/obj/Sources/ARUTILS_Http.c.o
                0x00002ac8                ARUTILS_Http_ClosesocketCallback
 .text.ARUTILS_Http_OpensocketCallback
                0x00002adc       0x1a /home/ncs/CAPSTONE/out/arsdk-native/build/libARUtils/obj/Sources/ARUTILS_Http.c.o
                0x00002adc                ARUTILS_Http_OpensocketCallback
 *fill*         0x00002af6        0x2 
 .text.ARUTILS_Http_Connection_Cancel
                0x00002af8       0xac /home/ncs/CAPSTONE/out/arsdk-native/build/libARUtils/obj/Sources/ARUTILS_Http.c.o
                0x00002af8                ARUTILS_Http_Connection_Cancel
 .text.ARUTILS_Http_SetSeverCertificate
                0x00002ba4       0x34 /home/ncs/CAPSTONE/out/arsdk-native/build/libARUtils/obj/Sources/ARUTILS_Http.c.o
                0x00002ba4                ARUTILS_Http_SetSeverCertificate
 .text.ARUTILS_Http_FreeCallbackData
                0x00002bd8       0x42 /home/ncs/CAPSTONE/out/arsdk-native/build/libARUtils/obj/Sources/ARUTILS_Http.c.o
                0x00002bd8                ARUTILS_Http_FreeCallbackData
 *fill*         0x00002c1a        0x2 
 .text.ARUTILS_Http_Connection_Delete
                0x00002c1c       0xa0 /home/ncs/CAPSTONE/out/arsdk-native/build/libARUtils/obj/Sources/ARUTILS_Http.c.o
                0x00002c1c                ARUTILS_Http_Connection_Delete
 .text.ARUTILS_Http_Connection_New
                0x00002cbc      0x168 /home/ncs/CAPSTONE/out/arsdk-native/build/libARUtils/obj/Sources/ARUTILS_Http.c.o
                0x00002cbc                ARUTILS_Http_Connection_New
 .text.ARUTILS_Http_ResetOptions
                0x00002e24      0x118 /home/ncs/CAPSTONE/out/arsdk-native/build/libARUtils/obj/Sources/ARUTILS_Http.c.o
                0x00002e24                ARUTILS_Http_ResetOptions
 .text.ARUTILS_Http_IsCanceled
                0x00002f3c       0x3c /home/ncs/CAPSTONE/out/arsdk-native/build/libARUtils/obj/Sources/ARUTILS_Http.c.o
                0x00002f3c                ARUTILS_Http_IsCanceled
 .text.ARUTILS_Http_ReadDataCallback
                0x00002f78       0xa0 /home/ncs/CAPSTONE/out/arsdk-native/build/libARUtils/obj/Sources/ARUTILS_Http.c.o
                0x00002f78                ARUTILS_Http_ReadDataCallback
 .text.ARUTILS_Http_WriteDataCallback
                0x00003018       0xb0 /home/ncs/CAPSTONE/out/arsdk-native/build/libARUtils/obj/Sources/ARUTILS_Http.c.o
                0x00003018                ARUTILS_Http_WriteDataCallback
 .text.ARUTILS_Http_GetErrorFromCode
                0x000030c8       0x2c /home/ncs/CAPSTONE/out/arsdk-native/build/libARUtils/obj/Sources/ARUTILS_Http.c.o
                0x000030c8                ARUTILS_Http_GetErrorFromCode
 .text.ARUTILS_Http_Get_Internal
                0x000030f4      0x360 /home/ncs/CAPSTONE/out/arsdk-native/build/libARUtils/obj/Sources/ARUTILS_Http.c.o
                0x000030f4                ARUTILS_Http_Get_Internal
 .text.ARUTILS_Http_Get
                0x00003454       0x14 /home/ncs/CAPSTONE/out/arsdk-native/build/libARUtils/obj/Sources/ARUTILS_Http.c.o
                0x00003454                ARUTILS_Http_Get
 .text.ARUTILS_Http_Get_WithBuffer
                0x00003468       0x18 /home/ncs/CAPSTONE/out/arsdk-native/build/libARUtils/obj/Sources/ARUTILS_Http.c.o
                0x00003468                ARUTILS_Http_Get_WithBuffer
 .text.ARUTILS_Http_Post_WithFiles
                0x00003480      0x2c8 /home/ncs/CAPSTONE/out/arsdk-native/build/libARUtils/obj/Sources/ARUTILS_Http.c.o
                0x00003480                ARUTILS_Http_Post_WithFiles
 .text.ARUTILS_Http_Post_WithRange
                0x00003748      0x438 /home/ncs/CAPSTONE/out/arsdk-native/build/libARUtils/obj/Sources/ARUTILS_Http.c.o
                0x00003748                ARUTILS_Http_Post_WithRange
 .text.ARUTILS_Manager_New
                0x00003b80       0x94 /home/ncs/CAPSTONE/out/arsdk-native/build/libARUtils/obj/Sources/ARUTILS_Manager.c.o
                0x00003b80                ARUTILS_Manager_New
 .text.ARUTILS_Manager_Delete
                0x00003c14       0x8c /home/ncs/CAPSTONE/out/arsdk-native/build/libARUtils/obj/Sources/ARUTILS_Manager.c.o
                0x00003c14                ARUTILS_Manager_Delete
 .text.ARUTILS_Manager_Ftp_Connection_Disconnect
                0x00003ca0       0x10 /home/ncs/CAPSTONE/out/arsdk-native/build/libARUtils/obj/Sources/ARUTILS_Manager.c.o
                0x00003ca0                ARUTILS_Manager_Ftp_Connection_Disconnect
 .text.ARUTILS_Manager_Ftp_Connection_Reconnect
                0x00003cb0       0x10 /home/ncs/CAPSTONE/out/arsdk-native/build/libARUtils/obj/Sources/ARUTILS_Manager.c.o
                0x00003cb0                ARUTILS_Manager_Ftp_Connection_Reconnect
 .text.ARUTILS_Manager_Ftp_Connection_Cancel
                0x00003cc0       0x10 /home/ncs/CAPSTONE/out/arsdk-native/build/libARUtils/obj/Sources/ARUTILS_Manager.c.o
                0x00003cc0                ARUTILS_Manager_Ftp_Connection_Cancel
 .text.ARUTILS_Manager_Ftp_Connection_IsCanceled
                0x00003cd0       0x10 /home/ncs/CAPSTONE/out/arsdk-native/build/libARUtils/obj/Sources/ARUTILS_Manager.c.o
                0x00003cd0                ARUTILS_Manager_Ftp_Connection_IsCanceled
 .text.ARUTILS_Manager_Ftp_Connection_Reset
                0x00003ce0       0x10 /home/ncs/CAPSTONE/out/arsdk-native/build/libARUtils/obj/Sources/ARUTILS_Manager.c.o
                0x00003ce0                ARUTILS_Manager_Ftp_Connection_Reset
 .text.ARUTILS_Manager_Ftp_List
                0x00003cf0       0x1c /home/ncs/CAPSTONE/out/arsdk-native/build/libARUtils/obj/Sources/ARUTILS_Manager.c.o
                0x00003cf0                ARUTILS_Manager_Ftp_List
 .text.ARUTILS_Manager_Ftp_Size
                0x00003d0c       0x10 /home/ncs/CAPSTONE/out/arsdk-native/build/libARUtils/obj/Sources/ARUTILS_Manager.c.o
                0x00003d0c                ARUTILS_Manager_Ftp_Size
 .text.ARUTILS_Manager_Ftp_Get_WithBuffer
                0x00003d1c       0x18 /home/ncs/CAPSTONE/out/arsdk-native/build/libARUtils/obj/Sources/ARUTILS_Manager.c.o
                0x00003d1c                ARUTILS_Manager_Ftp_Get_WithBuffer
 .text.ARUTILS_Manager_Ftp_Get
                0x00003d34       0x18 /home/ncs/CAPSTONE/out/arsdk-native/build/libARUtils/obj/Sources/ARUTILS_Manager.c.o
                0x00003d34                ARUTILS_Manager_Ftp_Get
 .text.ARUTILS_Manager_Ftp_Put
                0x00003d4c       0x18 /home/ncs/CAPSTONE/out/arsdk-native/build/libARUtils/obj/Sources/ARUTILS_Manager.c.o
                0x00003d4c                ARUTILS_Manager_Ftp_Put
 .text.ARUTILS_Manager_Ftp_Delete
                0x00003d64       0x10 /home/ncs/CAPSTONE/out/arsdk-native/build/libARUtils/obj/Sources/ARUTILS_Manager.c.o
                0x00003d64                ARUTILS_Manager_Ftp_Delete
 .text.ARUTILS_Manager_Ftp_RemoveDir
                0x00003d74       0x10 /home/ncs/CAPSTONE/out/arsdk-native/build/libARUtils/obj/Sources/ARUTILS_Manager.c.o
                0x00003d74                ARUTILS_Manager_Ftp_RemoveDir
 .text.ARUTILS_Manager_Ftp_Rename
                0x00003d84       0x10 /home/ncs/CAPSTONE/out/arsdk-native/build/libARUtils/obj/Sources/ARUTILS_Manager.c.o
                0x00003d84                ARUTILS_Manager_Ftp_Rename
 .text.ARUTILS_WifiFtpAL_Connection_Reconnect
                0x00003d94       0x28 /home/ncs/CAPSTONE/out/arsdk-native/build/libARUtils/obj/Sources/ARUTILS_WifiFtp.c.o
                0x00003d94                ARUTILS_WifiFtpAL_Connection_Reconnect
 .text.ARUTILS_WifiFtpAL_Connection_Disconnect
                0x00003dbc       0x1c /home/ncs/CAPSTONE/out/arsdk-native/build/libARUtils/obj/Sources/ARUTILS_WifiFtp.c.o
                0x00003dbc                ARUTILS_WifiFtpAL_Connection_Disconnect
 .text.ARUTILS_WifiFtp_ClosesocketCallback
                0x00003dd8       0x2c /home/ncs/CAPSTONE/out/arsdk-native/build/libARUtils/obj/Sources/ARUTILS_WifiFtp.c.o
                0x00003dd8                ARUTILS_WifiFtp_ClosesocketCallback
 .text.ARUTILS_WifiFtp_OpensocketCallback
                0x00003e04       0x32 /home/ncs/CAPSTONE/out/arsdk-native/build/libARUtils/obj/Sources/ARUTILS_WifiFtp.c.o
                0x00003e04                ARUTILS_WifiFtp_OpensocketCallback
 *fill*         0x00003e36        0x2 
 .text.ARUTILS_WifiFtp_Connection_Cancel
                0x00003e38       0xb0 /home/ncs/CAPSTONE/out/arsdk-native/build/libARUtils/obj/Sources/ARUTILS_WifiFtp.c.o
                0x00003e38                ARUTILS_WifiFtp_Connection_Cancel
 .text.ARUTILS_WifiFtpAL_Connection_Cancel
                0x00003ee8        0x6 /home/ncs/CAPSTONE/out/arsdk-native/build/libARUtils/obj/Sources/ARUTILS_WifiFtp.c.o
                0x00003ee8                ARUTILS_WifiFtpAL_Connection_Cancel
 *fill*         0x00003eee        0x2 
 .text.ARUTILS_WifiFtp_Connection_Reset
                0x00003ef0       0x9c /home/ncs/CAPSTONE/out/arsdk-native/build/libARUtils/obj/Sources/ARUTILS_WifiFtp.c.o
                0x00003ef0                ARUTILS_WifiFtp_Connection_Reset
 .text.ARUTILS_WifiFtpAL_Connection_Reset
                0x00003f8c        0x6 /home/ncs/CAPSTONE/out/arsdk-native/build/libARUtils/obj/Sources/ARUTILS_WifiFtp.c.o
                0x00003f8c                ARUTILS_WifiFtpAL_Connection_Reset
 .text.ARUTILS_Ftp_List_GetNextItem
                0x00003f92      0x10a /home/ncs/CAPSTONE/out/arsdk-native/build/libARUtils/obj/Sources/ARUTILS_WifiFtp.c.o
                0x00003f92                ARUTILS_Ftp_List_GetNextItem
 .text.ARUTILS_Ftp_List_GetItemSize
                0x0000409c       0x90 /home/ncs/CAPSTONE/out/arsdk-native/build/libARUtils/obj/Sources/ARUTILS_WifiFtp.c.o
                0x0000409c                ARUTILS_Ftp_List_GetItemSize
 .text.ARUTILS_WifiFtp_FreeCallbackData
                0x0000412c       0x30 /home/ncs/CAPSTONE/out/arsdk-native/build/libARUtils/obj/Sources/ARUTILS_WifiFtp.c.o
                0x0000412c                ARUTILS_WifiFtp_FreeCallbackData
 .text.ARUTILS_WifiFtp_Connection_Delete
                0x0000415c       0xac /home/ncs/CAPSTONE/out/arsdk-native/build/libARUtils/obj/Sources/ARUTILS_WifiFtp.c.o
                0x0000415c                ARUTILS_WifiFtp_Connection_Delete
 .text.ARUTILS_WifiFtp_Connection_New
                0x00004208      0x2a8 /home/ncs/CAPSTONE/out/arsdk-native/build/libARUtils/obj/Sources/ARUTILS_WifiFtp.c.o
                0x00004208                ARUTILS_WifiFtp_Connection_New
 .text.ARUTILS_WifiFtp_ResetOptions
                0x000044b0      0x100 /home/ncs/CAPSTONE/out/arsdk-native/build/libARUtils/obj/Sources/ARUTILS_WifiFtp.c.o
                0x000044b0                ARUTILS_WifiFtp_ResetOptions
 .text.ARUTILS_WifiFtp_IsCanceled
                0x000045b0       0x3c /home/ncs/CAPSTONE/out/arsdk-native/build/libARUtils/obj/Sources/ARUTILS_WifiFtp.c.o
                0x000045b0                ARUTILS_WifiFtp_IsCanceled
 .text.ARUTILS_WifiFtp_ReadDataCallback
                0x000045ec       0x56 /home/ncs/CAPSTONE/out/arsdk-native/build/libARUtils/obj/Sources/ARUTILS_WifiFtp.c.o
                0x000045ec                ARUTILS_WifiFtp_ReadDataCallback
 *fill*         0x00004642        0x2 
 .text.ARUTILS_WifiFtp_WriteDataCallback
                0x00004644       0xb4 /home/ncs/CAPSTONE/out/arsdk-native/build/libARUtils/obj/Sources/ARUTILS_WifiFtp.c.o
                0x00004644                ARUTILS_WifiFtp_WriteDataCallback
 .text.ARUTILS_WifiFtp_ProgressCallback
                0x000046f8       0x78 /home/ncs/CAPSTONE/out/arsdk-native/build/libARUtils/obj/Sources/ARUTILS_WifiFtp.c.o
                0x000046f8                ARUTILS_WifiFtp_ProgressCallback
 .text.ARUTILS_WifiFtpAL_Connection_IsCanceled
                0x00004770        0x6 /home/ncs/CAPSTONE/out/arsdk-native/build/libARUtils/obj/Sources/ARUTILS_WifiFtp.c.o
                0x00004770                ARUTILS_WifiFtpAL_Connection_IsCanceled
 *fill*         0x00004776        0x2 
 .text.ARUTILS_WifiFtp_GetErrorFromCode
                0x00004778       0x74 /home/ncs/CAPSTONE/out/arsdk-native/build/libARUtils/obj/Sources/ARUTILS_WifiFtp.c.o
                0x00004778                ARUTILS_WifiFtp_GetErrorFromCode
 .text.ARUTILS_WifiFtp_Rename
                0x000047ec      0x220 /home/ncs/CAPSTONE/out/arsdk-native/build/libARUtils/obj/Sources/ARUTILS_WifiFtp.c.o
                0x000047ec                ARUTILS_WifiFtp_Rename
 .text.ARUTILS_WifiFtpAL_Rename
                0x00004a0c        0x6 /home/ncs/CAPSTONE/out/arsdk-native/build/libARUtils/obj/Sources/ARUTILS_WifiFtp.c.o
                0x00004a0c                ARUTILS_WifiFtpAL_Rename
 *fill*         0x00004a12        0x2 
 .text.ARUTILS_WifiFtp_Size
                0x00004a14      0x2c8 /home/ncs/CAPSTONE/out/arsdk-native/build/libARUtils/obj/Sources/ARUTILS_WifiFtp.c.o
                0x00004a14                ARUTILS_WifiFtp_Size
 .text.ARUTILS_WifiFtpAL_Size
                0x00004cdc        0x6 /home/ncs/CAPSTONE/out/arsdk-native/build/libARUtils/obj/Sources/ARUTILS_WifiFtp.c.o
                0x00004cdc                ARUTILS_WifiFtpAL_Size
 *fill*         0x00004ce2        0x2 
 .text.ARUTILS_WifiFtp_Command
                0x00004ce4      0x220 /home/ncs/CAPSTONE/out/arsdk-native/build/libARUtils/obj/Sources/ARUTILS_WifiFtp.c.o
                0x00004ce4                ARUTILS_WifiFtp_Command
 .text.ARUTILS_WifiFtp_Delete
                0x00004f04       0xbc /home/ncs/CAPSTONE/out/arsdk-native/build/libARUtils/obj/Sources/ARUTILS_WifiFtp.c.o
                0x00004f04                ARUTILS_WifiFtp_Delete
 .text.ARUTILS_WifiFtpAL_Delete
                0x00004fc0        0x6 /home/ncs/CAPSTONE/out/arsdk-native/build/libARUtils/obj/Sources/ARUTILS_WifiFtp.c.o
                0x00004fc0                ARUTILS_WifiFtpAL_Delete
 *fill*         0x00004fc6        0x2 
 .text.ARUTILS_WifiFtp_Cd
                0x00004fc8      0x114 /home/ncs/CAPSTONE/out/arsdk-native/build/libARUtils/obj/Sources/ARUTILS_WifiFtp.c.o
                0x00004fc8                ARUTILS_WifiFtp_Cd
 .text.ARUTILS_WifiFtpAL_RemoveDir
                0x000050dc       0xc0 /home/ncs/CAPSTONE/out/arsdk-native/build/libARUtils/obj/Sources/ARUTILS_WifiFtp.c.o
                0x000050dc                ARUTILS_WifiFtpAL_RemoveDir
 .text.ARUTILS_WifiFtp_List
                0x0000519c      0x2b8 /home/ncs/CAPSTONE/out/arsdk-native/build/libARUtils/obj/Sources/ARUTILS_WifiFtp.c.o
                0x0000519c                ARUTILS_WifiFtp_List
 .text.ARUTILS_WifiFtpAL_List
                0x00005454        0x6 /home/ncs/CAPSTONE/out/arsdk-native/build/libARUtils/obj/Sources/ARUTILS_WifiFtp.c.o
                0x00005454                ARUTILS_WifiFtpAL_List
 *fill*         0x0000545a        0x2 
 .text.ARUTILS_WifiFtp_GetInternal
                0x0000545c      0x3a4 /home/ncs/CAPSTONE/out/arsdk-native/build/libARUtils/obj/Sources/ARUTILS_WifiFtp.c.o
                0x0000545c                ARUTILS_WifiFtp_GetInternal
 .text.ARUTILS_WifiFtp_Get
                0x00005800       0x18 /home/ncs/CAPSTONE/out/arsdk-native/build/libARUtils/obj/Sources/ARUTILS_WifiFtp.c.o
                0x00005800                ARUTILS_WifiFtp_Get
 .text.ARUTILS_WifiFtpAL_Get
                0x00005818        0xc /home/ncs/CAPSTONE/out/arsdk-native/build/libARUtils/obj/Sources/ARUTILS_WifiFtp.c.o
                0x00005818                ARUTILS_WifiFtpAL_Get
 .text.ARUTILS_WifiFtp_Get_WithBuffer
                0x00005824       0x1e /home/ncs/CAPSTONE/out/arsdk-native/build/libARUtils/obj/Sources/ARUTILS_WifiFtp.c.o
                0x00005824                ARUTILS_WifiFtp_Get_WithBuffer
 .text.ARUTILS_WifiFtpAL_Get_WithBuffer
                0x00005842        0xc /home/ncs/CAPSTONE/out/arsdk-native/build/libARUtils/obj/Sources/ARUTILS_WifiFtp.c.o
                0x00005842                ARUTILS_WifiFtpAL_Get_WithBuffer
 *fill*         0x0000584e        0x2 
 .text.ARUTILS_WifiFtp_Put
                0x00005850      0x3cc /home/ncs/CAPSTONE/out/arsdk-native/build/libARUtils/obj/Sources/ARUTILS_WifiFtp.c.o
                0x00005850                ARUTILS_WifiFtp_Put
 .text.ARUTILS_WifiFtpAL_Put
                0x00005c1c        0xc /home/ncs/CAPSTONE/out/arsdk-native/build/libARUtils/obj/Sources/ARUTILS_WifiFtp.c.o
                0x00005c1c                ARUTILS_WifiFtpAL_Put
 .text.ARUTILS_Manager_InitWifiFtpOverMux
                0x00005c28      0x108 /home/ncs/CAPSTONE/out/arsdk-native/build/libARUtils/obj/Sources/ARUTILS_WifiFtp.c.o
                0x00005c28                ARUTILS_Manager_InitWifiFtpOverMux
 .text.ARUTILS_Manager_InitWifiFtp
                0x00005d30       0x12 /home/ncs/CAPSTONE/out/arsdk-native/build/libARUtils/obj/Sources/ARUTILS_WifiFtp.c.o
                0x00005d30                ARUTILS_Manager_InitWifiFtp
 .text.ARUTILS_Manager_CloseWifiFtp
                0x00005d42       0x1a /home/ncs/CAPSTONE/out/arsdk-native/build/libARUtils/obj/Sources/ARUTILS_WifiFtp.c.o
                0x00005d42                ARUTILS_Manager_CloseWifiFtp
 .text.ARUTILS_Error_ToString
                0x00005d5c      0x1ec /home/ncs/CAPSTONE/out/arsdk-native/build/libARUtils/obj/gen/Sources/ARUTILS_Error.c.o
                0x00005d5c                ARUTILS_Error_ToString
 .text          0x00005f48        0xc /usr/lib/arm-linux-gnueabihf/libc_nonshared.a(stat.oS)
                0x00005f48                __stat
                0x00005f48                stat
 *(.gnu.warning)
 *(.glue_7t)
 .glue_7t       0x00005f54        0x0 linker stubs
 *(.glue_7)
 .glue_7        0x00005f54        0x0 linker stubs
 *(.vfp11_veneer)
 .vfp11_veneer  0x00005f54        0x0 linker stubs
 *(.v4_bx)
 .v4_bx         0x00005f54        0x0 linker stubs

.fini           0x00005f54        0x8
 *(SORT(.fini))
 .fini          0x00005f54        0x4 /usr/lib/gcc/arm-linux-gnueabihf/5/../../../arm-linux-gnueabihf/crti.o
                0x00005f54                _fini
 .fini          0x00005f58        0x4 /usr/lib/gcc/arm-linux-gnueabihf/5/../../../arm-linux-gnueabihf/crtn.o
                [!provide]                PROVIDE (__etext, .)
                [!provide]                PROVIDE (_etext, .)
                [!provide]                PROVIDE (etext, .)

.rodata         0x00005f5c      0x7f3
 *(.rodata .rodata.* .gnu.linkonce.r.*)
 .rodata        0x00005f5c       0xb9 /home/ncs/CAPSTONE/out/arsdk-native/build/libARUtils/obj/Sources/ARUTILS_FileSystem.c.o
 .rodata.str1.1
                0x00006015       0x72 /home/ncs/CAPSTONE/out/arsdk-native/build/libARUtils/obj/Sources/ARUTILS_FileSystem.c.o
 .rodata        0x00006087       0xac /home/ncs/CAPSTONE/out/arsdk-native/build/libARUtils/obj/Sources/ARUTILS_Http.c.o
 .rodata.str1.1
                0x00006133       0xc4 /home/ncs/CAPSTONE/out/arsdk-native/build/libARUtils/obj/Sources/ARUTILS_Http.c.o
                                 0xec (size before relaxing)
 .rodata        0x000061f7       0x2b /home/ncs/CAPSTONE/out/arsdk-native/build/libARUtils/obj/Sources/ARUTILS_Manager.c.o
 .rodata.str1.1
                0x00006222        0x8 /home/ncs/CAPSTONE/out/arsdk-native/build/libARUtils/obj/Sources/ARUTILS_Manager.c.o
                                 0x25 (size before relaxing)
 .rodata        0x0000622a      0x151 /home/ncs/CAPSTONE/out/arsdk-native/build/libARUtils/obj/Sources/ARUTILS_WifiFtp.c.o
 .rodata.str1.1
                0x0000637b      0x198 /home/ncs/CAPSTONE/out/arsdk-native/build/libARUtils/obj/Sources/ARUTILS_WifiFtp.c.o
                                0x1ec (size before relaxing)
 .rodata.str1.1
                0x00006513      0x23c /home/ncs/CAPSTONE/out/arsdk-native/build/libARUtils/obj/gen/Sources/ARUTILS_Error.c.o

.rodata1
 *(.rodata1)

.ARM.extab
 *(.ARM.extab* .gnu.linkonce.armextab.*)
                [!provide]                PROVIDE (__exidx_start, .)

.ARM.exidx
 *(.ARM.exidx* .gnu.linkonce.armexidx.*)
                [!provide]                PROVIDE (__exidx_end, .)

.eh_frame_hdr
 *(.eh_frame_hdr)
 *(.eh_frame_entry .eh_frame_entry.*)

.eh_frame       0x00006750        0x4
 *(.eh_frame)
 .eh_frame      0x00006750        0x4 /usr/lib/gcc/arm-linux-gnueabihf/5/crtendS.o
 *(.eh_frame.*)

.gcc_except_table
 *(.gcc_except_table .gcc_except_table.*)

.gnu_extab
 *(.gnu_extab*)

.exception_ranges
 *(.exception_ranges .exception_ranges*)
                0x00016edc                . = DATA_SEGMENT_ALIGN (0x10000, 0x1000)

.eh_frame
 *(.eh_frame)
 *(.eh_frame.*)

.gnu_extab
 *(.gnu_extab)

.gcc_except_table
 *(.gcc_except_table .gcc_except_table.*)

.exception_ranges
 *(.exception_ranges .exception_ranges*)

.tdata
 *(.tdata .tdata.* .gnu.linkonce.td.*)

.tbss
 *(.tbss .tbss.* .gnu.linkonce.tb.*)
 *(.tcommon)

.preinit_array
 *(.preinit_array)

.init_array     0x00016edc        0x4
 *(SORT(.init_array.*) SORT(.ctors.*))
 *(.init_array EXCLUDE_FILE(*crtend?.o *crtend.o *crtbegin?.o *crtbegin.o) .ctors)
 .init_array    0x00016edc        0x4 /usr/lib/gcc/arm-linux-gnueabihf/5/crtbeginS.o

.fini_array     0x00016ee0        0x4
 *(SORT(.fini_array.*) SORT(.dtors.*))
 *(.fini_array EXCLUDE_FILE(*crtend?.o *crtend.o *crtbegin?.o *crtbegin.o) .dtors)
 .fini_array    0x00016ee0        0x4 /usr/lib/gcc/arm-linux-gnueabihf/5/crtbeginS.o

.ctors
 *crtbegin.o(.ctors)
 *crtbegin?.o(.ctors)
 *(EXCLUDE_FILE(*crtend?.o *crtend.o) .ctors)
 *(SORT(.ctors.*))
 *(.ctors)

.dtors
 *crtbegin.o(.dtors)
 *crtbegin?.o(.dtors)
 *(EXCLUDE_FILE(*crtend?.o *crtend.o) .dtors)
 *(SORT(.dtors.*))
 *(.dtors)

.jcr            0x00016ee4        0x4
 *(.jcr)
 .jcr           0x00016ee4        0x0 /usr/lib/gcc/arm-linux-gnueabihf/5/crtbeginS.o
 .jcr           0x00016ee4        0x4 /usr/lib/gcc/arm-linux-gnueabihf/5/crtendS.o

.data.rel.ro
 *(.data.rel.ro.local* .gnu.linkonce.d.rel.ro.local.*)
 *(.data.rel.ro .data.rel.ro.* .gnu.linkonce.d.rel.ro.*)

.dynamic        0x00016ee8      0x118
 *(.dynamic)
 .dynamic       0x00016ee8      0x118 /usr/lib/gcc/arm-linux-gnueabihf/5/../../../arm-linux-gnueabihf/crti.o
                0x00016ee8                _DYNAMIC
                0x00017000                . = DATA_SEGMENT_RELRO_END (., 0x0)

.got            0x00017000      0x1e0
 *(.got.plt)
 .got.plt       0x00017000      0x16c /usr/lib/gcc/arm-linux-gnueabihf/5/../../../arm-linux-gnueabihf/crti.o
                0x00017000                _GLOBAL_OFFSET_TABLE_
 *(.igot.plt)
 .igot.plt      0x0001716c        0x0 /usr/lib/gcc/arm-linux-gnueabihf/5/../../../arm-linux-gnueabihf/crti.o
 *(.got)
 .got           0x0001716c       0x74 /usr/lib/gcc/arm-linux-gnueabihf/5/../../../arm-linux-gnueabihf/crti.o
 *(.igot)

.data           0x000171e0        0x4
                [!provide]                PROVIDE (__data_start, .)
 *(.data .data.* .gnu.linkonce.d.*)
 .data.rel.local
                0x000171e0        0x4 /usr/lib/gcc/arm-linux-gnueabihf/5/crtbeginS.o
                0x000171e0                __dso_handle

.tm_clone_table
                0x000171e4        0x0
 .tm_clone_table
                0x000171e4        0x0 /usr/lib/gcc/arm-linux-gnueabihf/5/crtbeginS.o
 .tm_clone_table
                0x000171e4        0x0 /usr/lib/gcc/arm-linux-gnueabihf/5/crtendS.o

.data1
 *(.data1)
                0x000171e4                _edata = .
                [!provide]                PROVIDE (edata, .)
                0x000171e4                . = .
                0x000171e4                __bss_start = .
                0x000171e4                __bss_start__ = .

.bss            0x000171e4        0x4
 *(.dynbss)
 .dynbss        0x000171e4        0x0 /usr/lib/gcc/arm-linux-gnueabihf/5/../../../arm-linux-gnueabihf/crti.o
 *(.bss .bss.* .gnu.linkonce.b.*)
 .bss           0x000171e4        0x1 /usr/lib/gcc/arm-linux-gnueabihf/5/crtbeginS.o
 *(COMMON)
                0x000171e8                . = ALIGN ((. != 0x0)?0x4:0x1)
 *fill*         0x000171e5        0x3 
                0x000171e8                _bss_end__ = .
                0x000171e8                __bss_end__ = .
                0x000171e8                . = ALIGN (0x4)
                0x000171e8                . = SEGMENT_START ("ldata-segment", .)
                0x000171e8                . = ALIGN (0x4)
                0x000171e8                __end__ = .
                0x000171e8                _end = .
                [!provide]                PROVIDE (end, .)
                0x000171e8                . = DATA_SEGMENT_END (.)

.stab
 *(.stab)

.stabstr
 *(.stabstr)

.stab.excl
 *(.stab.excl)

.stab.exclstr
 *(.stab.exclstr)

.stab.index
 *(.stab.index)

.stab.indexstr
 *(.stab.indexstr)

.comment        0x00000000       0x3b
 *(.comment)
 .comment       0x00000000       0x3b /usr/lib/gcc/arm-linux-gnueabihf/5/crtbeginS.o
                                 0x3c (size before relaxing)
 .comment       0x0000003b       0x3c /home/ncs/CAPSTONE/out/arsdk-native/build/libARUtils/obj/Sources/ARUTILS_FileSystem.c.o
 .comment       0x0000003b       0x3c /home/ncs/CAPSTONE/out/arsdk-native/build/libARUtils/obj/Sources/ARUTILS_Http.c.o
 .comment       0x0000003b       0x3c /home/ncs/CAPSTONE/out/arsdk-native/build/libARUtils/obj/Sources/ARUTILS_Manager.c.o
 .comment       0x0000003b       0x3c /home/ncs/CAPSTONE/out/arsdk-native/build/libARUtils/obj/Sources/ARUTILS_WifiFtp.c.o
 .comment       0x0000003b       0x3c /home/ncs/CAPSTONE/out/arsdk-native/build/libARUtils/obj/gen/Sources/ARUTILS_Error.c.o
 .comment       0x0000003b       0x3c /usr/lib/gcc/arm-linux-gnueabihf/5/crtendS.o

.ARM.attributes
                0x00000000       0x33
 .ARM.attributes
                0x00000000       0x27 /usr/lib/gcc/arm-linux-gnueabihf/5/../../../arm-linux-gnueabihf/crti.o
 .ARM.attributes
                0x00000027       0x33 /usr/lib/gcc/arm-linux-gnueabihf/5/crtbeginS.o
 .ARM.attributes
                0x0000005a       0x33 /home/ncs/CAPSTONE/out/arsdk-native/build/libARUtils/obj/Sources/ARUTILS_FileSystem.c.o
 .ARM.attributes
                0x0000008d       0x33 /home/ncs/CAPSTONE/out/arsdk-native/build/libARUtils/obj/Sources/ARUTILS_Http.c.o
 .ARM.attributes
                0x000000c0       0x33 /home/ncs/CAPSTONE/out/arsdk-native/build/libARUtils/obj/Sources/ARUTILS_Manager.c.o
 .ARM.attributes
                0x000000f3       0x33 /home/ncs/CAPSTONE/out/arsdk-native/build/libARUtils/obj/Sources/ARUTILS_WifiFtp.c.o
 .ARM.attributes
                0x00000126       0x33 /home/ncs/CAPSTONE/out/arsdk-native/build/libARUtils/obj/gen/Sources/ARUTILS_Error.c.o
 .ARM.attributes
                0x00000159       0x35 /usr/lib/arm-linux-gnueabihf/libc_nonshared.a(stat.oS)
 .ARM.attributes
                0x0000018e       0x33 /usr/lib/gcc/arm-linux-gnueabihf/5/crtendS.o
 .ARM.attributes
                0x000001c1       0x27 /usr/lib/gcc/arm-linux-gnueabihf/5/../../../arm-linux-gnueabihf/crtn.o

.debug
 *(.debug)

.line
 *(.line)

.debug_srcinfo
 *(.debug_srcinfo)

.debug_sfnames
 *(.debug_sfnames)

.debug_aranges  0x00000000      0x308
 *(.debug_aranges)
 .debug_aranges
                0x00000000       0x50 /home/ncs/CAPSTONE/out/arsdk-native/build/libARUtils/obj/Sources/ARUTILS_FileSystem.c.o
 .debug_aranges
                0x00000050       0xa8 /home/ncs/CAPSTONE/out/arsdk-native/build/libARUtils/obj/Sources/ARUTILS_Http.c.o
 .debug_aranges
                0x000000f8       0x90 /home/ncs/CAPSTONE/out/arsdk-native/build/libARUtils/obj/Sources/ARUTILS_Manager.c.o
 .debug_aranges
                0x00000188      0x160 /home/ncs/CAPSTONE/out/arsdk-native/build/libARUtils/obj/Sources/ARUTILS_WifiFtp.c.o
 .debug_aranges
                0x000002e8       0x20 /home/ncs/CAPSTONE/out/arsdk-native/build/libARUtils/obj/gen/Sources/ARUTILS_Error.c.o

.debug_pubnames
 *(.debug_pubnames)

.debug_info     0x00000000     0xa84a
 *(.debug_info .gnu.linkonce.wi.*)
 .debug_info    0x00000000      0xec6 /home/ncs/CAPSTONE/out/arsdk-native/build/libARUtils/obj/Sources/ARUTILS_FileSystem.c.o
 .debug_info    0x00000ec6     0x3643 /home/ncs/CAPSTONE/out/arsdk-native/build/libARUtils/obj/Sources/ARUTILS_Http.c.o
 .debug_info    0x00004509      0xd74 /home/ncs/CAPSTONE/out/arsdk-native/build/libARUtils/obj/Sources/ARUTILS_Manager.c.o
 .debug_info    0x0000527d     0x548a /home/ncs/CAPSTONE/out/arsdk-native/build/libARUtils/obj/Sources/ARUTILS_WifiFtp.c.o
 .debug_info    0x0000a707      0x143 /home/ncs/CAPSTONE/out/arsdk-native/build/libARUtils/obj/gen/Sources/ARUTILS_Error.c.o

.debug_abbrev   0x00000000      0xe1c
 *(.debug_abbrev)
 .debug_abbrev  0x00000000      0x244 /home/ncs/CAPSTONE/out/arsdk-native/build/libARUtils/obj/Sources/ARUTILS_FileSystem.c.o
 .debug_abbrev  0x00000244      0x44c /home/ncs/CAPSTONE/out/arsdk-native/build/libARUtils/obj/Sources/ARUTILS_Http.c.o
 .debug_abbrev  0x00000690      0x23f /home/ncs/CAPSTONE/out/arsdk-native/build/libARUtils/obj/Sources/ARUTILS_Manager.c.o
 .debug_abbrev  0x000008cf      0x4ba /home/ncs/CAPSTONE/out/arsdk-native/build/libARUtils/obj/Sources/ARUTILS_WifiFtp.c.o
 .debug_abbrev  0x00000d89       0x93 /home/ncs/CAPSTONE/out/arsdk-native/build/libARUtils/obj/gen/Sources/ARUTILS_Error.c.o

.debug_line     0x00000000     0x1d77
 *(.debug_line .debug_line.* .debug_line_end)
 .debug_line    0x00000000      0x317 /home/ncs/CAPSTONE/out/arsdk-native/build/libARUtils/obj/Sources/ARUTILS_FileSystem.c.o
 .debug_line    0x00000317      0x85d /home/ncs/CAPSTONE/out/arsdk-native/build/libARUtils/obj/Sources/ARUTILS_Http.c.o
 .debug_line    0x00000b74      0x33c /home/ncs/CAPSTONE/out/arsdk-native/build/libARUtils/obj/Sources/ARUTILS_Manager.c.o
 .debug_line    0x00000eb0      0xddf /home/ncs/CAPSTONE/out/arsdk-native/build/libARUtils/obj/Sources/ARUTILS_WifiFtp.c.o
 .debug_line    0x00001c8f       0xe8 /home/ncs/CAPSTONE/out/arsdk-native/build/libARUtils/obj/gen/Sources/ARUTILS_Error.c.o

.debug_frame    0x00000000      0xa64
 *(.debug_frame)
 .debug_frame   0x00000000      0x120 /home/ncs/CAPSTONE/out/arsdk-native/build/libARUtils/obj/Sources/ARUTILS_FileSystem.c.o
 .debug_frame   0x00000120      0x264 /home/ncs/CAPSTONE/out/arsdk-native/build/libARUtils/obj/Sources/ARUTILS_Http.c.o
 .debug_frame   0x00000384      0x180 /home/ncs/CAPSTONE/out/arsdk-native/build/libARUtils/obj/Sources/ARUTILS_Manager.c.o
 .debug_frame   0x00000504      0x540 /home/ncs/CAPSTONE/out/arsdk-native/build/libARUtils/obj/Sources/ARUTILS_WifiFtp.c.o
 .debug_frame   0x00000a44       0x20 /home/ncs/CAPSTONE/out/arsdk-native/build/libARUtils/obj/gen/Sources/ARUTILS_Error.c.o

.debug_str      0x00000000     0x3fe1
 *(.debug_str)
 .debug_str     0x00000000      0x9a3 /home/ncs/CAPSTONE/out/arsdk-native/build/libARUtils/obj/Sources/ARUTILS_FileSystem.c.o
                                0xa00 (size before relaxing)
 .debug_str     0x000009a3     0x2942 /home/ncs/CAPSTONE/out/arsdk-native/build/libARUtils/obj/Sources/ARUTILS_Http.c.o
                               0x309b (size before relaxing)
 .debug_str     0x000032e5      0x51d /home/ncs/CAPSTONE/out/arsdk-native/build/libARUtils/obj/Sources/ARUTILS_Manager.c.o
                                0xbd2 (size before relaxing)
 .debug_str     0x00003802      0x798 /home/ncs/CAPSTONE/out/arsdk-native/build/libARUtils/obj/Sources/ARUTILS_WifiFtp.c.o
                               0x32a9 (size before relaxing)
 .debug_str     0x00003f9a       0x47 /home/ncs/CAPSTONE/out/arsdk-native/build/libARUtils/obj/gen/Sources/ARUTILS_Error.c.o
                                0x444 (size before relaxing)

.debug_loc      0x00000000     0x7436
 *(.debug_loc)
 .debug_loc     0x00000000      0x532 /home/ncs/CAPSTONE/out/arsdk-native/build/libARUtils/obj/Sources/ARUTILS_FileSystem.c.o
 .debug_loc     0x00000532     0x23b5 /home/ncs/CAPSTONE/out/arsdk-native/build/libARUtils/obj/Sources/ARUTILS_Http.c.o
 .debug_loc     0x000028e7      0x9d1 /home/ncs/CAPSTONE/out/arsdk-native/build/libARUtils/obj/Sources/ARUTILS_Manager.c.o
 .debug_loc     0x000032b8     0x3eba /home/ncs/CAPSTONE/out/arsdk-native/build/libARUtils/obj/Sources/ARUTILS_WifiFtp.c.o
 .debug_loc     0x00007172      0x2c4 /home/ncs/CAPSTONE/out/arsdk-native/build/libARUtils/obj/gen/Sources/ARUTILS_Error.c.o

.debug_macinfo
 *(.debug_macinfo)

.debug_weaknames
 *(.debug_weaknames)

.debug_funcnames
 *(.debug_funcnames)

.debug_typenames
 *(.debug_typenames)

.debug_varnames
 *(.debug_varnames)

.debug_pubtypes
 *(.debug_pubtypes)

.debug_ranges   0x00000000      0x988
 *(.debug_ranges)
 .debug_ranges  0x00000000       0xf0 /home/ncs/CAPSTONE/out/arsdk-native/build/libARUtils/obj/Sources/ARUTILS_FileSystem.c.o
 .debug_ranges  0x000000f0      0x2b0 /home/ncs/CAPSTONE/out/arsdk-native/build/libARUtils/obj/Sources/ARUTILS_Http.c.o
 .debug_ranges  0x000003a0       0xc0 /home/ncs/CAPSTONE/out/arsdk-native/build/libARUtils/obj/Sources/ARUTILS_Manager.c.o
 .debug_ranges  0x00000460      0x518 /home/ncs/CAPSTONE/out/arsdk-native/build/libARUtils/obj/Sources/ARUTILS_WifiFtp.c.o
 .debug_ranges  0x00000978       0x10 /home/ncs/CAPSTONE/out/arsdk-native/build/libARUtils/obj/gen/Sources/ARUTILS_Error.c.o

.debug_macro
 *(.debug_macro)

.gnu.attributes
 *(.gnu.attributes)

.note.gnu.arm.ident
 *(.note.gnu.arm.ident)

/DISCARD/
 *(.note.GNU-stack)
 *(.gnu_debuglink)
 *(.gnu.lto_*)
OUTPUT(out/arsdk-native/build/libARUtils/libarutils.so elf32-littlearm)
