
As-needed library included to satisfy reference by file (symbol)

libarsal.so                   /home/ncs/CAPSTONE/out/arsdk-native/build/libARController/obj/Sources/ARCONTROLLER_Network.c.o (ARSAL_Mutex_Destroy)
libardiscovery.so             /home/ncs/CAPSTONE/out/arsdk-native/build/libARController/obj/Sources/ARCONTROLLER_Network.c.o (ARDISCOVERY_Device_WifiSetDeviceToControllerPort)
libarcommands.so              /home/ncs/CAPSTONE/out/arsdk-native/build/libARController/obj/Sources/ARCONTROLLER_Network.c.o (ARCOMMANDS_Decoder_DescribeBuffer)
libarstream.so                /home/ncs/CAPSTONE/out/arsdk-native/build/libARController/obj/Sources/ARCONTROLLER_Stream1.c.o (ARSTREAM_Reader_New)
libarstream2.so               /home/ncs/CAPSTONE/out/arsdk-native/build/libARController/obj/Sources/ARCONTROLLER_Stream2.c.o (ARSTREAM2_StreamReceiver_RunControlThread)
libarnetworkal.so             /home/ncs/CAPSTONE/out/arsdk-native/build/libARController/obj/Sources/ARCONTROLLER_Network.c.o (ARNETWORKAL_Error_ToString)
libarnetwork.so               /home/ncs/CAPSTONE/out/arsdk-native/build/libARController/obj/Sources/ARCONTROLLER_Network.c.o (ARNETWORK_Manager_ReceivingThreadRun)
libmux.so                     /home/ncs/CAPSTONE/out/arsdk-native/build/libARController/obj/Sources/ARCONTROLLER_Stream2.c.o (mux_ref)
libjson.so                    /home/ncs/CAPSTONE/out/arsdk-native/build/libARController/obj/gen/Sources/ARCONTROLLER_Device.c.o (json_object_new_string)
libgcc_s.so.1                 /home/ncs/CAPSTONE/out/arsdk-native/build/libARController/obj/Sources/ARCONTROLLER_Network.c.o (__aeabi_idiv@@GCC_3.5)
libpthread.so.0               /home/ncs/CAPSTONE/out/arsdk-native/build/libARController/obj/Sources/ARCONTROLLER_Network.c.o (__errno_location@@GLIBC_2.4)
libc.so.6                     /home/ncs/CAPSTONE/out/arsdk-native/build/libARController/obj/Sources/ARCONTROLLER_Dictionary.c.o (exit@@GLIBC_2.4)
ld-linux-armhf.so.3           /home/ncs/CAPSTONE/out/arsdk-native/build/libARController/obj/Sources/ARCONTROLLER_Dictionary.c.o (__stack_chk_guard@@GLIBC_2.4)

Discarded input sections

 .data          0x00000000        0x0 /usr/lib/gcc/arm-linux-gnueabihf/5/../../../arm-linux-gnueabihf/crti.o
 .bss           0x00000000        0x0 /usr/lib/gcc/arm-linux-gnueabihf/5/../../../arm-linux-gnueabihf/crti.o
 .note.GNU-stack
                0x00000000        0x0 /usr/lib/gcc/arm-linux-gnueabihf/5/../../../arm-linux-gnueabihf/crti.o
 .data          0x00000000        0x0 /usr/lib/gcc/arm-linux-gnueabihf/5/crtbeginS.o
 .note.GNU-stack
                0x00000000        0x0 /usr/lib/gcc/arm-linux-gnueabihf/5/crtbeginS.o
 .text          0x00000000        0x0 /home/ncs/CAPSTONE/out/arsdk-native/build/libARController/obj/Sources/ARCONTROLLER_Dictionary.c.o
 .data          0x00000000        0x0 /home/ncs/CAPSTONE/out/arsdk-native/build/libARController/obj/Sources/ARCONTROLLER_Dictionary.c.o
 .bss           0x00000000        0x0 /home/ncs/CAPSTONE/out/arsdk-native/build/libARController/obj/Sources/ARCONTROLLER_Dictionary.c.o
 .note.GNU-stack
                0x00000000        0x0 /home/ncs/CAPSTONE/out/arsdk-native/build/libARController/obj/Sources/ARCONTROLLER_Dictionary.c.o
 .text          0x00000000        0x0 /home/ncs/CAPSTONE/out/arsdk-native/build/libARController/obj/Sources/ARCONTROLLER_Frame.c.o
 .data          0x00000000        0x0 /home/ncs/CAPSTONE/out/arsdk-native/build/libARController/obj/Sources/ARCONTROLLER_Frame.c.o
 .bss           0x00000000        0x0 /home/ncs/CAPSTONE/out/arsdk-native/build/libARController/obj/Sources/ARCONTROLLER_Frame.c.o
 .note.GNU-stack
                0x00000000        0x0 /home/ncs/CAPSTONE/out/arsdk-native/build/libARController/obj/Sources/ARCONTROLLER_Frame.c.o
 .text          0x00000000        0x0 /home/ncs/CAPSTONE/out/arsdk-native/build/libARController/obj/Sources/ARCONTROLLER_Network.c.o
 .data          0x00000000        0x0 /home/ncs/CAPSTONE/out/arsdk-native/build/libARController/obj/Sources/ARCONTROLLER_Network.c.o
 .bss           0x00000000        0x0 /home/ncs/CAPSTONE/out/arsdk-native/build/libARController/obj/Sources/ARCONTROLLER_Network.c.o
 .note.GNU-stack
                0x00000000        0x0 /home/ncs/CAPSTONE/out/arsdk-native/build/libARController/obj/Sources/ARCONTROLLER_Network.c.o
 .text          0x00000000        0x0 /home/ncs/CAPSTONE/out/arsdk-native/build/libARController/obj/Sources/ARCONTROLLER_Stream.c.o
 .data          0x00000000        0x0 /home/ncs/CAPSTONE/out/arsdk-native/build/libARController/obj/Sources/ARCONTROLLER_Stream.c.o
 .bss           0x00000000        0x0 /home/ncs/CAPSTONE/out/arsdk-native/build/libARController/obj/Sources/ARCONTROLLER_Stream.c.o
 .note.GNU-stack
                0x00000000        0x0 /home/ncs/CAPSTONE/out/arsdk-native/build/libARController/obj/Sources/ARCONTROLLER_Stream.c.o
 .text          0x00000000        0x0 /home/ncs/CAPSTONE/out/arsdk-native/build/libARController/obj/Sources/ARCONTROLLER_StreamPool.c.o
 .data          0x00000000        0x0 /home/ncs/CAPSTONE/out/arsdk-native/build/libARController/obj/Sources/ARCONTROLLER_StreamPool.c.o
 .bss           0x00000000        0x0 /home/ncs/CAPSTONE/out/arsdk-native/build/libARController/obj/Sources/ARCONTROLLER_StreamPool.c.o
 .note.GNU-stack
                0x00000000        0x0 /home/ncs/CAPSTONE/out/arsdk-native/build/libARController/obj/Sources/ARCONTROLLER_StreamPool.c.o
 .text          0x00000000        0x0 /home/ncs/CAPSTONE/out/arsdk-native/build/libARController/obj/Sources/ARCONTROLLER_StreamQueue.c.o
 .data          0x00000000        0x0 /home/ncs/CAPSTONE/out/arsdk-native/build/libARController/obj/Sources/ARCONTROLLER_StreamQueue.c.o
 .bss           0x00000000        0x0 /home/ncs/CAPSTONE/out/arsdk-native/build/libARController/obj/Sources/ARCONTROLLER_StreamQueue.c.o
 .note.GNU-stack
                0x00000000        0x0 /home/ncs/CAPSTONE/out/arsdk-native/build/libARController/obj/Sources/ARCONTROLLER_StreamQueue.c.o
 .text          0x00000000        0x0 /home/ncs/CAPSTONE/out/arsdk-native/build/libARController/obj/Sources/ARCONTROLLER_Stream1.c.o
 .data          0x00000000        0x0 /home/ncs/CAPSTONE/out/arsdk-native/build/libARController/obj/Sources/ARCONTROLLER_Stream1.c.o
 .note.GNU-stack
                0x00000000        0x0 /home/ncs/CAPSTONE/out/arsdk-native/build/libARController/obj/Sources/ARCONTROLLER_Stream1.c.o
 .text          0x00000000        0x0 /home/ncs/CAPSTONE/out/arsdk-native/build/libARController/obj/Sources/ARCONTROLLER_Stream2.c.o
 .data          0x00000000        0x0 /home/ncs/CAPSTONE/out/arsdk-native/build/libARController/obj/Sources/ARCONTROLLER_Stream2.c.o
 .bss           0x00000000        0x0 /home/ncs/CAPSTONE/out/arsdk-native/build/libARController/obj/Sources/ARCONTROLLER_Stream2.c.o
 .note.GNU-stack
                0x00000000        0x0 /home/ncs/CAPSTONE/out/arsdk-native/build/libARController/obj/Sources/ARCONTROLLER_Stream2.c.o
 .text          0x00000000        0x0 /home/ncs/CAPSTONE/out/arsdk-native/build/libARController/obj/Sources/ARCONTROLLER_StreamSender.c.o
 .data          0x00000000        0x0 /home/ncs/CAPSTONE/out/arsdk-native/build/libARController/obj/Sources/ARCONTROLLER_StreamSender.c.o
 .bss           0x00000000        0x0 /home/ncs/CAPSTONE/out/arsdk-native/build/libARController/obj/Sources/ARCONTROLLER_StreamSender.c.o
 .note.GNU-stack
                0x00000000        0x0 /home/ncs/CAPSTONE/out/arsdk-native/build/libARController/obj/Sources/ARCONTROLLER_StreamSender.c.o
 .text          0x00000000        0x0 /home/ncs/CAPSTONE/out/arsdk-native/build/libARController/obj/gen/Sources/ARCONTROLLER_Device.c.o
 .data          0x00000000        0x0 /home/ncs/CAPSTONE/out/arsdk-native/build/libARController/obj/gen/Sources/ARCONTROLLER_Device.c.o
 .bss           0x00000000        0x0 /home/ncs/CAPSTONE/out/arsdk-native/build/libARController/obj/gen/Sources/ARCONTROLLER_Device.c.o
 .note.GNU-stack
                0x00000000        0x0 /home/ncs/CAPSTONE/out/arsdk-native/build/libARController/obj/gen/Sources/ARCONTROLLER_Device.c.o
 .text          0x00000000        0x0 /home/ncs/CAPSTONE/out/arsdk-native/build/libARController/obj/gen/Sources/ARCONTROLLER_DICTIONARY_Key.c.o
 .data          0x00000000        0x0 /home/ncs/CAPSTONE/out/arsdk-native/build/libARController/obj/gen/Sources/ARCONTROLLER_DICTIONARY_Key.c.o
 .bss           0x00000000        0x0 /home/ncs/CAPSTONE/out/arsdk-native/build/libARController/obj/gen/Sources/ARCONTROLLER_DICTIONARY_Key.c.o
 .note.GNU-stack
                0x00000000        0x0 /home/ncs/CAPSTONE/out/arsdk-native/build/libARController/obj/gen/Sources/ARCONTROLLER_DICTIONARY_Key.c.o
 .text          0x00000000        0x0 /home/ncs/CAPSTONE/out/arsdk-native/build/libARController/obj/gen/Sources/ARCONTROLLER_Error.c.o
 .data          0x00000000        0x0 /home/ncs/CAPSTONE/out/arsdk-native/build/libARController/obj/gen/Sources/ARCONTROLLER_Error.c.o
 .bss           0x00000000        0x0 /home/ncs/CAPSTONE/out/arsdk-native/build/libARController/obj/gen/Sources/ARCONTROLLER_Error.c.o
 .note.GNU-stack
                0x00000000        0x0 /home/ncs/CAPSTONE/out/arsdk-native/build/libARController/obj/gen/Sources/ARCONTROLLER_Error.c.o
 .text          0x00000000        0x0 /home/ncs/CAPSTONE/out/arsdk-native/build/libARController/obj/gen/Sources/ARCONTROLLER_Feature.c.o
 .data          0x00000000        0x0 /home/ncs/CAPSTONE/out/arsdk-native/build/libARController/obj/gen/Sources/ARCONTROLLER_Feature.c.o
 .bss           0x00000000        0x0 /home/ncs/CAPSTONE/out/arsdk-native/build/libARController/obj/gen/Sources/ARCONTROLLER_Feature.c.o
 .note.GNU-stack
                0x00000000        0x0 /home/ncs/CAPSTONE/out/arsdk-native/build/libARController/obj/gen/Sources/ARCONTROLLER_Feature.c.o
 .text          0x00000000        0x0 /usr/lib/gcc/arm-linux-gnueabihf/5/crtendS.o
 .data          0x00000000        0x0 /usr/lib/gcc/arm-linux-gnueabihf/5/crtendS.o
 .bss           0x00000000        0x0 /usr/lib/gcc/arm-linux-gnueabihf/5/crtendS.o
 .note.GNU-stack
                0x00000000        0x0 /usr/lib/gcc/arm-linux-gnueabihf/5/crtendS.o
 .text          0x00000000        0x0 /usr/lib/gcc/arm-linux-gnueabihf/5/../../../arm-linux-gnueabihf/crtn.o
 .data          0x00000000        0x0 /usr/lib/gcc/arm-linux-gnueabihf/5/../../../arm-linux-gnueabihf/crtn.o
 .bss           0x00000000        0x0 /usr/lib/gcc/arm-linux-gnueabihf/5/../../../arm-linux-gnueabihf/crtn.o
 .note.GNU-stack
                0x00000000        0x0 /usr/lib/gcc/arm-linux-gnueabihf/5/../../../arm-linux-gnueabihf/crtn.o

Memory Configuration

Name             Origin             Length             Attributes
*default*        0x00000000         0xffffffff

Linker script and memory map

LOAD /usr/lib/gcc/arm-linux-gnueabihf/5/../../../arm-linux-gnueabihf/crti.o
LOAD /usr/lib/gcc/arm-linux-gnueabihf/5/crtbeginS.o
LOAD /home/ncs/CAPSTONE/out/arsdk-native/build/libARController/obj/Sources/ARCONTROLLER_Dictionary.c.o
LOAD /home/ncs/CAPSTONE/out/arsdk-native/build/libARController/obj/Sources/ARCONTROLLER_Frame.c.o
LOAD /home/ncs/CAPSTONE/out/arsdk-native/build/libARController/obj/Sources/ARCONTROLLER_Network.c.o
LOAD /home/ncs/CAPSTONE/out/arsdk-native/build/libARController/obj/Sources/ARCONTROLLER_Stream.c.o
LOAD /home/ncs/CAPSTONE/out/arsdk-native/build/libARController/obj/Sources/ARCONTROLLER_StreamPool.c.o
LOAD /home/ncs/CAPSTONE/out/arsdk-native/build/libARController/obj/Sources/ARCONTROLLER_StreamQueue.c.o
LOAD /home/ncs/CAPSTONE/out/arsdk-native/build/libARController/obj/Sources/ARCONTROLLER_Stream1.c.o
LOAD /home/ncs/CAPSTONE/out/arsdk-native/build/libARController/obj/Sources/ARCONTROLLER_Stream2.c.o
LOAD /home/ncs/CAPSTONE/out/arsdk-native/build/libARController/obj/Sources/ARCONTROLLER_StreamSender.c.o
LOAD /home/ncs/CAPSTONE/out/arsdk-native/build/libARController/obj/gen/Sources/ARCONTROLLER_Device.c.o
LOAD /home/ncs/CAPSTONE/out/arsdk-native/build/libARController/obj/gen/Sources/ARCONTROLLER_DICTIONARY_Key.c.o
LOAD /home/ncs/CAPSTONE/out/arsdk-native/build/libARController/obj/gen/Sources/ARCONTROLLER_Error.c.o
LOAD /home/ncs/CAPSTONE/out/arsdk-native/build/libARController/obj/gen/Sources/ARCONTROLLER_Feature.c.o
LOAD /home/ncs/CAPSTONE/out/arsdk-native/staging/usr/lib/libarsal.so
LOAD /home/ncs/CAPSTONE/out/arsdk-native/staging/usr/lib/libardiscovery.so
LOAD /home/ncs/CAPSTONE/out/arsdk-native/staging/usr/lib/libarcommands.so
LOAD /home/ncs/CAPSTONE/out/arsdk-native/staging/usr/lib/libarutils.so
LOAD /home/ncs/CAPSTONE/out/arsdk-native/staging/usr/lib/libarstream.so
LOAD /home/ncs/CAPSTONE/out/arsdk-native/staging/usr/lib/libarstream2.so
LOAD /home/ncs/CAPSTONE/out/arsdk-native/staging/usr/lib/libarnetworkal.so
LOAD /home/ncs/CAPSTONE/out/arsdk-native/staging/usr/lib/libarnetwork.so
LOAD /home/ncs/CAPSTONE/out/arsdk-native/staging/usr/lib/libmux.so
LOAD /home/ncs/CAPSTONE/out/arsdk-native/staging/usr/lib/libjson.so
LOAD /usr/lib/gcc/arm-linux-gnueabihf/5/../../../arm-linux-gnueabihf/librt.so
LOAD /usr/lib/gcc/arm-linux-gnueabihf/5/libstdc++.so
LOAD /usr/lib/gcc/arm-linux-gnueabihf/5/../../../arm-linux-gnueabihf/libm.so
LOAD /usr/lib/gcc/arm-linux-gnueabihf/5/libgcc_s.so
START GROUP
LOAD /usr/lib/gcc/arm-linux-gnueabihf/5/libgcc_s.so.1
LOAD /usr/lib/gcc/arm-linux-gnueabihf/5/libgcc.a
END GROUP
LOAD /usr/lib/gcc/arm-linux-gnueabihf/5/../../../arm-linux-gnueabihf/libpthread.so
START GROUP
LOAD /lib/arm-linux-gnueabihf/libpthread.so.0
LOAD /usr/lib/arm-linux-gnueabihf/libpthread_nonshared.a
END GROUP
LOAD /usr/lib/gcc/arm-linux-gnueabihf/5/../../../arm-linux-gnueabihf/libc.so
START GROUP
LOAD /lib/arm-linux-gnueabihf/libc.so.6
LOAD /usr/lib/arm-linux-gnueabihf/libc_nonshared.a
LOAD /lib/arm-linux-gnueabihf/ld-linux-armhf.so.3
END GROUP
LOAD /usr/lib/gcc/arm-linux-gnueabihf/5/libgcc_s.so
START GROUP
LOAD /usr/lib/gcc/arm-linux-gnueabihf/5/libgcc_s.so.1
LOAD /usr/lib/gcc/arm-linux-gnueabihf/5/libgcc.a
END GROUP
LOAD /usr/lib/gcc/arm-linux-gnueabihf/5/crtendS.o
LOAD /usr/lib/gcc/arm-linux-gnueabihf/5/../../../arm-linux-gnueabihf/crtn.o
                0x000000f4                . = (0x0 + SIZEOF_HEADERS)

.note.gnu.build-id
                0x000000f4       0x24
 *(.note.gnu.build-id)
 .note.gnu.build-id
                0x000000f4       0x24 linker stubs

.hash
 *(.hash)

.gnu.hash       0x00000118     0x3298
 *(.gnu.hash)
 .gnu.hash      0x00000118     0x3298 /usr/lib/gcc/arm-linux-gnueabihf/5/../../../arm-linux-gnueabihf/crti.o

.dynsym         0x000033b0     0x90f0
 *(.dynsym)
 .dynsym        0x000033b0     0x90f0 /usr/lib/gcc/arm-linux-gnueabihf/5/../../../arm-linux-gnueabihf/crti.o

.dynstr         0x0000c4a0    0x23d42
 *(.dynstr)
 .dynstr        0x0000c4a0    0x23d42 /usr/lib/gcc/arm-linux-gnueabihf/5/../../../arm-linux-gnueabihf/crti.o

.gnu.version    0x000301e2     0x121e
 *(.gnu.version)
 .gnu.version   0x000301e2     0x121e /usr/lib/gcc/arm-linux-gnueabihf/5/../../../arm-linux-gnueabihf/crti.o

.gnu.version_d  0x00031400        0x0
 *(.gnu.version_d)
 .gnu.version_d
                0x00031400        0x0 /usr/lib/gcc/arm-linux-gnueabihf/5/../../../arm-linux-gnueabihf/crti.o

.gnu.version_r  0x00031400       0x90
 *(.gnu.version_r)
 .gnu.version_r
                0x00031400       0x90 /usr/lib/gcc/arm-linux-gnueabihf/5/../../../arm-linux-gnueabihf/crti.o

.rel.dyn        0x00031490     0x34d8
 *(.rel.init)
 *(.rel.text .rel.text.* .rel.gnu.linkonce.t.*)
 .rel.text      0x00031490        0x0 /usr/lib/gcc/arm-linux-gnueabihf/5/../../../arm-linux-gnueabihf/crti.o
 *(.rel.fini)
 *(.rel.rodata .rel.rodata.* .rel.gnu.linkonce.r.*)
 *(.rel.data.rel.ro .rel.data.rel.ro.* .rel.gnu.linkonce.d.rel.ro.*)
 *(.rel.data .rel.data.* .rel.gnu.linkonce.d.*)
 .rel.data.rel.local
                0x00031490     0x1188 /usr/lib/gcc/arm-linux-gnueabihf/5/../../../arm-linux-gnueabihf/crti.o
 *(.rel.tdata .rel.tdata.* .rel.gnu.linkonce.td.*)
 *(.rel.tbss .rel.tbss.* .rel.gnu.linkonce.tb.*)
 *(.rel.ctors)
 *(.rel.dtors)
 *(.rel.got)
 .rel.got       0x00032618     0x2340 /usr/lib/gcc/arm-linux-gnueabihf/5/../../../arm-linux-gnueabihf/crti.o
 *(.rel.bss .rel.bss.* .rel.gnu.linkonce.b.*)
 *(.rel.iplt)
 .rel.iplt      0x00034958        0x0 /usr/lib/gcc/arm-linux-gnueabihf/5/../../../arm-linux-gnueabihf/crti.o
 .rel.fini_array
                0x00034958        0x8 /usr/lib/gcc/arm-linux-gnueabihf/5/../../../arm-linux-gnueabihf/crti.o
 .rel.init_array
                0x00034960        0x8 /usr/lib/gcc/arm-linux-gnueabihf/5/../../../arm-linux-gnueabihf/crti.o

.rela.dyn
 *(.rela.init)
 *(.rela.text .rela.text.* .rela.gnu.linkonce.t.*)
 *(.rela.fini)
 *(.rela.rodata .rela.rodata.* .rela.gnu.linkonce.r.*)
 *(.rela.data .rela.data.* .rela.gnu.linkonce.d.*)
 *(.rela.tdata .rela.tdata.* .rela.gnu.linkonce.td.*)
 *(.rela.tbss .rela.tbss.* .rela.gnu.linkonce.tb.*)
 *(.rela.ctors)
 *(.rela.dtors)
 *(.rela.got)
 *(.rela.bss .rela.bss.* .rela.gnu.linkonce.b.*)
 *(.rela.iplt)

.rel.plt        0x00034968     0x2358
 *(.rel.plt)
 .rel.plt       0x00034968     0x2358 /usr/lib/gcc/arm-linux-gnueabihf/5/../../../arm-linux-gnueabihf/crti.o

.rela.plt
 *(.rela.plt)

.init           0x00036cc0        0xc
 *(SORT(.init))
 .init          0x00036cc0        0x8 /usr/lib/gcc/arm-linux-gnueabihf/5/../../../arm-linux-gnueabihf/crti.o
                0x00036cc0                _init
 .init          0x00036cc8        0x4 /usr/lib/gcc/arm-linux-gnueabihf/5/../../../arm-linux-gnueabihf/crtn.o

.plt            0x00036ccc     0x355c
 *(.plt)
 .plt           0x00036ccc     0x355c /usr/lib/gcc/arm-linux-gnueabihf/5/../../../arm-linux-gnueabihf/crti.o

.iplt           0x0003a228        0x0
 *(.iplt)
 .iplt          0x0003a228        0x0 /usr/lib/gcc/arm-linux-gnueabihf/5/../../../arm-linux-gnueabihf/crti.o

.text           0x0003a228    0xee354
 *(.text.unlikely .text.*_unlikely .text.unlikely.*)
 *(.text.exit .text.exit.*)
 *(.text.startup .text.startup.*)
 *(.text.hot .text.hot.*)
 *(.text .stub .text.* .gnu.linkonce.t.*)
 .text          0x0003a228       0x24 /usr/lib/gcc/arm-linux-gnueabihf/5/../../../arm-linux-gnueabihf/crti.o
 .text          0x0003a24c       0xd0 /usr/lib/gcc/arm-linux-gnueabihf/5/crtbeginS.o
 .text.ARCONTROLLER_Dictionary_DeleteCallbackList
                0x0003a31c       0x54 /home/ncs/CAPSTONE/out/arsdk-native/build/libARController/obj/Sources/ARCONTROLLER_Dictionary.c.o
                0x0003a31c                ARCONTROLLER_Dictionary_DeleteCallbackList
 .text.ARCONTROLLER_Dictionary_Delete
                0x0003a370       0x20 /home/ncs/CAPSTONE/out/arsdk-native/build/libARController/obj/Sources/ARCONTROLLER_Dictionary.c.o
                0x0003a370                ARCONTROLLER_Dictionary_Delete
 .text.ARCONTROLLER_Dictionary_New
                0x0003a390       0x50 /home/ncs/CAPSTONE/out/arsdk-native/build/libARController/obj/Sources/ARCONTROLLER_Dictionary.c.o
                0x0003a390                ARCONTROLLER_Dictionary_New
 .text.ARCONTROLLER_Dictionary_AddCallbackInList
                0x0003a3e0       0x3c /home/ncs/CAPSTONE/out/arsdk-native/build/libARController/obj/Sources/ARCONTROLLER_Dictionary.c.o
                0x0003a3e0                ARCONTROLLER_Dictionary_AddCallbackInList
 .text.ARCONTROLLER_Dictionary_DeleteDictionary
                0x0003a41c      0x114 /home/ncs/CAPSTONE/out/arsdk-native/build/libARController/obj/Sources/ARCONTROLLER_Dictionary.c.o
                0x0003a41c                ARCONTROLLER_Dictionary_DeleteDictionary
 .text.ARCONTROLLER_DICTIONARY_NotifyAllCallbackInList
                0x0003a530       0x1e /home/ncs/CAPSTONE/out/arsdk-native/build/libARController/obj/Sources/ARCONTROLLER_Dictionary.c.o
                0x0003a530                ARCONTROLLER_DICTIONARY_NotifyAllCallbackInList
 *fill*         0x0003a54e        0x2 
 .text.ARCONTROLLER_Dictionary_Notify
                0x0003a550       0xc4 /home/ncs/CAPSTONE/out/arsdk-native/build/libARController/obj/Sources/ARCONTROLLER_Dictionary.c.o
                0x0003a550                ARCONTROLLER_Dictionary_Notify
 .text.ARCONTROLLER_DICTIONARY_ElementCompare
                0x0003a614       0x18 /home/ncs/CAPSTONE/out/arsdk-native/build/libARController/obj/Sources/ARCONTROLLER_Dictionary.c.o
                0x0003a614                ARCONTROLLER_DICTIONARY_ElementCompare
 .text.ARCONTROLLER_Dictionary_AddCallback
                0x0003a62c       0x70 /home/ncs/CAPSTONE/out/arsdk-native/build/libARController/obj/Sources/ARCONTROLLER_Dictionary.c.o
                0x0003a62c                ARCONTROLLER_Dictionary_AddCallback
 .text.ARCONTROLLER_Dictionary_AddDictionaryElement
                0x0003a69c      0x384 /home/ncs/CAPSTONE/out/arsdk-native/build/libARController/obj/Sources/ARCONTROLLER_Dictionary.c.o
                0x0003a69c                ARCONTROLLER_Dictionary_AddDictionaryElement
 .text.ARCONTROLLER_Dictionary_RemoveCallbackFromList
                0x0003aa20       0x9c /home/ncs/CAPSTONE/out/arsdk-native/build/libARController/obj/Sources/ARCONTROLLER_Dictionary.c.o
                0x0003aa20                ARCONTROLLER_Dictionary_RemoveCallbackFromList
 .text.ARCONTROLLER_Dictionary_RemoveCallback
                0x0003aabc       0x10 /home/ncs/CAPSTONE/out/arsdk-native/build/libARController/obj/Sources/ARCONTROLLER_Dictionary.c.o
                0x0003aabc                ARCONTROLLER_Dictionary_RemoveCallback
 .text.ARCONTROLLER_Dictionary_RemoveDictionaryElement
                0x0003aacc       0xd8 /home/ncs/CAPSTONE/out/arsdk-native/build/libARController/obj/Sources/ARCONTROLLER_Dictionary.c.o
                0x0003aacc                ARCONTROLLER_Dictionary_RemoveDictionaryElement
 .text.ARCONTROLLER_Frame_NewWithCapacity
                0x0003aba4       0x58 /home/ncs/CAPSTONE/out/arsdk-native/build/libARController/obj/Sources/ARCONTROLLER_Frame.c.o
                0x0003aba4                ARCONTROLLER_Frame_NewWithCapacity
 .text.ARCONTROLLER_Frame_New
                0x0003abfc        0xa /home/ncs/CAPSTONE/out/arsdk-native/build/libARController/obj/Sources/ARCONTROLLER_Frame.c.o
                0x0003abfc                ARCONTROLLER_Frame_New
 .text.ARCONTROLLER_Frame_Delete
                0x0003ac06       0x28 /home/ncs/CAPSTONE/out/arsdk-native/build/libARController/obj/Sources/ARCONTROLLER_Frame.c.o
                0x0003ac06                ARCONTROLLER_Frame_Delete
 *fill*         0x0003ac2e        0x2 
 .text.ARCONTROLLER_Frame_ensureCapacityIsAtLeast
                0x0003ac30       0x3c /home/ncs/CAPSTONE/out/arsdk-native/build/libARController/obj/Sources/ARCONTROLLER_Frame.c.o
                0x0003ac30                ARCONTROLLER_Frame_ensureCapacityIsAtLeast
 .text.ARCONTROLLER_Frame_SetFree
                0x0003ac6c       0x2a /home/ncs/CAPSTONE/out/arsdk-native/build/libARController/obj/Sources/ARCONTROLLER_Frame.c.o
                0x0003ac6c                ARCONTROLLER_Frame_SetFree
 .text.ARCONTROLLER_Network_OnDisconnectNetwork
                0x0003ac96       0x10 /home/ncs/CAPSTONE/out/arsdk-native/build/libARController/obj/Sources/ARCONTROLLER_Network.c.o
                0x0003ac96                ARCONTROLLER_Network_OnDisconnectNetwork
 *fill*         0x0003aca6        0x2 
 .text.ARCONTROLLER_Network_OnSendJson
                0x0003aca8       0x38 /home/ncs/CAPSTONE/out/arsdk-native/build/libARController/obj/Sources/ARCONTROLLER_Network.c.o
                0x0003aca8                ARCONTROLLER_Network_OnSendJson
 .text.ARCONTROLLER_Network_OnReceiveJson
                0x0003ace0       0x60 /home/ncs/CAPSTONE/out/arsdk-native/build/libARController/obj/Sources/ARCONTROLLER_Network.c.o
                0x0003ace0                ARCONTROLLER_Network_OnReceiveJson
 .text.ARCONTROLLER_Network_ReaderRun
                0x0003ad40      0x1ec /home/ncs/CAPSTONE/out/arsdk-native/build/libARController/obj/Sources/ARCONTROLLER_Network.c.o
                0x0003ad40                ARCONTROLLER_Network_ReaderRun
 .text.ARCONTROLLER_Network_SendingCallback
                0x0003af2c       0xa8 /home/ncs/CAPSTONE/out/arsdk-native/build/libARController/obj/Sources/ARCONTROLLER_Network.c.o
                0x0003af2c                ARCONTROLLER_Network_SendingCallback
 .text.ARCONTROLLER_Network_Pause
                0x0003afd4      0x110 /home/ncs/CAPSTONE/out/arsdk-native/build/libARController/obj/Sources/ARCONTROLLER_Network.c.o
                0x0003afd4                ARCONTROLLER_Network_Pause
 .text.ARCONTROLLER_Network_Resume
                0x0003b0e4      0x120 /home/ncs/CAPSTONE/out/arsdk-native/build/libARController/obj/Sources/ARCONTROLLER_Network.c.o
                0x0003b0e4                ARCONTROLLER_Network_Resume
 .text.ARCONTROLLER_Network_SetVideoReceiveCallback
                0x0003b204       0x54 /home/ncs/CAPSTONE/out/arsdk-native/build/libARController/obj/Sources/ARCONTROLLER_Network.c.o
                0x0003b204                ARCONTROLLER_Network_SetVideoReceiveCallback
 .text.ARCONTROLLER_Network_StartVideoStream
                0x0003b258       0x38 /home/ncs/CAPSTONE/out/arsdk-native/build/libARController/obj/Sources/ARCONTROLLER_Network.c.o
                0x0003b258                ARCONTROLLER_Network_StartVideoStream
 .text.ARCONTROLLER_Network_StopVideoStream
                0x0003b290       0x38 /home/ncs/CAPSTONE/out/arsdk-native/build/libARController/obj/Sources/ARCONTROLLER_Network.c.o
                0x0003b290                ARCONTROLLER_Network_StopVideoStream
 .text.ARCONTROLLER_Network_SetVideoStreamMP4Compliant
                0x0003b2c8       0x3c /home/ncs/CAPSTONE/out/arsdk-native/build/libARController/obj/Sources/ARCONTROLLER_Network.c.o
                0x0003b2c8                ARCONTROLLER_Network_SetVideoStreamMP4Compliant
 .text.ARCONTROLLER_Network_SetAudioReceiveCallback
                0x0003b304       0x54 /home/ncs/CAPSTONE/out/arsdk-native/build/libARController/obj/Sources/ARCONTROLLER_Network.c.o
                0x0003b304                ARCONTROLLER_Network_SetAudioReceiveCallback
 .text.ARCONTROLLER_Network_StartAudioStream
                0x0003b358       0x50 /home/ncs/CAPSTONE/out/arsdk-native/build/libARController/obj/Sources/ARCONTROLLER_Network.c.o
                0x0003b358                ARCONTROLLER_Network_StartAudioStream
 .text.ARCONTROLLER_Network_StopAudioStream
                0x0003b3a8       0x4c /home/ncs/CAPSTONE/out/arsdk-native/build/libARController/obj/Sources/ARCONTROLLER_Network.c.o
                0x0003b3a8                ARCONTROLLER_Network_StopAudioStream
 .text.ARCONTROLLER_Network_SendData
                0x0003b3f4      0x130 /home/ncs/CAPSTONE/out/arsdk-native/build/libARController/obj/Sources/ARCONTROLLER_Network.c.o
                0x0003b3f4                ARCONTROLLER_Network_SendData
 .text.ARCONTROLLER_Network_SendAudioFrame
                0x0003b524       0x2a /home/ncs/CAPSTONE/out/arsdk-native/build/libARController/obj/Sources/ARCONTROLLER_Network.c.o
                0x0003b524                ARCONTROLLER_Network_SendAudioFrame
 *fill*         0x0003b54e        0x2 
 .text.ARCONTROLLER_Network_CreateNetworkThreads
                0x0003b550      0x110 /home/ncs/CAPSTONE/out/arsdk-native/build/libARController/obj/Sources/ARCONTROLLER_Network.c.o
                0x0003b550                ARCONTROLLER_Network_CreateNetworkThreads
 .text.ARCONTROLLER_Network_StopNetworkThreads
                0x0003b660       0x42 /home/ncs/CAPSTONE/out/arsdk-native/build/libARController/obj/Sources/ARCONTROLLER_Network.c.o
                0x0003b660                ARCONTROLLER_Network_StopNetworkThreads
 *fill*         0x0003b6a2        0x2 
 .text.ARCONTROLLER_Network_CreateReaderThreads
                0x0003b6a4      0x198 /home/ncs/CAPSTONE/out/arsdk-native/build/libARController/obj/Sources/ARCONTROLLER_Network.c.o
                0x0003b6a4                ARCONTROLLER_Network_CreateReaderThreads
 .text.ARCONTROLLER_Network_StopReaderThreads
                0x0003b83c       0x5a /home/ncs/CAPSTONE/out/arsdk-native/build/libARController/obj/Sources/ARCONTROLLER_Network.c.o
                0x0003b83c                ARCONTROLLER_Network_StopReaderThreads
 .text.ARCONTROLLER_Network_Delete
                0x0003b896       0x7a /home/ncs/CAPSTONE/out/arsdk-native/build/libARController/obj/Sources/ARCONTROLLER_Network.c.o
                0x0003b896                ARCONTROLLER_Network_Delete
 .text.ARCONTROLLER_Network_New
                0x0003b910      0x558 /home/ncs/CAPSTONE/out/arsdk-native/build/libARController/obj/Sources/ARCONTROLLER_Network.c.o
                0x0003b910                ARCONTROLLER_Network_New
 .text.ARCONTROLLER_Stream_SetMP4Compliant
                0x0003be68       0x20 /home/ncs/CAPSTONE/out/arsdk-native/build/libARController/obj/Sources/ARCONTROLLER_Stream.c.o
                0x0003be68                ARCONTROLLER_Stream_SetMP4Compliant
 .text.ARCONTROLLER_Stream_Stop
                0x0003be88       0x3c /home/ncs/CAPSTONE/out/arsdk-native/build/libARController/obj/Sources/ARCONTROLLER_Stream.c.o
                0x0003be88                ARCONTROLLER_Stream_Stop
 .text.ARCONTROLLER_Stream_Delete
                0x0003bec4       0x2a /home/ncs/CAPSTONE/out/arsdk-native/build/libARController/obj/Sources/ARCONTROLLER_Stream.c.o
                0x0003bec4                ARCONTROLLER_Stream_Delete
 *fill*         0x0003beee        0x2 
 .text.ARCONTROLLER_Stream_New
                0x0003bef0       0x94 /home/ncs/CAPSTONE/out/arsdk-native/build/libARController/obj/Sources/ARCONTROLLER_Stream.c.o
                0x0003bef0                ARCONTROLLER_Stream_New
 .text.ARCONTROLLER_Stream_video_New
                0x0003bf84       0x68 /home/ncs/CAPSTONE/out/arsdk-native/build/libARController/obj/Sources/ARCONTROLLER_Stream.c.o
                0x0003bf84                ARCONTROLLER_Stream_video_New
 .text.ARCONTROLLER_Stream_audio_New
                0x0003bfec        0x8 /home/ncs/CAPSTONE/out/arsdk-native/build/libARController/obj/Sources/ARCONTROLLER_Stream.c.o
                0x0003bfec                ARCONTROLLER_Stream_audio_New
 .text.ARCONTROLLER_Stream_Start
                0x0003bff4       0x40 /home/ncs/CAPSTONE/out/arsdk-native/build/libARController/obj/Sources/ARCONTROLLER_Stream.c.o
                0x0003bff4                ARCONTROLLER_Stream_Start
 .text.ARCONTROLLER_Stream_SetReceiveFrameCallback
                0x0003c034       0x32 /home/ncs/CAPSTONE/out/arsdk-native/build/libARController/obj/Sources/ARCONTROLLER_Stream.c.o
                0x0003c034                ARCONTROLLER_Stream_SetReceiveFrameCallback
 *fill*         0x0003c066        0x2 
 .text.ARCONTROLLER_Stream_OnSendJson
                0x0003c068       0x14 /home/ncs/CAPSTONE/out/arsdk-native/build/libARController/obj/Sources/ARCONTROLLER_Stream.c.o
                0x0003c068                ARCONTROLLER_Stream_OnSendJson
 .text.ARCONTROLLER_Stream_OnReceiveJson
                0x0003c07c       0x24 /home/ncs/CAPSTONE/out/arsdk-native/build/libARController/obj/Sources/ARCONTROLLER_Stream.c.o
                0x0003c07c                ARCONTROLLER_Stream_OnReceiveJson
 .text.ARCONTROLLER_StreamPool_Delete
                0x0003c0a0       0x3c /home/ncs/CAPSTONE/out/arsdk-native/build/libARController/obj/Sources/ARCONTROLLER_StreamPool.c.o
                0x0003c0a0                ARCONTROLLER_StreamPool_Delete
 .text.ARCONTROLLER_StreamPool_New
                0x0003c0dc       0xa0 /home/ncs/CAPSTONE/out/arsdk-native/build/libARController/obj/Sources/ARCONTROLLER_StreamPool.c.o
                0x0003c0dc                ARCONTROLLER_StreamPool_New
 .text.ARCONTROLLER_StreamPool_GetNextFreeFrame
                0x0003c17c       0x44 /home/ncs/CAPSTONE/out/arsdk-native/build/libARController/obj/Sources/ARCONTROLLER_StreamPool.c.o
                0x0003c17c                ARCONTROLLER_StreamPool_GetNextFreeFrame
 .text.ARCONTROLLER_StreamPool_GetFrameFromData
                0x0003c1c0       0x38 /home/ncs/CAPSTONE/out/arsdk-native/build/libARController/obj/Sources/ARCONTROLLER_StreamPool.c.o
                0x0003c1c0                ARCONTROLLER_StreamPool_GetFrameFromData
 .text.ARCONTROLLER_StreamQueue_New
                0x0003c1f8       0x44 /home/ncs/CAPSTONE/out/arsdk-native/build/libARController/obj/Sources/ARCONTROLLER_StreamQueue.c.o
                0x0003c1f8                ARCONTROLLER_StreamQueue_New
 .text.ARCONTROLLER_StreamQueue_LocalPopFrame
                0x0003c23c       0x58 /home/ncs/CAPSTONE/out/arsdk-native/build/libARController/obj/Sources/ARCONTROLLER_StreamQueue.c.o
                0x0003c23c                ARCONTROLLER_StreamQueue_LocalPopFrame
 .text.ARCONTROLLER_StreamQueue_Pop
                0x0003c294       0x38 /home/ncs/CAPSTONE/out/arsdk-native/build/libARController/obj/Sources/ARCONTROLLER_StreamQueue.c.o
                0x0003c294                ARCONTROLLER_StreamQueue_Pop
 .text.ARCONTROLLER_StreamQueue_PopWithTimeout
                0x0003c2cc       0x78 /home/ncs/CAPSTONE/out/arsdk-native/build/libARController/obj/Sources/ARCONTROLLER_StreamQueue.c.o
                0x0003c2cc                ARCONTROLLER_StreamQueue_PopWithTimeout
 .text.ARCONTROLLER_StreamQueue_LocalTryPop
                0x0003c344       0x2c /home/ncs/CAPSTONE/out/arsdk-native/build/libARController/obj/Sources/ARCONTROLLER_StreamQueue.c.o
                0x0003c344                ARCONTROLLER_StreamQueue_LocalTryPop
 .text.ARCONTROLLER_StreamQueue_TryPop
                0x0003c370       0x48 /home/ncs/CAPSTONE/out/arsdk-native/build/libARController/obj/Sources/ARCONTROLLER_StreamQueue.c.o
                0x0003c370                ARCONTROLLER_StreamQueue_TryPop
 .text.ARCONTROLLER_StreamQueue_LocalFlush
                0x0003c3b8       0xc8 /home/ncs/CAPSTONE/out/arsdk-native/build/libARController/obj/Sources/ARCONTROLLER_StreamQueue.c.o
                0x0003c3b8                ARCONTROLLER_StreamQueue_LocalFlush
 .text.ARCONTROLLER_StreamQueue_Push
                0x0003c480       0x6c /home/ncs/CAPSTONE/out/arsdk-native/build/libARController/obj/Sources/ARCONTROLLER_StreamQueue.c.o
                0x0003c480                ARCONTROLLER_StreamQueue_Push
 .text.ARCONTROLLER_StreamQueue_Flush
                0x0003c4ec        0xc /home/ncs/CAPSTONE/out/arsdk-native/build/libARController/obj/Sources/ARCONTROLLER_StreamQueue.c.o
                0x0003c4ec                ARCONTROLLER_StreamQueue_Flush
 .text.ARCONTROLLER_StreamQueue_Delete
                0x0003c4f8       0x2a /home/ncs/CAPSTONE/out/arsdk-native/build/libARController/obj/Sources/ARCONTROLLER_StreamQueue.c.o
                0x0003c4f8                ARCONTROLLER_StreamQueue_Delete
 *fill*         0x0003c522        0x2 
 .text.ARCONTROLLER_Stream1_FrameCompleteCallback
                0x0003c524      0x1e4 /home/ncs/CAPSTONE/out/arsdk-native/build/libARController/obj/Sources/ARCONTROLLER_Stream1.c.o
                0x0003c524                ARCONTROLLER_Stream1_FrameCompleteCallback
 .text.ARCONTROLLER_Stream1_Stop
                0x0003c708       0x68 /home/ncs/CAPSTONE/out/arsdk-native/build/libARController/obj/Sources/ARCONTROLLER_Stream1.c.o
                0x0003c708                ARCONTROLLER_Stream1_Stop
 .text.ARCONTROLLER_Stream1_Delete
                0x0003c770       0x2a /home/ncs/CAPSTONE/out/arsdk-native/build/libARController/obj/Sources/ARCONTROLLER_Stream1.c.o
                0x0003c770                ARCONTROLLER_Stream1_Delete
 *fill*         0x0003c79a        0x2 
 .text.ARCONTROLLER_Stream1_New
                0x0003c79c       0xc8 /home/ncs/CAPSTONE/out/arsdk-native/build/libARController/obj/Sources/ARCONTROLLER_Stream1.c.o
                0x0003c79c                ARCONTROLLER_Stream1_New
 .text.ARCONTROLLER_Stream1_Start
                0x0003c864      0x288 /home/ncs/CAPSTONE/out/arsdk-native/build/libARController/obj/Sources/ARCONTROLLER_Stream1.c.o
                0x0003c864                ARCONTROLLER_Stream1_Start
 .text.ARCONTROLLER_Stream1_SetCallbacks
                0x0003caec       0x16 /home/ncs/CAPSTONE/out/arsdk-native/build/libARController/obj/Sources/ARCONTROLLER_Stream1.c.o
                0x0003caec                ARCONTROLLER_Stream1_SetCallbacks
 .text.ARCONTROLLER_Stream1_IsRunning
                0x0003cb02       0x14 /home/ncs/CAPSTONE/out/arsdk-native/build/libARController/obj/Sources/ARCONTROLLER_Stream1.c.o
                0x0003cb02                ARCONTROLLER_Stream1_IsRunning
 .text.ARCONTROLLER_Stream1_SetMP4Compliant
                0x0003cb16       0x14 /home/ncs/CAPSTONE/out/arsdk-native/build/libARController/obj/Sources/ARCONTROLLER_Stream1.c.o
                0x0003cb16                ARCONTROLLER_Stream1_SetMP4Compliant
 *fill*         0x0003cb2a        0x2 
 .text.ARCONTROLLER_Stream1_GetFrame
                0x0003cb2c       0x54 /home/ncs/CAPSTONE/out/arsdk-native/build/libARController/obj/Sources/ARCONTROLLER_Stream1.c.o
                0x0003cb2c                ARCONTROLLER_Stream1_GetFrame
 .text.ARCONTROLLER_Stream1_TryGetFrame
                0x0003cb80       0x54 /home/ncs/CAPSTONE/out/arsdk-native/build/libARController/obj/Sources/ARCONTROLLER_Stream1.c.o
                0x0003cb80                ARCONTROLLER_Stream1_TryGetFrame
 .text.ARCONTROLLER_Stream1_GetFrameWithTimeout
                0x0003cbd4       0x54 /home/ncs/CAPSTONE/out/arsdk-native/build/libARController/obj/Sources/ARCONTROLLER_Stream1.c.o
                0x0003cbd4                ARCONTROLLER_Stream1_GetFrameWithTimeout
 .text.ARCONTROLLER_Stream1_IdToIndex
                0x0003cc28       0x1e /home/ncs/CAPSTONE/out/arsdk-native/build/libARController/obj/Sources/ARCONTROLLER_Stream1.c.o
                0x0003cc28                ARCONTROLLER_Stream1_IdToIndex
 .text.ARCONTROLLER_Stream1_InitStream1Buffers
                0x0003cc46       0x8a /home/ncs/CAPSTONE/out/arsdk-native/build/libARController/obj/Sources/ARCONTROLLER_Stream1.c.o
                0x0003cc46                ARCONTROLLER_Stream1_InitStream1Buffers
 .text.ARCONTROLLER_Stream1_OnReceiveJson
                0x0003ccd0       0xe8 /home/ncs/CAPSTONE/out/arsdk-native/build/libARController/obj/Sources/ARCONTROLLER_Stream1.c.o
                0x0003ccd0                ARCONTROLLER_Stream1_OnReceiveJson
 .text.ARCONTROLLER_Stream1_GetSpsPpsFromIFrame
                0x0003cdb8      0x1c4 /home/ncs/CAPSTONE/out/arsdk-native/build/libARController/obj/Sources/ARCONTROLLER_Stream1.c.o
                0x0003cdb8                ARCONTROLLER_Stream1_GetSpsPpsFromIFrame
 .text.ARCONTROLLER_Stream1_ReaderThreadRun
                0x0003cf7c      0x284 /home/ncs/CAPSTONE/out/arsdk-native/build/libARController/obj/Sources/ARCONTROLLER_Stream1.c.o
                0x0003cf7c                ARCONTROLLER_Stream1_ReaderThreadRun
 .text.ARCONTROLLER_Stream2_SpsPpsCallback
                0x0003d200       0x34 /home/ncs/CAPSTONE/out/arsdk-native/build/libARController/obj/Sources/ARCONTROLLER_Stream2.c.o
 .text.ARCONTROLLER_Stream2_AuReadyCallback
                0x0003d234      0x110 /home/ncs/CAPSTONE/out/arsdk-native/build/libARController/obj/Sources/ARCONTROLLER_Stream2.c.o
 .text.ARCONTROLLER_Stream2_Open_Socket
                0x0003d344      0x248 /home/ncs/CAPSTONE/out/arsdk-native/build/libARController/obj/Sources/ARCONTROLLER_Stream2.c.o
 .text.ARCONTROLLER_Stream2_StartStream
                0x0003d58c      0x300 /home/ncs/CAPSTONE/out/arsdk-native/build/libARController/obj/Sources/ARCONTROLLER_Stream2.c.o
 .text.ARCONTROLLER_Stream2_StopStream.part.0
                0x0003d88c       0x56 /home/ncs/CAPSTONE/out/arsdk-native/build/libARController/obj/Sources/ARCONTROLLER_Stream2.c.o
 .text.ARCONTROLLER_Stream2_RestartRun
                0x0003d8e2       0x14 /home/ncs/CAPSTONE/out/arsdk-native/build/libARController/obj/Sources/ARCONTROLLER_Stream2.c.o
 *fill*         0x0003d8f6        0x2 
 .text.ARCONTROLLER_Stream2_GetAuBufferCallback
                0x0003d8f8       0xac /home/ncs/CAPSTONE/out/arsdk-native/build/libARController/obj/Sources/ARCONTROLLER_Stream2.c.o
 .text.ARCONTROLLER_Stream2_Stop
                0x0003d9a4       0x20 /home/ncs/CAPSTONE/out/arsdk-native/build/libARController/obj/Sources/ARCONTROLLER_Stream2.c.o
                0x0003d9a4                ARCONTROLLER_Stream2_Stop
 .text.ARCONTROLLER_Stream2_Delete
                0x0003d9c4       0x4a /home/ncs/CAPSTONE/out/arsdk-native/build/libARController/obj/Sources/ARCONTROLLER_Stream2.c.o
                0x0003d9c4                ARCONTROLLER_Stream2_Delete
 *fill*         0x0003da0e        0x2 
 .text.ARCONTROLLER_Stream2_New
                0x0003da10       0xf4 /home/ncs/CAPSTONE/out/arsdk-native/build/libARController/obj/Sources/ARCONTROLLER_Stream2.c.o
                0x0003da10                ARCONTROLLER_Stream2_New
 .text.ARCONTROLLER_Stream2_SetCallbacks
                0x0003db04       0x12 /home/ncs/CAPSTONE/out/arsdk-native/build/libARController/obj/Sources/ARCONTROLLER_Stream2.c.o
                0x0003db04                ARCONTROLLER_Stream2_SetCallbacks
 .text.ARCONTROLLER_Stream2_IsRunning
                0x0003db16       0x14 /home/ncs/CAPSTONE/out/arsdk-native/build/libARController/obj/Sources/ARCONTROLLER_Stream2.c.o
                0x0003db16                ARCONTROLLER_Stream2_IsRunning
 .text.ARCONTROLLER_Stream2_SetMP4Compliant
                0x0003db2a        0xe /home/ncs/CAPSTONE/out/arsdk-native/build/libARController/obj/Sources/ARCONTROLLER_Stream2.c.o
                0x0003db2a                ARCONTROLLER_Stream2_SetMP4Compliant
 .text.ARCONTROLLER_Stream2_OnSendJson
                0x0003db38       0x58 /home/ncs/CAPSTONE/out/arsdk-native/build/libARController/obj/Sources/ARCONTROLLER_Stream2.c.o
                0x0003db38                ARCONTROLLER_Stream2_OnSendJson
 .text.ARCONTROLLER_Stream2_OnReceiveJson
                0x0003db90       0xf0 /home/ncs/CAPSTONE/out/arsdk-native/build/libARController/obj/Sources/ARCONTROLLER_Stream2.c.o
                0x0003db90                ARCONTROLLER_Stream2_OnReceiveJson
 .text.ARCONTROLLER_Stream2_JsonContainsStream2Param
                0x0003dc80       0x30 /home/ncs/CAPSTONE/out/arsdk-native/build/libARController/obj/Sources/ARCONTROLLER_Stream2.c.o
                0x0003dc80                ARCONTROLLER_Stream2_JsonContainsStream2Param
 .text.ARCONTROLLER_Stream2_IsInitilized
                0x0003dcb0       0x12 /home/ncs/CAPSTONE/out/arsdk-native/build/libARController/obj/Sources/ARCONTROLLER_Stream2.c.o
                0x0003dcb0                ARCONTROLLER_Stream2_IsInitilized
 *fill*         0x0003dcc2        0x2 
 .text.ARCONTROLLER_Stream2_Start
                0x0003dcc4       0x74 /home/ncs/CAPSTONE/out/arsdk-native/build/libARController/obj/Sources/ARCONTROLLER_Stream2.c.o
                0x0003dcc4                ARCONTROLLER_Stream2_Start
 .text.ARCONTROLLER_StreamSender_FrameUpdateCallback
                0x0003dd38       0x50 /home/ncs/CAPSTONE/out/arsdk-native/build/libARController/obj/Sources/ARCONTROLLER_StreamSender.c.o
 .text.ARCONTROLLER_StreamSender_Stop
                0x0003dd88       0x4a /home/ncs/CAPSTONE/out/arsdk-native/build/libARController/obj/Sources/ARCONTROLLER_StreamSender.c.o
                0x0003dd88                ARCONTROLLER_StreamSender_Stop
 .text.ARCONTROLLER_StreamSender_Delete
                0x0003ddd2       0x22 /home/ncs/CAPSTONE/out/arsdk-native/build/libARController/obj/Sources/ARCONTROLLER_StreamSender.c.o
                0x0003ddd2                ARCONTROLLER_StreamSender_Delete
 .text.ARCONTROLLER_StreamSender_New
                0x0003ddf4       0xa0 /home/ncs/CAPSTONE/out/arsdk-native/build/libARController/obj/Sources/ARCONTROLLER_StreamSender.c.o
                0x0003ddf4                ARCONTROLLER_StreamSender_New
 .text.ARCONTROLLER_StreamSender_Start
                0x0003de94      0x1b4 /home/ncs/CAPSTONE/out/arsdk-native/build/libARController/obj/Sources/ARCONTROLLER_StreamSender.c.o
                0x0003de94                ARCONTROLLER_StreamSender_Start
 .text.ARCONTROLLER_StreamSender_SendAudioFrame
                0x0003e048      0x17c /home/ncs/CAPSTONE/out/arsdk-native/build/libARController/obj/Sources/ARCONTROLLER_StreamSender.c.o
                0x0003e048                ARCONTROLLER_StreamSender_SendAudioFrame
 .text.ARCONTROLLER_StreamSender_OnReceiveJson
                0x0003e1c4       0xb4 /home/ncs/CAPSTONE/out/arsdk-native/build/libARController/obj/Sources/ARCONTROLLER_StreamSender.c.o
                0x0003e1c4                ARCONTROLLER_StreamSender_OnReceiveJson
 .text.ARCONTROLLER_Device_ReceiveJsonCallback
                0x0003e278       0x18 /home/ncs/CAPSTONE/out/arsdk-native/build/libARController/obj/gen/Sources/ARCONTROLLER_Device.c.o
                0x0003e278                ARCONTROLLER_Device_ReceiveJsonCallback
 .text.ARCONTROLLER_Device_ControllerLooperThread
                0x0003e290      0x2cc /home/ncs/CAPSTONE/out/arsdk-native/build/libARController/obj/gen/Sources/ARCONTROLLER_Device.c.o
                0x0003e290                ARCONTROLLER_Device_ControllerLooperThread
 .text.ARCONTROLLER_Device_SendJsonCallback
                0x0003e55c       0x50 /home/ncs/CAPSTONE/out/arsdk-native/build/libARController/obj/gen/Sources/ARCONTROLLER_Device.c.o
                0x0003e55c                ARCONTROLLER_Device_SendJsonCallback
 .text.ARCONTROLLER_Device_RegisterCallbacks
                0x0003e5ac     0x143c /home/ncs/CAPSTONE/out/arsdk-native/build/libARController/obj/gen/Sources/ARCONTROLLER_Device.c.o
                0x0003e5ac                ARCONTROLLER_Device_RegisterCallbacks
 .text.ARCONTROLLER_Device_UnregisterCallbacks
                0x0003f9e8      0xee4 /home/ncs/CAPSTONE/out/arsdk-native/build/libARController/obj/gen/Sources/ARCONTROLLER_Device.c.o
                0x0003f9e8                ARCONTROLLER_Device_UnregisterCallbacks
 .text.ARCONTROLLER_Device_SetVideoStreamCallbacks
                0x000408cc       0x50 /home/ncs/CAPSTONE/out/arsdk-native/build/libARController/obj/gen/Sources/ARCONTROLLER_Device.c.o
                0x000408cc                ARCONTROLLER_Device_SetVideoStreamCallbacks
 .text.ARCONTROLLER_Device_SetVideoStreamMP4Compliant
                0x0004091c       0x38 /home/ncs/CAPSTONE/out/arsdk-native/build/libARController/obj/gen/Sources/ARCONTROLLER_Device.c.o
                0x0004091c                ARCONTROLLER_Device_SetVideoStreamMP4Compliant
 .text.ARCONTROLLER_Device_SetAudioStreamCallbacks
                0x00040954       0x54 /home/ncs/CAPSTONE/out/arsdk-native/build/libARController/obj/gen/Sources/ARCONTROLLER_Device.c.o
                0x00040954                ARCONTROLLER_Device_SetAudioStreamCallbacks
 .text.ARCONTROLLER_Device_AddCommandReceivedCallback
                0x000409a8       0x34 /home/ncs/CAPSTONE/out/arsdk-native/build/libARController/obj/gen/Sources/ARCONTROLLER_Device.c.o
                0x000409a8                ARCONTROLLER_Device_AddCommandReceivedCallback
 .text.ARCONTROLLER_Device_RemoveCommandReceivedCallback
                0x000409dc       0x34 /home/ncs/CAPSTONE/out/arsdk-native/build/libARController/obj/gen/Sources/ARCONTROLLER_Device.c.o
                0x000409dc                ARCONTROLLER_Device_RemoveCommandReceivedCallback
 .text.ARCONTROLLER_Device_GetCommandElements
                0x00040a10      0x1dc /home/ncs/CAPSTONE/out/arsdk-native/build/libARController/obj/gen/Sources/ARCONTROLLER_Device.c.o
                0x00040a10                ARCONTROLLER_Device_GetCommandElements
 .text.ARCONTROLLER_Device_SendStreamFrame
                0x00040bec       0x36 /home/ncs/CAPSTONE/out/arsdk-native/build/libARController/obj/gen/Sources/ARCONTROLLER_Device.c.o
                0x00040bec                ARCONTROLLER_Device_SendStreamFrame
 .text.ARCONTROLLER_Device_GetState
                0x00040c22       0x30 /home/ncs/CAPSTONE/out/arsdk-native/build/libARController/obj/gen/Sources/ARCONTROLLER_Device.c.o
                0x00040c22                ARCONTROLLER_Device_GetState
 .text.ARCONTROLLER_Device_GetExtensionState
                0x00040c52       0x30 /home/ncs/CAPSTONE/out/arsdk-native/build/libARController/obj/gen/Sources/ARCONTROLLER_Device.c.o
                0x00040c52                ARCONTROLLER_Device_GetExtensionState
 *fill*         0x00040c82        0x2 
 .text.ARCONTROLLER_Device_GetExtensionName
                0x00040c84       0x58 /home/ncs/CAPSTONE/out/arsdk-native/build/libARController/obj/gen/Sources/ARCONTROLLER_Device.c.o
                0x00040c84                ARCONTROLLER_Device_GetExtensionName
 .text.ARCONTROLLER_Device_GetExtensionProduct
                0x00040cdc       0x30 /home/ncs/CAPSTONE/out/arsdk-native/build/libARController/obj/gen/Sources/ARCONTROLLER_Device.c.o
                0x00040cdc                ARCONTROLLER_Device_GetExtensionProduct
 .text.ARCONTROLLER_Device_HasOutputVideoStream
                0x00040d0c       0x36 /home/ncs/CAPSTONE/out/arsdk-native/build/libARController/obj/gen/Sources/ARCONTROLLER_Device.c.o
                0x00040d0c                ARCONTROLLER_Device_HasOutputVideoStream
 .text.ARCONTROLLER_Device_HasOutputAudioStream
                0x00040d42       0x2a /home/ncs/CAPSTONE/out/arsdk-native/build/libARController/obj/gen/Sources/ARCONTROLLER_Device.c.o
                0x00040d42                ARCONTROLLER_Device_HasOutputAudioStream
 .text.ARCONTROLLER_Device_HasInputAudioStream
                0x00040d6c       0x2a /home/ncs/CAPSTONE/out/arsdk-native/build/libARController/obj/gen/Sources/ARCONTROLLER_Device.c.o
                0x00040d6c                ARCONTROLLER_Device_HasInputAudioStream
 *fill*         0x00040d96        0x2 
 .text.ARCONTROLLER_Device_StopNetwork
                0x00040d98      0x6a4 /home/ncs/CAPSTONE/out/arsdk-native/build/libARController/obj/gen/Sources/ARCONTROLLER_Device.c.o
                0x00040d98                ARCONTROLLER_Device_StopNetwork
 .text.ARCONTROLLER_Device_SetNetworkControllerToFeatures
                0x0004143c      0x74c /home/ncs/CAPSTONE/out/arsdk-native/build/libARController/obj/gen/Sources/ARCONTROLLER_Device.c.o
                0x0004143c                ARCONTROLLER_Device_SetNetworkControllerToFeatures
 .text.ARCONTROLLER_Device_StartNetwork
                0x00041b88      0x718 /home/ncs/CAPSTONE/out/arsdk-native/build/libARController/obj/gen/Sources/ARCONTROLLER_Device.c.o
                0x00041b88                ARCONTROLLER_Device_StartNetwork
 .text.ARCONTROLLER_Device_StartControllerLooperThread
                0x000422a0       0xa8 /home/ncs/CAPSTONE/out/arsdk-native/build/libARController/obj/gen/Sources/ARCONTROLLER_Device.c.o
                0x000422a0                ARCONTROLLER_Device_StartControllerLooperThread
 .text.ARCONTROLLER_Device_StopControllerLooperThread
                0x00042348       0x2c /home/ncs/CAPSTONE/out/arsdk-native/build/libARController/obj/gen/Sources/ARCONTROLLER_Device.c.o
                0x00042348                ARCONTROLLER_Device_StopControllerLooperThread
 .text.ARCONTROLLER_Device_SetInitialDate
                0x00042374       0xd8 /home/ncs/CAPSTONE/out/arsdk-native/build/libARController/obj/gen/Sources/ARCONTROLLER_Device.c.o
                0x00042374                ARCONTROLLER_Device_SetInitialDate
 .text.ARCONTROLLER_Device_GetInitialSettings
                0x0004244c       0x2c /home/ncs/CAPSTONE/out/arsdk-native/build/libARController/obj/gen/Sources/ARCONTROLLER_Device.c.o
                0x0004244c                ARCONTROLLER_Device_GetInitialSettings
 .text.ARCONTROLLER_Device_GetInitialStates
                0x00042478       0x2c /home/ncs/CAPSTONE/out/arsdk-native/build/libARController/obj/gen/Sources/ARCONTROLLER_Device.c.o
                0x00042478                ARCONTROLLER_Device_GetInitialStates
 .text.ARCONTROLLER_Device_OnStart
                0x000424a4       0x58 /home/ncs/CAPSTONE/out/arsdk-native/build/libARController/obj/gen/Sources/ARCONTROLLER_Device.c.o
                0x000424a4                ARCONTROLLER_Device_OnStart
 .text.ARCONTROLLER_Device_OnAllSettingsEnd
                0x000424fc        0xe /home/ncs/CAPSTONE/out/arsdk-native/build/libARController/obj/gen/Sources/ARCONTROLLER_Device.c.o
                0x000424fc                ARCONTROLLER_Device_OnAllSettingsEnd
 .text.ARCONTROLLER_Device_OnAllStatesEnd
                0x0004250a        0x4 /home/ncs/CAPSTONE/out/arsdk-native/build/libARController/obj/gen/Sources/ARCONTROLLER_Device.c.o
                0x0004250a                ARCONTROLLER_Device_OnAllStatesEnd
 *fill*         0x0004250e        0x2 
 .text.ARCONTROLLER_Device_OnARDrone3VideoEnableChanged
                0x00042510      0x4c0 /home/ncs/CAPSTONE/out/arsdk-native/build/libARController/obj/gen/Sources/ARCONTROLLER_Device.c.o
                0x00042510                ARCONTROLLER_Device_OnARDrone3VideoEnableChanged
 .text.ARCONTROLLER_Device_OnJumpingSumoVideoEnableChanged
                0x000429d0      0x4c8 /home/ncs/CAPSTONE/out/arsdk-native/build/libARController/obj/gen/Sources/ARCONTROLLER_Device.c.o
                0x000429d0                ARCONTROLLER_Device_OnJumpingSumoVideoEnableChanged
 .text.ARCONTROLLER_Device_OnPowerUpVideoEnableChanged
                0x00042e98      0x4c8 /home/ncs/CAPSTONE/out/arsdk-native/build/libARController/obj/gen/Sources/ARCONTROLLER_Device.c.o
                0x00042e98                ARCONTROLLER_Device_OnPowerUpVideoEnableChanged
 .text.ARCONTROLLER_Device_OnAudioStreamStateChanged
                0x00043360      0x494 /home/ncs/CAPSTONE/out/arsdk-native/build/libARController/obj/gen/Sources/ARCONTROLLER_Device.c.o
                0x00043360                ARCONTROLLER_Device_OnAudioStreamStateChanged
 .text.ARCONTROLLER_Device_AddCallbackInList
                0x000437f4       0x3c /home/ncs/CAPSTONE/out/arsdk-native/build/libARController/obj/gen/Sources/ARCONTROLLER_Device.c.o
                0x000437f4                ARCONTROLLER_Device_AddCallbackInList
 .text.ARCONTROLLER_Device_AddStateChangedCallback
                0x00043830       0x34 /home/ncs/CAPSTONE/out/arsdk-native/build/libARController/obj/gen/Sources/ARCONTROLLER_Device.c.o
                0x00043830                ARCONTROLLER_Device_AddStateChangedCallback
 .text.ARCONTROLLER_Device_AddExtensionCallbackInList
                0x00043864       0x3c /home/ncs/CAPSTONE/out/arsdk-native/build/libARController/obj/gen/Sources/ARCONTROLLER_Device.c.o
                0x00043864                ARCONTROLLER_Device_AddExtensionCallbackInList
 .text.ARCONTROLLER_Device_AddExtensionStateChangedCallback
                0x000438a0       0x34 /home/ncs/CAPSTONE/out/arsdk-native/build/libARController/obj/gen/Sources/ARCONTROLLER_Device.c.o
                0x000438a0                ARCONTROLLER_Device_AddExtensionStateChangedCallback
 .text.ARCONTROLLER_Device_RemoveCallbackFromList
                0x000438d4       0x54 /home/ncs/CAPSTONE/out/arsdk-native/build/libARController/obj/gen/Sources/ARCONTROLLER_Device.c.o
                0x000438d4                ARCONTROLLER_Device_RemoveCallbackFromList
 .text.ARCONTROLLER_Device_RemoveStateChangedCallback
                0x00043928       0x34 /home/ncs/CAPSTONE/out/arsdk-native/build/libARController/obj/gen/Sources/ARCONTROLLER_Device.c.o
                0x00043928                ARCONTROLLER_Device_RemoveStateChangedCallback
 .text.ARCONTROLLER_Device_RemoveExtensionCallbackFromList
                0x0004395c       0x54 /home/ncs/CAPSTONE/out/arsdk-native/build/libARController/obj/gen/Sources/ARCONTROLLER_Device.c.o
                0x0004395c                ARCONTROLLER_Device_RemoveExtensionCallbackFromList
 .text.ARCONTROLLER_Device_DeleteCallbackList
                0x000439b0       0x34 /home/ncs/CAPSTONE/out/arsdk-native/build/libARController/obj/gen/Sources/ARCONTROLLER_Device.c.o
                0x000439b0                ARCONTROLLER_Device_DeleteCallbackList
 .text.ARCONTROLLER_Device_DeleteExtensionCallbackList
                0x000439e4       0x34 /home/ncs/CAPSTONE/out/arsdk-native/build/libARController/obj/gen/Sources/ARCONTROLLER_Device.c.o
                0x000439e4                ARCONTROLLER_Device_DeleteExtensionCallbackList
 .text.ARCONTROLLER_Device_DeleteExtension
                0x00043a18      0x250 /home/ncs/CAPSTONE/out/arsdk-native/build/libARController/obj/gen/Sources/ARCONTROLLER_Device.c.o
                0x00043a18                ARCONTROLLER_Device_DeleteExtension
 .text.ARCONTROLLER_Device_Delete
                0x00043c68      0x180 /home/ncs/CAPSTONE/out/arsdk-native/build/libARController/obj/gen/Sources/ARCONTROLLER_Device.c.o
                0x00043c68                ARCONTROLLER_Device_Delete
 .text.ARCONTROLLER_Device_New
                0x00043de8      0x32c /home/ncs/CAPSTONE/out/arsdk-native/build/libARController/obj/gen/Sources/ARCONTROLLER_Device.c.o
                0x00043de8                ARCONTROLLER_Device_New
 .text.ARCONTROLLER_Device_NotifyAllCallbackInList
                0x00044114       0x1e /home/ncs/CAPSTONE/out/arsdk-native/build/libARController/obj/gen/Sources/ARCONTROLLER_Device.c.o
                0x00044114                ARCONTROLLER_Device_NotifyAllCallbackInList
 .text.ARCONTROLLER_Device_NotifyAllExtensionCallbackInList
                0x00044132       0x2c /home/ncs/CAPSTONE/out/arsdk-native/build/libARController/obj/gen/Sources/ARCONTROLLER_Device.c.o
                0x00044132                ARCONTROLLER_Device_NotifyAllExtensionCallbackInList
 .text.ARCONTROLLER_Device_SetState
                0x0004415e       0x2e /home/ncs/CAPSTONE/out/arsdk-native/build/libARController/obj/gen/Sources/ARCONTROLLER_Device.c.o
                0x0004415e                ARCONTROLLER_Device_SetState
 .text.ARCONTROLLER_Device_Start
                0x0004418c       0xcc /home/ncs/CAPSTONE/out/arsdk-native/build/libARController/obj/gen/Sources/ARCONTROLLER_Device.c.o
                0x0004418c                ARCONTROLLER_Device_Start
 .text.ARCONTROLLER_Device_Stop
                0x00044258      0x104 /home/ncs/CAPSTONE/out/arsdk-native/build/libARController/obj/gen/Sources/ARCONTROLLER_Device.c.o
                0x00044258                ARCONTROLLER_Device_Stop
 .text.ARCONTROLLER_Device_OnDisconnectCallback
                0x0004435c        0xc /home/ncs/CAPSTONE/out/arsdk-native/build/libARController/obj/gen/Sources/ARCONTROLLER_Device.c.o
                0x0004435c                ARCONTROLLER_Device_OnDisconnectCallback
 .text.ARCONTROLLER_Device_StopRun
                0x00044368      0x17c /home/ncs/CAPSTONE/out/arsdk-native/build/libARController/obj/gen/Sources/ARCONTROLLER_Device.c.o
                0x00044368                ARCONTROLLER_Device_StopRun
 .text.ARCONTROLLER_Device_StartRun
                0x000444e4      0x160 /home/ncs/CAPSTONE/out/arsdk-native/build/libARController/obj/gen/Sources/ARCONTROLLER_Device.c.o
                0x000444e4                ARCONTROLLER_Device_StartRun
 .text.ARCONTROLLER_Device_SetExtensionState
                0x00044644       0x32 /home/ncs/CAPSTONE/out/arsdk-native/build/libARController/obj/gen/Sources/ARCONTROLLER_Device.c.o
                0x00044644                ARCONTROLLER_Device_SetExtensionState
 *fill*         0x00044676        0x2 
 .text.ARCONTROLLER_Device_ExtensionStopRun
                0x00044678      0x1a4 /home/ncs/CAPSTONE/out/arsdk-native/build/libARController/obj/gen/Sources/ARCONTROLLER_Device.c.o
                0x00044678                ARCONTROLLER_Device_ExtensionStopRun
 .text.ARCONTROLLER_Device_OnSkyControllerConnectionChangedReceived
                0x0004481c      0x83c /home/ncs/CAPSTONE/out/arsdk-native/build/libARController/obj/gen/Sources/ARCONTROLLER_Device.c.o
                0x0004481c                ARCONTROLLER_Device_OnSkyControllerConnectionChangedReceived
 .text.ARCONTROLLER_Device_DictionaryChangedCallback
                0x00045058      0x108 /home/ncs/CAPSTONE/out/arsdk-native/build/libARController/obj/gen/Sources/ARCONTROLLER_Device.c.o
                0x00045058                ARCONTROLLER_Device_DictionaryChangedCallback
 .text.ARCONTROLLER_Device_ExtensionStartRun
                0x00045160      0x194 /home/ncs/CAPSTONE/out/arsdk-native/build/libARController/obj/gen/Sources/ARCONTROLLER_Device.c.o
                0x00045160                ARCONTROLLER_Device_ExtensionStartRun
 .text.ARCONTROLLER_DICTIONARY_Key_GetFeatureFromCommandKey
                0x000452f4       0xa2 /home/ncs/CAPSTONE/out/arsdk-native/build/libARController/obj/gen/Sources/ARCONTROLLER_DICTIONARY_Key.c.o
                0x000452f4                ARCONTROLLER_DICTIONARY_Key_GetFeatureFromCommandKey
 *fill*         0x00045396        0x2 
 .text.ARCONTROLLER_Error_ToString
                0x00045398      0x334 /home/ncs/CAPSTONE/out/arsdk-native/build/libARController/obj/gen/Sources/ARCONTROLLER_Error.c.o
                0x00045398                ARCONTROLLER_Error_ToString
 .text.ARCONTROLLER_FEATURE_ARDrone3_SetPilotingPCMDFlag
                0x000456cc       0x18 /home/ncs/CAPSTONE/out/arsdk-native/build/libARController/obj/gen/Sources/ARCONTROLLER_Feature.c.o
                0x000456cc                ARCONTROLLER_FEATURE_ARDrone3_SetPilotingPCMDFlag
 .text.ARCONTROLLER_FEATURE_ARDrone3_SetPilotingPCMDRoll
                0x000456e4       0x18 /home/ncs/CAPSTONE/out/arsdk-native/build/libARController/obj/gen/Sources/ARCONTROLLER_Feature.c.o
                0x000456e4                ARCONTROLLER_FEATURE_ARDrone3_SetPilotingPCMDRoll
 .text.ARCONTROLLER_FEATURE_ARDrone3_SetPilotingPCMDPitch
                0x000456fc       0x18 /home/ncs/CAPSTONE/out/arsdk-native/build/libARController/obj/gen/Sources/ARCONTROLLER_Feature.c.o
                0x000456fc                ARCONTROLLER_FEATURE_ARDrone3_SetPilotingPCMDPitch
 .text.ARCONTROLLER_FEATURE_ARDrone3_SetPilotingPCMDYaw
                0x00045714       0x18 /home/ncs/CAPSTONE/out/arsdk-native/build/libARController/obj/gen/Sources/ARCONTROLLER_Feature.c.o
                0x00045714                ARCONTROLLER_FEATURE_ARDrone3_SetPilotingPCMDYaw
 .text.ARCONTROLLER_FEATURE_ARDrone3_SetPilotingPCMDGaz
                0x0004572c       0x18 /home/ncs/CAPSTONE/out/arsdk-native/build/libARController/obj/gen/Sources/ARCONTROLLER_Feature.c.o
                0x0004572c                ARCONTROLLER_FEATURE_ARDrone3_SetPilotingPCMDGaz
 .text.ARCONTROLLER_FEATURE_ARDrone3_SetPilotingPCMDTimestampAndSeqNum
                0x00045744       0x18 /home/ncs/CAPSTONE/out/arsdk-native/build/libARController/obj/gen/Sources/ARCONTROLLER_Feature.c.o
                0x00045744                ARCONTROLLER_FEATURE_ARDrone3_SetPilotingPCMDTimestampAndSeqNum
 .text.ARCONTROLLER_FEATURE_ARDrone3_SetCameraOrientationTilt
                0x0004575c       0x18 /home/ncs/CAPSTONE/out/arsdk-native/build/libARController/obj/gen/Sources/ARCONTROLLER_Feature.c.o
                0x0004575c                ARCONTROLLER_FEATURE_ARDrone3_SetCameraOrientationTilt
 .text.ARCONTROLLER_FEATURE_ARDrone3_SetCameraOrientationPan
                0x00045774       0x18 /home/ncs/CAPSTONE/out/arsdk-native/build/libARController/obj/gen/Sources/ARCONTROLLER_Feature.c.o
                0x00045774                ARCONTROLLER_FEATURE_ARDrone3_SetCameraOrientationPan
 .text.ARCONTROLLER_FEATURE_JumpingSumo_SetPilotingPCMDFlag
                0x0004578c       0x16 /home/ncs/CAPSTONE/out/arsdk-native/build/libARController/obj/gen/Sources/ARCONTROLLER_Feature.c.o
                0x0004578c                ARCONTROLLER_FEATURE_JumpingSumo_SetPilotingPCMDFlag
 .text.ARCONTROLLER_FEATURE_JumpingSumo_SetPilotingPCMDSpeed
                0x000457a2       0x16 /home/ncs/CAPSTONE/out/arsdk-native/build/libARController/obj/gen/Sources/ARCONTROLLER_Feature.c.o
                0x000457a2                ARCONTROLLER_FEATURE_JumpingSumo_SetPilotingPCMDSpeed
 .text.ARCONTROLLER_FEATURE_JumpingSumo_SetPilotingPCMDTurn
                0x000457b8       0x16 /home/ncs/CAPSTONE/out/arsdk-native/build/libARController/obj/gen/Sources/ARCONTROLLER_Feature.c.o
                0x000457b8                ARCONTROLLER_FEATURE_JumpingSumo_SetPilotingPCMDTurn
 .text.ARCONTROLLER_FEATURE_MiniDrone_SetPilotingPCMDFlag
                0x000457ce       0x18 /home/ncs/CAPSTONE/out/arsdk-native/build/libARController/obj/gen/Sources/ARCONTROLLER_Feature.c.o
                0x000457ce                ARCONTROLLER_FEATURE_MiniDrone_SetPilotingPCMDFlag
 .text.ARCONTROLLER_FEATURE_MiniDrone_SetPilotingPCMDRoll
                0x000457e6       0x18 /home/ncs/CAPSTONE/out/arsdk-native/build/libARController/obj/gen/Sources/ARCONTROLLER_Feature.c.o
                0x000457e6                ARCONTROLLER_FEATURE_MiniDrone_SetPilotingPCMDRoll
 .text.ARCONTROLLER_FEATURE_MiniDrone_SetPilotingPCMDPitch
                0x000457fe       0x18 /home/ncs/CAPSTONE/out/arsdk-native/build/libARController/obj/gen/Sources/ARCONTROLLER_Feature.c.o
                0x000457fe                ARCONTROLLER_FEATURE_MiniDrone_SetPilotingPCMDPitch
 .text.ARCONTROLLER_FEATURE_MiniDrone_SetPilotingPCMDYaw
                0x00045816       0x18 /home/ncs/CAPSTONE/out/arsdk-native/build/libARController/obj/gen/Sources/ARCONTROLLER_Feature.c.o
                0x00045816                ARCONTROLLER_FEATURE_MiniDrone_SetPilotingPCMDYaw
 .text.ARCONTROLLER_FEATURE_MiniDrone_SetPilotingPCMDGaz
                0x0004582e       0x18 /home/ncs/CAPSTONE/out/arsdk-native/build/libARController/obj/gen/Sources/ARCONTROLLER_Feature.c.o
                0x0004582e                ARCONTROLLER_FEATURE_MiniDrone_SetPilotingPCMDGaz
 .text.ARCONTROLLER_FEATURE_MiniDrone_SetPilotingPCMDTimestamp
                0x00045846       0x18 /home/ncs/CAPSTONE/out/arsdk-native/build/libARController/obj/gen/Sources/ARCONTROLLER_Feature.c.o
                0x00045846                ARCONTROLLER_FEATURE_MiniDrone_SetPilotingPCMDTimestamp
 .text.ARCONTROLLER_FEATURE_Powerup_SetPilotingPCMDFlag
                0x0004585e       0x16 /home/ncs/CAPSTONE/out/arsdk-native/build/libARController/obj/gen/Sources/ARCONTROLLER_Feature.c.o
                0x0004585e                ARCONTROLLER_FEATURE_Powerup_SetPilotingPCMDFlag
 .text.ARCONTROLLER_FEATURE_Powerup_SetPilotingPCMDThrottle
                0x00045874       0x16 /home/ncs/CAPSTONE/out/arsdk-native/build/libARController/obj/gen/Sources/ARCONTROLLER_Feature.c.o
                0x00045874                ARCONTROLLER_FEATURE_Powerup_SetPilotingPCMDThrottle
 .text.ARCONTROLLER_FEATURE_Powerup_SetPilotingPCMDRoll
                0x0004588a       0x16 /home/ncs/CAPSTONE/out/arsdk-native/build/libARController/obj/gen/Sources/ARCONTROLLER_Feature.c.o
                0x0004588a                ARCONTROLLER_FEATURE_Powerup_SetPilotingPCMDRoll
 .text.ARCONTROLLER_FEATURE_Generic_SendDefault
                0x000458a0       0x64 /home/ncs/CAPSTONE/out/arsdk-native/build/libARController/obj/gen/Sources/ARCONTROLLER_Feature.c.o
                0x000458a0                ARCONTROLLER_FEATURE_Generic_SendDefault
 .text.ARCONTROLLER_FEATURE_ARDrone3_SendPilotingFlatTrim
                0x00045904       0x64 /home/ncs/CAPSTONE/out/arsdk-native/build/libARController/obj/gen/Sources/ARCONTROLLER_Feature.c.o
                0x00045904                ARCONTROLLER_FEATURE_ARDrone3_SendPilotingFlatTrim
 .text.ARCONTROLLER_FEATURE_ARDrone3_SendPilotingTakeOff
                0x00045968       0x64 /home/ncs/CAPSTONE/out/arsdk-native/build/libARController/obj/gen/Sources/ARCONTROLLER_Feature.c.o
                0x00045968                ARCONTROLLER_FEATURE_ARDrone3_SendPilotingTakeOff
 .text.ARCONTROLLER_FEATURE_ARDrone3_SendPilotingPCMD
                0x000459cc       0x7c /home/ncs/CAPSTONE/out/arsdk-native/build/libARController/obj/gen/Sources/ARCONTROLLER_Feature.c.o
                0x000459cc                ARCONTROLLER_FEATURE_ARDrone3_SendPilotingPCMD
 .text.ARCONTROLLER_FEATURE_ARDrone3_SendPilotingLanding
                0x00045a48       0x64 /home/ncs/CAPSTONE/out/arsdk-native/build/libARController/obj/gen/Sources/ARCONTROLLER_Feature.c.o
                0x00045a48                ARCONTROLLER_FEATURE_ARDrone3_SendPilotingLanding
 .text.ARCONTROLLER_FEATURE_ARDrone3_SendPilotingEmergency
                0x00045aac       0x68 /home/ncs/CAPSTONE/out/arsdk-native/build/libARController/obj/gen/Sources/ARCONTROLLER_Feature.c.o
                0x00045aac                ARCONTROLLER_FEATURE_ARDrone3_SendPilotingEmergency
 .text.ARCONTROLLER_FEATURE_ARDrone3_SendPilotingNavigateHome
                0x00045b14       0x68 /home/ncs/CAPSTONE/out/arsdk-native/build/libARController/obj/gen/Sources/ARCONTROLLER_Feature.c.o
                0x00045b14                ARCONTROLLER_FEATURE_ARDrone3_SendPilotingNavigateHome
 .text.ARCONTROLLER_FEATURE_ARDrone3_SendPilotingAutoTakeOffMode
                0x00045b7c       0x68 /home/ncs/CAPSTONE/out/arsdk-native/build/libARController/obj/gen/Sources/ARCONTROLLER_Feature.c.o
                0x00045b7c                ARCONTROLLER_FEATURE_ARDrone3_SendPilotingAutoTakeOffMode
 .text.ARCONTROLLER_FEATURE_ARDrone3_SendPilotingMoveBy
                0x00045be4       0x64 /home/ncs/CAPSTONE/out/arsdk-native/build/libARController/obj/gen/Sources/ARCONTROLLER_Feature.c.o
                0x00045be4                ARCONTROLLER_FEATURE_ARDrone3_SendPilotingMoveBy
 .text.ARCONTROLLER_FEATURE_ARDrone3_SendPilotingUserTakeOff
                0x00045c48       0x68 /home/ncs/CAPSTONE/out/arsdk-native/build/libARController/obj/gen/Sources/ARCONTROLLER_Feature.c.o
                0x00045c48                ARCONTROLLER_FEATURE_ARDrone3_SendPilotingUserTakeOff
 .text.ARCONTROLLER_FEATURE_ARDrone3_SendPilotingCircle
                0x00045cb0       0x68 /home/ncs/CAPSTONE/out/arsdk-native/build/libARController/obj/gen/Sources/ARCONTROLLER_Feature.c.o
                0x00045cb0                ARCONTROLLER_FEATURE_ARDrone3_SendPilotingCircle
 .text.ARCONTROLLER_FEATURE_ARDrone3_SendAnimationsFlip
                0x00045d18       0x68 /home/ncs/CAPSTONE/out/arsdk-native/build/libARController/obj/gen/Sources/ARCONTROLLER_Feature.c.o
                0x00045d18                ARCONTROLLER_FEATURE_ARDrone3_SendAnimationsFlip
 .text.ARCONTROLLER_FEATURE_ARDrone3_SendCameraOrientation
                0x00045d80       0x68 /home/ncs/CAPSTONE/out/arsdk-native/build/libARController/obj/gen/Sources/ARCONTROLLER_Feature.c.o
                0x00045d80                ARCONTROLLER_FEATURE_ARDrone3_SendCameraOrientation
 .text.ARCONTROLLER_FEATURE_ARDrone3_SendMediaRecordPicture
                0x00045de8       0x68 /home/ncs/CAPSTONE/out/arsdk-native/build/libARController/obj/gen/Sources/ARCONTROLLER_Feature.c.o
                0x00045de8                ARCONTROLLER_FEATURE_ARDrone3_SendMediaRecordPicture
 .text.ARCONTROLLER_FEATURE_ARDrone3_SendMediaRecordVideo
                0x00045e50       0x68 /home/ncs/CAPSTONE/out/arsdk-native/build/libARController/obj/gen/Sources/ARCONTROLLER_Feature.c.o
                0x00045e50                ARCONTROLLER_FEATURE_ARDrone3_SendMediaRecordVideo
 .text.ARCONTROLLER_FEATURE_ARDrone3_SendMediaRecordPictureV2
                0x00045eb8       0x64 /home/ncs/CAPSTONE/out/arsdk-native/build/libARController/obj/gen/Sources/ARCONTROLLER_Feature.c.o
                0x00045eb8                ARCONTROLLER_FEATURE_ARDrone3_SendMediaRecordPictureV2
 .text.ARCONTROLLER_FEATURE_ARDrone3_SendMediaRecordVideoV2
                0x00045f1c       0x68 /home/ncs/CAPSTONE/out/arsdk-native/build/libARController/obj/gen/Sources/ARCONTROLLER_Feature.c.o
                0x00045f1c                ARCONTROLLER_FEATURE_ARDrone3_SendMediaRecordVideoV2
 .text.ARCONTROLLER_FEATURE_ARDrone3_SendNetworkWifiScan
                0x00045f84       0x68 /home/ncs/CAPSTONE/out/arsdk-native/build/libARController/obj/gen/Sources/ARCONTROLLER_Feature.c.o
                0x00045f84                ARCONTROLLER_FEATURE_ARDrone3_SendNetworkWifiScan
 .text.ARCONTROLLER_FEATURE_ARDrone3_SendNetworkWifiAuthChannel
                0x00045fec       0x64 /home/ncs/CAPSTONE/out/arsdk-native/build/libARController/obj/gen/Sources/ARCONTROLLER_Feature.c.o
                0x00045fec                ARCONTROLLER_FEATURE_ARDrone3_SendNetworkWifiAuthChannel
 .text.ARCONTROLLER_FEATURE_ARDrone3_SendPilotingSettingsMaxAltitude
                0x00046050       0x64 /home/ncs/CAPSTONE/out/arsdk-native/build/libARController/obj/gen/Sources/ARCONTROLLER_Feature.c.o
                0x00046050                ARCONTROLLER_FEATURE_ARDrone3_SendPilotingSettingsMaxAltitude
 .text.ARCONTROLLER_FEATURE_ARDrone3_SendPilotingSettingsMaxTilt
                0x000460b4       0x64 /home/ncs/CAPSTONE/out/arsdk-native/build/libARController/obj/gen/Sources/ARCONTROLLER_Feature.c.o
                0x000460b4                ARCONTROLLER_FEATURE_ARDrone3_SendPilotingSettingsMaxTilt
 .text.ARCONTROLLER_FEATURE_ARDrone3_SendPilotingSettingsAbsolutControl
                0x00046118       0x68 /home/ncs/CAPSTONE/out/arsdk-native/build/libARController/obj/gen/Sources/ARCONTROLLER_Feature.c.o
                0x00046118                ARCONTROLLER_FEATURE_ARDrone3_SendPilotingSettingsAbsolutControl
 .text.ARCONTROLLER_FEATURE_ARDrone3_SendPilotingSettingsMaxDistance
                0x00046180       0x64 /home/ncs/CAPSTONE/out/arsdk-native/build/libARController/obj/gen/Sources/ARCONTROLLER_Feature.c.o
                0x00046180                ARCONTROLLER_FEATURE_ARDrone3_SendPilotingSettingsMaxDistance
 .text.ARCONTROLLER_FEATURE_ARDrone3_SendPilotingSettingsNoFlyOverMaxDistance
                0x000461e4       0x68 /home/ncs/CAPSTONE/out/arsdk-native/build/libARController/obj/gen/Sources/ARCONTROLLER_Feature.c.o
                0x000461e4                ARCONTROLLER_FEATURE_ARDrone3_SendPilotingSettingsNoFlyOverMaxDistance
 .text.ARCONTROLLER_FEATURE_ARDrone3_SendPilotingSettingsSetAutonomousFlightMaxHorizontalSpeed
                0x0004624c       0x64 /home/ncs/CAPSTONE/out/arsdk-native/build/libARController/obj/gen/Sources/ARCONTROLLER_Feature.c.o
                0x0004624c                ARCONTROLLER_FEATURE_ARDrone3_SendPilotingSettingsSetAutonomousFlightMaxHorizontalSpeed
 .text.ARCONTROLLER_FEATURE_ARDrone3_SendPilotingSettingsSetAutonomousFlightMaxVerticalSpeed
                0x000462b0       0x64 /home/ncs/CAPSTONE/out/arsdk-native/build/libARController/obj/gen/Sources/ARCONTROLLER_Feature.c.o
                0x000462b0                ARCONTROLLER_FEATURE_ARDrone3_SendPilotingSettingsSetAutonomousFlightMaxVerticalSpeed
 .text.ARCONTROLLER_FEATURE_ARDrone3_SendPilotingSettingsSetAutonomousFlightMaxHorizontalAcceleration
                0x00046314       0x64 /home/ncs/CAPSTONE/out/arsdk-native/build/libARController/obj/gen/Sources/ARCONTROLLER_Feature.c.o
                0x00046314                ARCONTROLLER_FEATURE_ARDrone3_SendPilotingSettingsSetAutonomousFlightMaxHorizontalAcceleration
 .text.ARCONTROLLER_FEATURE_ARDrone3_SendPilotingSettingsSetAutonomousFlightMaxVerticalAcceleration
                0x00046378       0x64 /home/ncs/CAPSTONE/out/arsdk-native/build/libARController/obj/gen/Sources/ARCONTROLLER_Feature.c.o
                0x00046378                ARCONTROLLER_FEATURE_ARDrone3_SendPilotingSettingsSetAutonomousFlightMaxVerticalAcceleration
 .text.ARCONTROLLER_FEATURE_ARDrone3_SendPilotingSettingsSetAutonomousFlightMaxRotationSpeed
                0x000463dc       0x64 /home/ncs/CAPSTONE/out/arsdk-native/build/libARController/obj/gen/Sources/ARCONTROLLER_Feature.c.o
                0x000463dc                ARCONTROLLER_FEATURE_ARDrone3_SendPilotingSettingsSetAutonomousFlightMaxRotationSpeed
 .text.ARCONTROLLER_FEATURE_ARDrone3_SendPilotingSettingsBankedTurn
                0x00046440       0x68 /home/ncs/CAPSTONE/out/arsdk-native/build/libARController/obj/gen/Sources/ARCONTROLLER_Feature.c.o
                0x00046440                ARCONTROLLER_FEATURE_ARDrone3_SendPilotingSettingsBankedTurn
 .text.ARCONTROLLER_FEATURE_ARDrone3_SendPilotingSettingsMinAltitude
                0x000464a8       0x64 /home/ncs/CAPSTONE/out/arsdk-native/build/libARController/obj/gen/Sources/ARCONTROLLER_Feature.c.o
                0x000464a8                ARCONTROLLER_FEATURE_ARDrone3_SendPilotingSettingsMinAltitude
 .text.ARCONTROLLER_FEATURE_ARDrone3_SendPilotingSettingsCirclingDirection
                0x0004650c       0x68 /home/ncs/CAPSTONE/out/arsdk-native/build/libARController/obj/gen/Sources/ARCONTROLLER_Feature.c.o
                0x0004650c                ARCONTROLLER_FEATURE_ARDrone3_SendPilotingSettingsCirclingDirection
 .text.ARCONTROLLER_FEATURE_ARDrone3_SendPilotingSettingsCirclingRadius
                0x00046574       0x68 /home/ncs/CAPSTONE/out/arsdk-native/build/libARController/obj/gen/Sources/ARCONTROLLER_Feature.c.o
                0x00046574                ARCONTROLLER_FEATURE_ARDrone3_SendPilotingSettingsCirclingRadius
 .text.ARCONTROLLER_FEATURE_ARDrone3_SendPilotingSettingsCirclingAltitude
                0x000465dc       0x68 /home/ncs/CAPSTONE/out/arsdk-native/build/libARController/obj/gen/Sources/ARCONTROLLER_Feature.c.o
                0x000465dc                ARCONTROLLER_FEATURE_ARDrone3_SendPilotingSettingsCirclingAltitude
 .text.ARCONTROLLER_FEATURE_ARDrone3_SendPilotingSettingsPitchMode
                0x00046644       0x68 /home/ncs/CAPSTONE/out/arsdk-native/build/libARController/obj/gen/Sources/ARCONTROLLER_Feature.c.o
                0x00046644                ARCONTROLLER_FEATURE_ARDrone3_SendPilotingSettingsPitchMode
 .text.ARCONTROLLER_FEATURE_ARDrone3_SendSpeedSettingsMaxVerticalSpeed
                0x000466ac       0x64 /home/ncs/CAPSTONE/out/arsdk-native/build/libARController/obj/gen/Sources/ARCONTROLLER_Feature.c.o
                0x000466ac                ARCONTROLLER_FEATURE_ARDrone3_SendSpeedSettingsMaxVerticalSpeed
 .text.ARCONTROLLER_FEATURE_ARDrone3_SendSpeedSettingsMaxRotationSpeed
                0x00046710       0x64 /home/ncs/CAPSTONE/out/arsdk-native/build/libARController/obj/gen/Sources/ARCONTROLLER_Feature.c.o
                0x00046710                ARCONTROLLER_FEATURE_ARDrone3_SendSpeedSettingsMaxRotationSpeed
 .text.ARCONTROLLER_FEATURE_ARDrone3_SendSpeedSettingsHullProtection
                0x00046774       0x68 /home/ncs/CAPSTONE/out/arsdk-native/build/libARController/obj/gen/Sources/ARCONTROLLER_Feature.c.o
                0x00046774                ARCONTROLLER_FEATURE_ARDrone3_SendSpeedSettingsHullProtection
 .text.ARCONTROLLER_FEATURE_ARDrone3_SendSpeedSettingsOutdoor
                0x000467dc       0x68 /home/ncs/CAPSTONE/out/arsdk-native/build/libARController/obj/gen/Sources/ARCONTROLLER_Feature.c.o
                0x000467dc                ARCONTROLLER_FEATURE_ARDrone3_SendSpeedSettingsOutdoor
 .text.ARCONTROLLER_FEATURE_ARDrone3_SendSpeedSettingsMaxPitchRollRotationSpeed
                0x00046844       0x64 /home/ncs/CAPSTONE/out/arsdk-native/build/libARController/obj/gen/Sources/ARCONTROLLER_Feature.c.o
                0x00046844                ARCONTROLLER_FEATURE_ARDrone3_SendSpeedSettingsMaxPitchRollRotationSpeed
 .text.ARCONTROLLER_FEATURE_ARDrone3_SendNetworkSettingsWifiSelection
                0x000468a8       0x6c /home/ncs/CAPSTONE/out/arsdk-native/build/libARController/obj/gen/Sources/ARCONTROLLER_Feature.c.o
                0x000468a8                ARCONTROLLER_FEATURE_ARDrone3_SendNetworkSettingsWifiSelection
 .text.ARCONTROLLER_FEATURE_ARDrone3_SendNetworkSettingsWifiSecurity
                0x00046914       0x6c /home/ncs/CAPSTONE/out/arsdk-native/build/libARController/obj/gen/Sources/ARCONTROLLER_Feature.c.o
                0x00046914                ARCONTROLLER_FEATURE_ARDrone3_SendNetworkSettingsWifiSecurity
 .text.ARCONTROLLER_FEATURE_ARDrone3_SendPictureSettingsPictureFormatSelection
                0x00046980       0x68 /home/ncs/CAPSTONE/out/arsdk-native/build/libARController/obj/gen/Sources/ARCONTROLLER_Feature.c.o
                0x00046980                ARCONTROLLER_FEATURE_ARDrone3_SendPictureSettingsPictureFormatSelection
 .text.ARCONTROLLER_FEATURE_ARDrone3_SendPictureSettingsAutoWhiteBalanceSelection
                0x000469e8       0x68 /home/ncs/CAPSTONE/out/arsdk-native/build/libARController/obj/gen/Sources/ARCONTROLLER_Feature.c.o
                0x000469e8                ARCONTROLLER_FEATURE_ARDrone3_SendPictureSettingsAutoWhiteBalanceSelection
 .text.ARCONTROLLER_FEATURE_ARDrone3_SendPictureSettingsExpositionSelection
                0x00046a50       0x64 /home/ncs/CAPSTONE/out/arsdk-native/build/libARController/obj/gen/Sources/ARCONTROLLER_Feature.c.o
                0x00046a50                ARCONTROLLER_FEATURE_ARDrone3_SendPictureSettingsExpositionSelection
 .text.ARCONTROLLER_FEATURE_ARDrone3_SendPictureSettingsSaturationSelection
                0x00046ab4       0x64 /home/ncs/CAPSTONE/out/arsdk-native/build/libARController/obj/gen/Sources/ARCONTROLLER_Feature.c.o
                0x00046ab4                ARCONTROLLER_FEATURE_ARDrone3_SendPictureSettingsSaturationSelection
 .text.ARCONTROLLER_FEATURE_ARDrone3_SendPictureSettingsTimelapseSelection
                0x00046b18       0x68 /home/ncs/CAPSTONE/out/arsdk-native/build/libARController/obj/gen/Sources/ARCONTROLLER_Feature.c.o
                0x00046b18                ARCONTROLLER_FEATURE_ARDrone3_SendPictureSettingsTimelapseSelection
 .text.ARCONTROLLER_FEATURE_ARDrone3_SendPictureSettingsVideoAutorecordSelection
                0x00046b80       0x68 /home/ncs/CAPSTONE/out/arsdk-native/build/libARController/obj/gen/Sources/ARCONTROLLER_Feature.c.o
                0x00046b80                ARCONTROLLER_FEATURE_ARDrone3_SendPictureSettingsVideoAutorecordSelection
 .text.ARCONTROLLER_FEATURE_ARDrone3_SendPictureSettingsVideoStabilizationMode
                0x00046be8       0x68 /home/ncs/CAPSTONE/out/arsdk-native/build/libARController/obj/gen/Sources/ARCONTROLLER_Feature.c.o
                0x00046be8                ARCONTROLLER_FEATURE_ARDrone3_SendPictureSettingsVideoStabilizationMode
 .text.ARCONTROLLER_FEATURE_ARDrone3_SendPictureSettingsVideoRecordingMode
                0x00046c50       0x68 /home/ncs/CAPSTONE/out/arsdk-native/build/libARController/obj/gen/Sources/ARCONTROLLER_Feature.c.o
                0x00046c50                ARCONTROLLER_FEATURE_ARDrone3_SendPictureSettingsVideoRecordingMode
 .text.ARCONTROLLER_FEATURE_ARDrone3_SendPictureSettingsVideoFramerate
                0x00046cb8       0x68 /home/ncs/CAPSTONE/out/arsdk-native/build/libARController/obj/gen/Sources/ARCONTROLLER_Feature.c.o
                0x00046cb8                ARCONTROLLER_FEATURE_ARDrone3_SendPictureSettingsVideoFramerate
 .text.ARCONTROLLER_FEATURE_ARDrone3_SendPictureSettingsVideoResolutions
                0x00046d20       0x68 /home/ncs/CAPSTONE/out/arsdk-native/build/libARController/obj/gen/Sources/ARCONTROLLER_Feature.c.o
                0x00046d20                ARCONTROLLER_FEATURE_ARDrone3_SendPictureSettingsVideoResolutions
 .text.ARCONTROLLER_FEATURE_ARDrone3_SendMediaStreamingVideoEnable
                0x00046d88       0x68 /home/ncs/CAPSTONE/out/arsdk-native/build/libARController/obj/gen/Sources/ARCONTROLLER_Feature.c.o
                0x00046d88                ARCONTROLLER_FEATURE_ARDrone3_SendMediaStreamingVideoEnable
 .text.ARCONTROLLER_FEATURE_ARDrone3_SendMediaStreamingVideoStreamMode
                0x00046df0       0x68 /home/ncs/CAPSTONE/out/arsdk-native/build/libARController/obj/gen/Sources/ARCONTROLLER_Feature.c.o
                0x00046df0                ARCONTROLLER_FEATURE_ARDrone3_SendMediaStreamingVideoStreamMode
 .text.ARCONTROLLER_FEATURE_ARDrone3_SendGPSSettingsSetHome
                0x00046e58       0x64 /home/ncs/CAPSTONE/out/arsdk-native/build/libARController/obj/gen/Sources/ARCONTROLLER_Feature.c.o
                0x00046e58                ARCONTROLLER_FEATURE_ARDrone3_SendGPSSettingsSetHome
 .text.ARCONTROLLER_FEATURE_ARDrone3_SendGPSSettingsResetHome
                0x00046ebc       0x64 /home/ncs/CAPSTONE/out/arsdk-native/build/libARController/obj/gen/Sources/ARCONTROLLER_Feature.c.o
                0x00046ebc                ARCONTROLLER_FEATURE_ARDrone3_SendGPSSettingsResetHome
 .text.ARCONTROLLER_FEATURE_ARDrone3_SendGPSSettingsSendControllerGPS
                0x00046f20       0x64 /home/ncs/CAPSTONE/out/arsdk-native/build/libARController/obj/gen/Sources/ARCONTROLLER_Feature.c.o
                0x00046f20                ARCONTROLLER_FEATURE_ARDrone3_SendGPSSettingsSendControllerGPS
 .text.ARCONTROLLER_FEATURE_ARDrone3_SendGPSSettingsHomeType
                0x00046f84       0x68 /home/ncs/CAPSTONE/out/arsdk-native/build/libARController/obj/gen/Sources/ARCONTROLLER_Feature.c.o
                0x00046f84                ARCONTROLLER_FEATURE_ARDrone3_SendGPSSettingsHomeType
 .text.ARCONTROLLER_FEATURE_ARDrone3_SendGPSSettingsReturnHomeDelay
                0x00046fec       0x68 /home/ncs/CAPSTONE/out/arsdk-native/build/libARController/obj/gen/Sources/ARCONTROLLER_Feature.c.o
                0x00046fec                ARCONTROLLER_FEATURE_ARDrone3_SendGPSSettingsReturnHomeDelay
 .text.ARCONTROLLER_FEATURE_ARDrone3_SendAntiflickeringElectricFrequency
                0x00047054       0x68 /home/ncs/CAPSTONE/out/arsdk-native/build/libARController/obj/gen/Sources/ARCONTROLLER_Feature.c.o
                0x00047054                ARCONTROLLER_FEATURE_ARDrone3_SendAntiflickeringElectricFrequency
 .text.ARCONTROLLER_FEATURE_ARDrone3_SendAntiflickeringSetMode
                0x000470bc       0x68 /home/ncs/CAPSTONE/out/arsdk-native/build/libARController/obj/gen/Sources/ARCONTROLLER_Feature.c.o
                0x000470bc                ARCONTROLLER_FEATURE_ARDrone3_SendAntiflickeringSetMode
 .text.ARCONTROLLER_FEATURE_Common_SendNetworkDisconnect
                0x00047124       0x64 /home/ncs/CAPSTONE/out/arsdk-native/build/libARController/obj/gen/Sources/ARCONTROLLER_Feature.c.o
                0x00047124                ARCONTROLLER_FEATURE_Common_SendNetworkDisconnect
 .text.ARCONTROLLER_FEATURE_Common_SendSettingsAllSettings
                0x00047188       0x64 /home/ncs/CAPSTONE/out/arsdk-native/build/libARController/obj/gen/Sources/ARCONTROLLER_Feature.c.o
                0x00047188                ARCONTROLLER_FEATURE_Common_SendSettingsAllSettings
 .text.ARCONTROLLER_FEATURE_Common_SendSettingsReset
                0x000471ec       0x64 /home/ncs/CAPSTONE/out/arsdk-native/build/libARController/obj/gen/Sources/ARCONTROLLER_Feature.c.o
                0x000471ec                ARCONTROLLER_FEATURE_Common_SendSettingsReset
 .text.ARCONTROLLER_FEATURE_Common_SendSettingsProductName
                0x00047250       0x64 /home/ncs/CAPSTONE/out/arsdk-native/build/libARController/obj/gen/Sources/ARCONTROLLER_Feature.c.o
                0x00047250                ARCONTROLLER_FEATURE_Common_SendSettingsProductName
 .text.ARCONTROLLER_FEATURE_Common_SendSettingsCountry
                0x000472b4       0x64 /home/ncs/CAPSTONE/out/arsdk-native/build/libARController/obj/gen/Sources/ARCONTROLLER_Feature.c.o
                0x000472b4                ARCONTROLLER_FEATURE_Common_SendSettingsCountry
 .text.ARCONTROLLER_FEATURE_Common_SendSettingsAutoCountry
                0x00047318       0x64 /home/ncs/CAPSTONE/out/arsdk-native/build/libARController/obj/gen/Sources/ARCONTROLLER_Feature.c.o
                0x00047318                ARCONTROLLER_FEATURE_Common_SendSettingsAutoCountry
 .text.ARCONTROLLER_FEATURE_Common_SendCommonAllStates
                0x0004737c       0x64 /home/ncs/CAPSTONE/out/arsdk-native/build/libARController/obj/gen/Sources/ARCONTROLLER_Feature.c.o
                0x0004737c                ARCONTROLLER_FEATURE_Common_SendCommonAllStates
 .text.ARCONTROLLER_FEATURE_Common_SendCommonCurrentDate
                0x000473e0       0x64 /home/ncs/CAPSTONE/out/arsdk-native/build/libARController/obj/gen/Sources/ARCONTROLLER_Feature.c.o
                0x000473e0                ARCONTROLLER_FEATURE_Common_SendCommonCurrentDate
 .text.ARCONTROLLER_FEATURE_Common_SendCommonCurrentTime
                0x00047444       0x64 /home/ncs/CAPSTONE/out/arsdk-native/build/libARController/obj/gen/Sources/ARCONTROLLER_Feature.c.o
                0x00047444                ARCONTROLLER_FEATURE_Common_SendCommonCurrentTime
 .text.ARCONTROLLER_FEATURE_Common_SendCommonReboot
                0x000474a8       0x64 /home/ncs/CAPSTONE/out/arsdk-native/build/libARController/obj/gen/Sources/ARCONTROLLER_Feature.c.o
                0x000474a8                ARCONTROLLER_FEATURE_Common_SendCommonReboot
 .text.ARCONTROLLER_FEATURE_Common_SendOverHeatSwitchOff
                0x0004750c       0x64 /home/ncs/CAPSTONE/out/arsdk-native/build/libARController/obj/gen/Sources/ARCONTROLLER_Feature.c.o
                0x0004750c                ARCONTROLLER_FEATURE_Common_SendOverHeatSwitchOff
 .text.ARCONTROLLER_FEATURE_Common_SendOverHeatVentilate
                0x00047570       0x64 /home/ncs/CAPSTONE/out/arsdk-native/build/libARController/obj/gen/Sources/ARCONTROLLER_Feature.c.o
                0x00047570                ARCONTROLLER_FEATURE_Common_SendOverHeatVentilate
 .text.ARCONTROLLER_FEATURE_Common_SendControllerIsPiloting
                0x000475d4       0x64 /home/ncs/CAPSTONE/out/arsdk-native/build/libARController/obj/gen/Sources/ARCONTROLLER_Feature.c.o
                0x000475d4                ARCONTROLLER_FEATURE_Common_SendControllerIsPiloting
 .text.ARCONTROLLER_FEATURE_Common_SendWifiSettingsOutdoorSetting
                0x00047638       0x64 /home/ncs/CAPSTONE/out/arsdk-native/build/libARController/obj/gen/Sources/ARCONTROLLER_Feature.c.o
                0x00047638                ARCONTROLLER_FEATURE_Common_SendWifiSettingsOutdoorSetting
 .text.ARCONTROLLER_FEATURE_Common_SendMavlinkStart
                0x0004769c       0x68 /home/ncs/CAPSTONE/out/arsdk-native/build/libARController/obj/gen/Sources/ARCONTROLLER_Feature.c.o
                0x0004769c                ARCONTROLLER_FEATURE_Common_SendMavlinkStart
 .text.ARCONTROLLER_FEATURE_Common_SendMavlinkPause
                0x00047704       0x64 /home/ncs/CAPSTONE/out/arsdk-native/build/libARController/obj/gen/Sources/ARCONTROLLER_Feature.c.o
                0x00047704                ARCONTROLLER_FEATURE_Common_SendMavlinkPause
 .text.ARCONTROLLER_FEATURE_Common_SendMavlinkStop
                0x00047768       0x64 /home/ncs/CAPSTONE/out/arsdk-native/build/libARController/obj/gen/Sources/ARCONTROLLER_Feature.c.o
                0x00047768                ARCONTROLLER_FEATURE_Common_SendMavlinkStop
 .text.ARCONTROLLER_FEATURE_Common_SendCalibrationMagnetoCalibration
                0x000477cc       0x64 /home/ncs/CAPSTONE/out/arsdk-native/build/libARController/obj/gen/Sources/ARCONTROLLER_Feature.c.o
                0x000477cc                ARCONTROLLER_FEATURE_Common_SendCalibrationMagnetoCalibration
 .text.ARCONTROLLER_FEATURE_Common_SendCalibrationPitotCalibration
                0x00047830       0x64 /home/ncs/CAPSTONE/out/arsdk-native/build/libARController/obj/gen/Sources/ARCONTROLLER_Feature.c.o
                0x00047830                ARCONTROLLER_FEATURE_Common_SendCalibrationPitotCalibration
 .text.ARCONTROLLER_FEATURE_Common_SendGPSControllerPositionForRun
                0x00047894       0x64 /home/ncs/CAPSTONE/out/arsdk-native/build/libARController/obj/gen/Sources/ARCONTROLLER_Feature.c.o
                0x00047894                ARCONTROLLER_FEATURE_Common_SendGPSControllerPositionForRun
 .text.ARCONTROLLER_FEATURE_Common_SendAudioControllerReadyForStreaming
                0x000478f8       0x64 /home/ncs/CAPSTONE/out/arsdk-native/build/libARController/obj/gen/Sources/ARCONTROLLER_Feature.c.o
                0x000478f8                ARCONTROLLER_FEATURE_Common_SendAudioControllerReadyForStreaming
 .text.ARCONTROLLER_FEATURE_Common_SendHeadlightsIntensity
                0x0004795c       0x68 /home/ncs/CAPSTONE/out/arsdk-native/build/libARController/obj/gen/Sources/ARCONTROLLER_Feature.c.o
                0x0004795c                ARCONTROLLER_FEATURE_Common_SendHeadlightsIntensity
 .text.ARCONTROLLER_FEATURE_Common_SendAnimationsStartAnimation
                0x000479c4       0x64 /home/ncs/CAPSTONE/out/arsdk-native/build/libARController/obj/gen/Sources/ARCONTROLLER_Feature.c.o
                0x000479c4                ARCONTROLLER_FEATURE_Common_SendAnimationsStartAnimation
 .text.ARCONTROLLER_FEATURE_Common_SendAnimationsStopAnimation
                0x00047a28       0x64 /home/ncs/CAPSTONE/out/arsdk-native/build/libARController/obj/gen/Sources/ARCONTROLLER_Feature.c.o
                0x00047a28                ARCONTROLLER_FEATURE_Common_SendAnimationsStopAnimation
 .text.ARCONTROLLER_FEATURE_Common_SendAnimationsStopAllAnimations
                0x00047a8c       0x64 /home/ncs/CAPSTONE/out/arsdk-native/build/libARController/obj/gen/Sources/ARCONTROLLER_Feature.c.o
                0x00047a8c                ARCONTROLLER_FEATURE_Common_SendAnimationsStopAllAnimations
 .text.ARCONTROLLER_FEATURE_Common_SendAccessoryConfig
                0x00047af0       0x64 /home/ncs/CAPSTONE/out/arsdk-native/build/libARController/obj/gen/Sources/ARCONTROLLER_Feature.c.o
                0x00047af0                ARCONTROLLER_FEATURE_Common_SendAccessoryConfig
 .text.ARCONTROLLER_FEATURE_Common_SendChargerSetMaxChargeRate
                0x00047b54       0x64 /home/ncs/CAPSTONE/out/arsdk-native/build/libARController/obj/gen/Sources/ARCONTROLLER_Feature.c.o
                0x00047b54                ARCONTROLLER_FEATURE_Common_SendChargerSetMaxChargeRate
 .text.ARCONTROLLER_FEATURE_ControllerInfo_SendGps
                0x00047bb8       0x64 /home/ncs/CAPSTONE/out/arsdk-native/build/libARController/obj/gen/Sources/ARCONTROLLER_Feature.c.o
                0x00047bb8                ARCONTROLLER_FEATURE_ControllerInfo_SendGps
 .text.ARCONTROLLER_FEATURE_ControllerInfo_SendBarometer
                0x00047c1c       0x64 /home/ncs/CAPSTONE/out/arsdk-native/build/libARController/obj/gen/Sources/ARCONTROLLER_Feature.c.o
                0x00047c1c                ARCONTROLLER_FEATURE_ControllerInfo_SendBarometer
 .text.ARCONTROLLER_FEATURE_Debug_SendGetAllSettings
                0x00047c80       0x64 /home/ncs/CAPSTONE/out/arsdk-native/build/libARController/obj/gen/Sources/ARCONTROLLER_Feature.c.o
                0x00047c80                ARCONTROLLER_FEATURE_Debug_SendGetAllSettings
 .text.ARCONTROLLER_FEATURE_Debug_SendSetSetting
                0x00047ce4       0x68 /home/ncs/CAPSTONE/out/arsdk-native/build/libARController/obj/gen/Sources/ARCONTROLLER_Feature.c.o
                0x00047ce4                ARCONTROLLER_FEATURE_Debug_SendSetSetting
 .text.ARCONTROLLER_FEATURE_DroneManager_SendDiscoverDrones
                0x00047d4c       0x64 /home/ncs/CAPSTONE/out/arsdk-native/build/libARController/obj/gen/Sources/ARCONTROLLER_Feature.c.o
                0x00047d4c                ARCONTROLLER_FEATURE_DroneManager_SendDiscoverDrones
 .text.ARCONTROLLER_FEATURE_DroneManager_SendConnect
                0x00047db0       0x68 /home/ncs/CAPSTONE/out/arsdk-native/build/libARController/obj/gen/Sources/ARCONTROLLER_Feature.c.o
                0x00047db0                ARCONTROLLER_FEATURE_DroneManager_SendConnect
 .text.ARCONTROLLER_FEATURE_DroneManager_SendForget
                0x00047e18       0x64 /home/ncs/CAPSTONE/out/arsdk-native/build/libARController/obj/gen/Sources/ARCONTROLLER_Feature.c.o
                0x00047e18                ARCONTROLLER_FEATURE_DroneManager_SendForget
 .text.ARCONTROLLER_FEATURE_JumpingSumo_SendPilotingPCMD
                0x00047e7c       0x68 /home/ncs/CAPSTONE/out/arsdk-native/build/libARController/obj/gen/Sources/ARCONTROLLER_Feature.c.o
                0x00047e7c                ARCONTROLLER_FEATURE_JumpingSumo_SendPilotingPCMD
 .text.ARCONTROLLER_FEATURE_JumpingSumo_SendPilotingPosture
                0x00047ee4       0x64 /home/ncs/CAPSTONE/out/arsdk-native/build/libARController/obj/gen/Sources/ARCONTROLLER_Feature.c.o
                0x00047ee4                ARCONTROLLER_FEATURE_JumpingSumo_SendPilotingPosture
 .text.ARCONTROLLER_FEATURE_JumpingSumo_SendPilotingAddCapOffset
                0x00047f48       0x64 /home/ncs/CAPSTONE/out/arsdk-native/build/libARController/obj/gen/Sources/ARCONTROLLER_Feature.c.o
                0x00047f48                ARCONTROLLER_FEATURE_JumpingSumo_SendPilotingAddCapOffset
 .text.ARCONTROLLER_FEATURE_JumpingSumo_SendAnimationsJumpStop
                0x00047fac       0x64 /home/ncs/CAPSTONE/out/arsdk-native/build/libARController/obj/gen/Sources/ARCONTROLLER_Feature.c.o
                0x00047fac                ARCONTROLLER_FEATURE_JumpingSumo_SendAnimationsJumpStop
 .text.ARCONTROLLER_FEATURE_JumpingSumo_SendAnimationsJumpCancel
                0x00048010       0x64 /home/ncs/CAPSTONE/out/arsdk-native/build/libARController/obj/gen/Sources/ARCONTROLLER_Feature.c.o
                0x00048010                ARCONTROLLER_FEATURE_JumpingSumo_SendAnimationsJumpCancel
 .text.ARCONTROLLER_FEATURE_JumpingSumo_SendAnimationsJumpLoad
                0x00048074       0x64 /home/ncs/CAPSTONE/out/arsdk-native/build/libARController/obj/gen/Sources/ARCONTROLLER_Feature.c.o
                0x00048074                ARCONTROLLER_FEATURE_JumpingSumo_SendAnimationsJumpLoad
 .text.ARCONTROLLER_FEATURE_JumpingSumo_SendAnimationsJump
                0x000480d8       0x64 /home/ncs/CAPSTONE/out/arsdk-native/build/libARController/obj/gen/Sources/ARCONTROLLER_Feature.c.o
                0x000480d8                ARCONTROLLER_FEATURE_JumpingSumo_SendAnimationsJump
 .text.ARCONTROLLER_FEATURE_JumpingSumo_SendAnimationsSimpleAnimation
                0x0004813c       0x64 /home/ncs/CAPSTONE/out/arsdk-native/build/libARController/obj/gen/Sources/ARCONTROLLER_Feature.c.o
                0x0004813c                ARCONTROLLER_FEATURE_JumpingSumo_SendAnimationsSimpleAnimation
 .text.ARCONTROLLER_FEATURE_JumpingSumo_SendMediaRecordPicture
                0x000481a0       0x64 /home/ncs/CAPSTONE/out/arsdk-native/build/libARController/obj/gen/Sources/ARCONTROLLER_Feature.c.o
                0x000481a0                ARCONTROLLER_FEATURE_JumpingSumo_SendMediaRecordPicture
 .text.ARCONTROLLER_FEATURE_JumpingSumo_SendMediaRecordVideo
                0x00048204       0x68 /home/ncs/CAPSTONE/out/arsdk-native/build/libARController/obj/gen/Sources/ARCONTROLLER_Feature.c.o
                0x00048204                ARCONTROLLER_FEATURE_JumpingSumo_SendMediaRecordVideo
 .text.ARCONTROLLER_FEATURE_JumpingSumo_SendMediaRecordPictureV2
                0x0004826c       0x64 /home/ncs/CAPSTONE/out/arsdk-native/build/libARController/obj/gen/Sources/ARCONTROLLER_Feature.c.o
                0x0004826c                ARCONTROLLER_FEATURE_JumpingSumo_SendMediaRecordPictureV2
 .text.ARCONTROLLER_FEATURE_JumpingSumo_SendMediaRecordVideoV2
                0x000482d0       0x64 /home/ncs/CAPSTONE/out/arsdk-native/build/libARController/obj/gen/Sources/ARCONTROLLER_Feature.c.o
                0x000482d0                ARCONTROLLER_FEATURE_JumpingSumo_SendMediaRecordVideoV2
 .text.ARCONTROLLER_FEATURE_JumpingSumo_SendNetworkSettingsWifiSelection
                0x00048334       0x68 /home/ncs/CAPSTONE/out/arsdk-native/build/libARController/obj/gen/Sources/ARCONTROLLER_Feature.c.o
                0x00048334                ARCONTROLLER_FEATURE_JumpingSumo_SendNetworkSettingsWifiSelection
 .text.ARCONTROLLER_FEATURE_JumpingSumo_SendNetworkWifiScan
                0x0004839c       0x64 /home/ncs/CAPSTONE/out/arsdk-native/build/libARController/obj/gen/Sources/ARCONTROLLER_Feature.c.o
                0x0004839c                ARCONTROLLER_FEATURE_JumpingSumo_SendNetworkWifiScan
 .text.ARCONTROLLER_FEATURE_JumpingSumo_SendNetworkWifiAuthChannel
                0x00048400       0x64 /home/ncs/CAPSTONE/out/arsdk-native/build/libARController/obj/gen/Sources/ARCONTROLLER_Feature.c.o
                0x00048400                ARCONTROLLER_FEATURE_JumpingSumo_SendNetworkWifiAuthChannel
 .text.ARCONTROLLER_FEATURE_JumpingSumo_SendAudioSettingsMasterVolume
                0x00048464       0x64 /home/ncs/CAPSTONE/out/arsdk-native/build/libARController/obj/gen/Sources/ARCONTROLLER_Feature.c.o
                0x00048464                ARCONTROLLER_FEATURE_JumpingSumo_SendAudioSettingsMasterVolume
 .text.ARCONTROLLER_FEATURE_JumpingSumo_SendAudioSettingsTheme
                0x000484c8       0x64 /home/ncs/CAPSTONE/out/arsdk-native/build/libARController/obj/gen/Sources/ARCONTROLLER_Feature.c.o
                0x000484c8                ARCONTROLLER_FEATURE_JumpingSumo_SendAudioSettingsTheme
 .text.ARCONTROLLER_FEATURE_JumpingSumo_SendRoadPlanAllScriptsMetadata
                0x0004852c       0x64 /home/ncs/CAPSTONE/out/arsdk-native/build/libARController/obj/gen/Sources/ARCONTROLLER_Feature.c.o
                0x0004852c                ARCONTROLLER_FEATURE_JumpingSumo_SendRoadPlanAllScriptsMetadata
 .text.ARCONTROLLER_FEATURE_JumpingSumo_SendRoadPlanScriptUploaded
                0x00048590       0x68 /home/ncs/CAPSTONE/out/arsdk-native/build/libARController/obj/gen/Sources/ARCONTROLLER_Feature.c.o
                0x00048590                ARCONTROLLER_FEATURE_JumpingSumo_SendRoadPlanScriptUploaded
 .text.ARCONTROLLER_FEATURE_JumpingSumo_SendRoadPlanScriptDelete
                0x000485f8       0x64 /home/ncs/CAPSTONE/out/arsdk-native/build/libARController/obj/gen/Sources/ARCONTROLLER_Feature.c.o
                0x000485f8                ARCONTROLLER_FEATURE_JumpingSumo_SendRoadPlanScriptDelete
 .text.ARCONTROLLER_FEATURE_JumpingSumo_SendRoadPlanPlayScript
                0x0004865c       0x64 /home/ncs/CAPSTONE/out/arsdk-native/build/libARController/obj/gen/Sources/ARCONTROLLER_Feature.c.o
                0x0004865c                ARCONTROLLER_FEATURE_JumpingSumo_SendRoadPlanPlayScript
 .text.ARCONTROLLER_FEATURE_JumpingSumo_SendSpeedSettingsOutdoor
                0x000486c0       0x64 /home/ncs/CAPSTONE/out/arsdk-native/build/libARController/obj/gen/Sources/ARCONTROLLER_Feature.c.o
                0x000486c0                ARCONTROLLER_FEATURE_JumpingSumo_SendSpeedSettingsOutdoor
 .text.ARCONTROLLER_FEATURE_JumpingSumo_SendMediaStreamingVideoEnable
                0x00048724       0x64 /home/ncs/CAPSTONE/out/arsdk-native/build/libARController/obj/gen/Sources/ARCONTROLLER_Feature.c.o
                0x00048724                ARCONTROLLER_FEATURE_JumpingSumo_SendMediaStreamingVideoEnable
 .text.ARCONTROLLER_FEATURE_JumpingSumo_SendVideoSettingsAutorecord
                0x00048788       0x64 /home/ncs/CAPSTONE/out/arsdk-native/build/libARController/obj/gen/Sources/ARCONTROLLER_Feature.c.o
                0x00048788                ARCONTROLLER_FEATURE_JumpingSumo_SendVideoSettingsAutorecord
 .text.ARCONTROLLER_FEATURE_Mapper_SendGrab
                0x000487ec       0x68 /home/ncs/CAPSTONE/out/arsdk-native/build/libARController/obj/gen/Sources/ARCONTROLLER_Feature.c.o
                0x000487ec                ARCONTROLLER_FEATURE_Mapper_SendGrab
 .text.ARCONTROLLER_FEATURE_Mapper_SendMapButtonAction
                0x00048854       0x68 /home/ncs/CAPSTONE/out/arsdk-native/build/libARController/obj/gen/Sources/ARCONTROLLER_Feature.c.o
                0x00048854                ARCONTROLLER_FEATURE_Mapper_SendMapButtonAction
 .text.ARCONTROLLER_FEATURE_Mapper_SendMapAxisAction
                0x000488bc       0x6c /home/ncs/CAPSTONE/out/arsdk-native/build/libARController/obj/gen/Sources/ARCONTROLLER_Feature.c.o
                0x000488bc                ARCONTROLLER_FEATURE_Mapper_SendMapAxisAction
 .text.ARCONTROLLER_FEATURE_Mapper_SendResetMapping
                0x00048928       0x64 /home/ncs/CAPSTONE/out/arsdk-native/build/libARController/obj/gen/Sources/ARCONTROLLER_Feature.c.o
                0x00048928                ARCONTROLLER_FEATURE_Mapper_SendResetMapping
 .text.ARCONTROLLER_FEATURE_Mapper_SendSetExpo
                0x0004898c       0x68 /home/ncs/CAPSTONE/out/arsdk-native/build/libARController/obj/gen/Sources/ARCONTROLLER_Feature.c.o
                0x0004898c                ARCONTROLLER_FEATURE_Mapper_SendSetExpo
 .text.ARCONTROLLER_FEATURE_Mapper_SendSetInverted
                0x000489f4       0x68 /home/ncs/CAPSTONE/out/arsdk-native/build/libARController/obj/gen/Sources/ARCONTROLLER_Feature.c.o
                0x000489f4                ARCONTROLLER_FEATURE_Mapper_SendSetInverted
 .text.ARCONTROLLER_FEATURE_MiniDrone_SendPilotingFlatTrim
                0x00048a5c       0x64 /home/ncs/CAPSTONE/out/arsdk-native/build/libARController/obj/gen/Sources/ARCONTROLLER_Feature.c.o
                0x00048a5c                ARCONTROLLER_FEATURE_MiniDrone_SendPilotingFlatTrim
 .text.ARCONTROLLER_FEATURE_MiniDrone_SendPilotingTakeOff
                0x00048ac0       0x64 /home/ncs/CAPSTONE/out/arsdk-native/build/libARController/obj/gen/Sources/ARCONTROLLER_Feature.c.o
                0x00048ac0                ARCONTROLLER_FEATURE_MiniDrone_SendPilotingTakeOff
 .text.ARCONTROLLER_FEATURE_MiniDrone_SendPilotingPCMD
                0x00048b24       0x7c /home/ncs/CAPSTONE/out/arsdk-native/build/libARController/obj/gen/Sources/ARCONTROLLER_Feature.c.o
                0x00048b24                ARCONTROLLER_FEATURE_MiniDrone_SendPilotingPCMD
 .text.ARCONTROLLER_FEATURE_MiniDrone_SendPilotingLanding
                0x00048ba0       0x64 /home/ncs/CAPSTONE/out/arsdk-native/build/libARController/obj/gen/Sources/ARCONTROLLER_Feature.c.o
                0x00048ba0                ARCONTROLLER_FEATURE_MiniDrone_SendPilotingLanding
 .text.ARCONTROLLER_FEATURE_MiniDrone_SendPilotingEmergency
                0x00048c04       0x68 /home/ncs/CAPSTONE/out/arsdk-native/build/libARController/obj/gen/Sources/ARCONTROLLER_Feature.c.o
                0x00048c04                ARCONTROLLER_FEATURE_MiniDrone_SendPilotingEmergency
 .text.ARCONTROLLER_FEATURE_MiniDrone_SendPilotingAutoTakeOffMode
                0x00048c6c       0x68 /home/ncs/CAPSTONE/out/arsdk-native/build/libARController/obj/gen/Sources/ARCONTROLLER_Feature.c.o
                0x00048c6c                ARCONTROLLER_FEATURE_MiniDrone_SendPilotingAutoTakeOffMode
 .text.ARCONTROLLER_FEATURE_MiniDrone_SendPilotingFlyingMode
                0x00048cd4       0x68 /home/ncs/CAPSTONE/out/arsdk-native/build/libARController/obj/gen/Sources/ARCONTROLLER_Feature.c.o
                0x00048cd4                ARCONTROLLER_FEATURE_MiniDrone_SendPilotingFlyingMode
 .text.ARCONTROLLER_FEATURE_MiniDrone_SendPilotingPlaneGearBox
                0x00048d3c       0x68 /home/ncs/CAPSTONE/out/arsdk-native/build/libARController/obj/gen/Sources/ARCONTROLLER_Feature.c.o
                0x00048d3c                ARCONTROLLER_FEATURE_MiniDrone_SendPilotingPlaneGearBox
 .text.ARCONTROLLER_FEATURE_MiniDrone_SendAnimationsFlip
                0x00048da4       0x68 /home/ncs/CAPSTONE/out/arsdk-native/build/libARController/obj/gen/Sources/ARCONTROLLER_Feature.c.o
                0x00048da4                ARCONTROLLER_FEATURE_MiniDrone_SendAnimationsFlip
 .text.ARCONTROLLER_FEATURE_MiniDrone_SendAnimationsCap
                0x00048e0c       0x68 /home/ncs/CAPSTONE/out/arsdk-native/build/libARController/obj/gen/Sources/ARCONTROLLER_Feature.c.o
                0x00048e0c                ARCONTROLLER_FEATURE_MiniDrone_SendAnimationsCap
 .text.ARCONTROLLER_FEATURE_MiniDrone_SendMediaRecordPicture
                0x00048e74       0x68 /home/ncs/CAPSTONE/out/arsdk-native/build/libARController/obj/gen/Sources/ARCONTROLLER_Feature.c.o
                0x00048e74                ARCONTROLLER_FEATURE_MiniDrone_SendMediaRecordPicture
 .text.ARCONTROLLER_FEATURE_MiniDrone_SendMediaRecordPictureV2
                0x00048edc       0x64 /home/ncs/CAPSTONE/out/arsdk-native/build/libARController/obj/gen/Sources/ARCONTROLLER_Feature.c.o
                0x00048edc                ARCONTROLLER_FEATURE_MiniDrone_SendMediaRecordPictureV2
 .text.ARCONTROLLER_FEATURE_MiniDrone_SendPilotingSettingsMaxAltitude
                0x00048f40       0x64 /home/ncs/CAPSTONE/out/arsdk-native/build/libARController/obj/gen/Sources/ARCONTROLLER_Feature.c.o
                0x00048f40                ARCONTROLLER_FEATURE_MiniDrone_SendPilotingSettingsMaxAltitude
 .text.ARCONTROLLER_FEATURE_MiniDrone_SendPilotingSettingsMaxTilt
                0x00048fa4       0x64 /home/ncs/CAPSTONE/out/arsdk-native/build/libARController/obj/gen/Sources/ARCONTROLLER_Feature.c.o
                0x00048fa4                ARCONTROLLER_FEATURE_MiniDrone_SendPilotingSettingsMaxTilt
 .text.ARCONTROLLER_FEATURE_MiniDrone_SendPilotingSettingsPlaneModePitch
                0x00049008       0x64 /home/ncs/CAPSTONE/out/arsdk-native/build/libARController/obj/gen/Sources/ARCONTROLLER_Feature.c.o
                0x00049008                ARCONTROLLER_FEATURE_MiniDrone_SendPilotingSettingsPlaneModePitch
 .text.ARCONTROLLER_FEATURE_MiniDrone_SendSpeedSettingsMaxVerticalSpeed
                0x0004906c       0x64 /home/ncs/CAPSTONE/out/arsdk-native/build/libARController/obj/gen/Sources/ARCONTROLLER_Feature.c.o
                0x0004906c                ARCONTROLLER_FEATURE_MiniDrone_SendSpeedSettingsMaxVerticalSpeed
 .text.ARCONTROLLER_FEATURE_MiniDrone_SendSpeedSettingsMaxRotationSpeed
                0x000490d0       0x64 /home/ncs/CAPSTONE/out/arsdk-native/build/libARController/obj/gen/Sources/ARCONTROLLER_Feature.c.o
                0x000490d0                ARCONTROLLER_FEATURE_MiniDrone_SendSpeedSettingsMaxRotationSpeed
 .text.ARCONTROLLER_FEATURE_MiniDrone_SendSpeedSettingsWheels
                0x00049134       0x68 /home/ncs/CAPSTONE/out/arsdk-native/build/libARController/obj/gen/Sources/ARCONTROLLER_Feature.c.o
                0x00049134                ARCONTROLLER_FEATURE_MiniDrone_SendSpeedSettingsWheels
 .text.ARCONTROLLER_FEATURE_MiniDrone_SendSpeedSettingsMaxHorizontalSpeed
                0x0004919c       0x64 /home/ncs/CAPSTONE/out/arsdk-native/build/libARController/obj/gen/Sources/ARCONTROLLER_Feature.c.o
                0x0004919c                ARCONTROLLER_FEATURE_MiniDrone_SendSpeedSettingsMaxHorizontalSpeed
 .text.ARCONTROLLER_FEATURE_MiniDrone_SendSpeedSettingsMaxPlaneModeRotationSpeed
                0x00049200       0x64 /home/ncs/CAPSTONE/out/arsdk-native/build/libARController/obj/gen/Sources/ARCONTROLLER_Feature.c.o
                0x00049200                ARCONTROLLER_FEATURE_MiniDrone_SendSpeedSettingsMaxPlaneModeRotationSpeed
 .text.ARCONTROLLER_FEATURE_MiniDrone_SendSettingsCutOutMode
                0x00049264       0x68 /home/ncs/CAPSTONE/out/arsdk-native/build/libARController/obj/gen/Sources/ARCONTROLLER_Feature.c.o
                0x00049264                ARCONTROLLER_FEATURE_MiniDrone_SendSettingsCutOutMode
 .text.ARCONTROLLER_FEATURE_MiniDrone_SendGPSControllerLatitudeForRun
                0x000492cc       0x64 /home/ncs/CAPSTONE/out/arsdk-native/build/libARController/obj/gen/Sources/ARCONTROLLER_Feature.c.o
                0x000492cc                ARCONTROLLER_FEATURE_MiniDrone_SendGPSControllerLatitudeForRun
 .text.ARCONTROLLER_FEATURE_MiniDrone_SendGPSControllerLongitudeForRun
                0x00049330       0x64 /home/ncs/CAPSTONE/out/arsdk-native/build/libARController/obj/gen/Sources/ARCONTROLLER_Feature.c.o
                0x00049330                ARCONTROLLER_FEATURE_MiniDrone_SendGPSControllerLongitudeForRun
 .text.ARCONTROLLER_FEATURE_MiniDrone_SendConfigurationControllerType
                0x00049394       0x68 /home/ncs/CAPSTONE/out/arsdk-native/build/libARController/obj/gen/Sources/ARCONTROLLER_Feature.c.o
                0x00049394                ARCONTROLLER_FEATURE_MiniDrone_SendConfigurationControllerType
 .text.ARCONTROLLER_FEATURE_MiniDrone_SendConfigurationControllerName
                0x000493fc       0x68 /home/ncs/CAPSTONE/out/arsdk-native/build/libARController/obj/gen/Sources/ARCONTROLLER_Feature.c.o
                0x000493fc                ARCONTROLLER_FEATURE_MiniDrone_SendConfigurationControllerName
 .text.ARCONTROLLER_FEATURE_MiniDrone_SendUsbAccessoryLightControl
                0x00049464       0x6c /home/ncs/CAPSTONE/out/arsdk-native/build/libARController/obj/gen/Sources/ARCONTROLLER_Feature.c.o
                0x00049464                ARCONTROLLER_FEATURE_MiniDrone_SendUsbAccessoryLightControl
 .text.ARCONTROLLER_FEATURE_MiniDrone_SendUsbAccessoryClawControl
                0x000494d0       0x68 /home/ncs/CAPSTONE/out/arsdk-native/build/libARController/obj/gen/Sources/ARCONTROLLER_Feature.c.o
                0x000494d0                ARCONTROLLER_FEATURE_MiniDrone_SendUsbAccessoryClawControl
 .text.ARCONTROLLER_FEATURE_MiniDrone_SendUsbAccessoryGunControl
                0x00049538       0x68 /home/ncs/CAPSTONE/out/arsdk-native/build/libARController/obj/gen/Sources/ARCONTROLLER_Feature.c.o
                0x00049538                ARCONTROLLER_FEATURE_MiniDrone_SendUsbAccessoryGunControl
 .text.ARCONTROLLER_FEATURE_MiniDrone_SendRemoteControllerSetPairedRemote
                0x000495a0       0x6c /home/ncs/CAPSTONE/out/arsdk-native/build/libARController/obj/gen/Sources/ARCONTROLLER_Feature.c.o
                0x000495a0                ARCONTROLLER_FEATURE_MiniDrone_SendRemoteControllerSetPairedRemote
 .text.ARCONTROLLER_FEATURE_Powerup_SendPilotingPCMD
                0x0004960c       0x68 /home/ncs/CAPSTONE/out/arsdk-native/build/libARController/obj/gen/Sources/ARCONTROLLER_Feature.c.o
                0x0004960c                ARCONTROLLER_FEATURE_Powerup_SendPilotingPCMD
 .text.ARCONTROLLER_FEATURE_Powerup_SendPilotingUserTakeOff
                0x00049674       0x64 /home/ncs/CAPSTONE/out/arsdk-native/build/libARController/obj/gen/Sources/ARCONTROLLER_Feature.c.o
                0x00049674                ARCONTROLLER_FEATURE_Powerup_SendPilotingUserTakeOff
 .text.ARCONTROLLER_FEATURE_Powerup_SendPilotingMotorMode
                0x000496d8       0x64 /home/ncs/CAPSTONE/out/arsdk-native/build/libARController/obj/gen/Sources/ARCONTROLLER_Feature.c.o
                0x000496d8                ARCONTROLLER_FEATURE_Powerup_SendPilotingMotorMode
 .text.ARCONTROLLER_FEATURE_Powerup_SendPilotingSettingsSet
                0x0004973c       0x64 /home/ncs/CAPSTONE/out/arsdk-native/build/libARController/obj/gen/Sources/ARCONTROLLER_Feature.c.o
                0x0004973c                ARCONTROLLER_FEATURE_Powerup_SendPilotingSettingsSet
 .text.ARCONTROLLER_FEATURE_Powerup_SendMediaRecordPictureV2
                0x000497a0       0x64 /home/ncs/CAPSTONE/out/arsdk-native/build/libARController/obj/gen/Sources/ARCONTROLLER_Feature.c.o
                0x000497a0                ARCONTROLLER_FEATURE_Powerup_SendMediaRecordPictureV2
 .text.ARCONTROLLER_FEATURE_Powerup_SendMediaRecordVideoV2
                0x00049804       0x64 /home/ncs/CAPSTONE/out/arsdk-native/build/libARController/obj/gen/Sources/ARCONTROLLER_Feature.c.o
                0x00049804                ARCONTROLLER_FEATURE_Powerup_SendMediaRecordVideoV2
 .text.ARCONTROLLER_FEATURE_Powerup_SendNetworkSettingsWifiSelection
                0x00049868       0x68 /home/ncs/CAPSTONE/out/arsdk-native/build/libARController/obj/gen/Sources/ARCONTROLLER_Feature.c.o
                0x00049868                ARCONTROLLER_FEATURE_Powerup_SendNetworkSettingsWifiSelection
 .text.ARCONTROLLER_FEATURE_Powerup_SendNetworkWifiScan
                0x000498d0       0x64 /home/ncs/CAPSTONE/out/arsdk-native/build/libARController/obj/gen/Sources/ARCONTROLLER_Feature.c.o
                0x000498d0                ARCONTROLLER_FEATURE_Powerup_SendNetworkWifiScan
 .text.ARCONTROLLER_FEATURE_Powerup_SendNetworkWifiAuthChannel
                0x00049934       0x64 /home/ncs/CAPSTONE/out/arsdk-native/build/libARController/obj/gen/Sources/ARCONTROLLER_Feature.c.o
                0x00049934                ARCONTROLLER_FEATURE_Powerup_SendNetworkWifiAuthChannel
 .text.ARCONTROLLER_FEATURE_Powerup_SendMediaStreamingVideoEnable
                0x00049998       0x64 /home/ncs/CAPSTONE/out/arsdk-native/build/libARController/obj/gen/Sources/ARCONTROLLER_Feature.c.o
                0x00049998                ARCONTROLLER_FEATURE_Powerup_SendMediaStreamingVideoEnable
 .text.ARCONTROLLER_FEATURE_Powerup_SendVideoSettingsAutorecord
                0x000499fc       0x64 /home/ncs/CAPSTONE/out/arsdk-native/build/libARController/obj/gen/Sources/ARCONTROLLER_Feature.c.o
                0x000499fc                ARCONTROLLER_FEATURE_Powerup_SendVideoSettingsAutorecord
 .text.ARCONTROLLER_FEATURE_Powerup_SendVideoSettingsVideoMode
                0x00049a60       0x64 /home/ncs/CAPSTONE/out/arsdk-native/build/libARController/obj/gen/Sources/ARCONTROLLER_Feature.c.o
                0x00049a60                ARCONTROLLER_FEATURE_Powerup_SendVideoSettingsVideoMode
 .text.ARCONTROLLER_FEATURE_Powerup_SendSoundsBuzz
                0x00049ac4       0x64 /home/ncs/CAPSTONE/out/arsdk-native/build/libARController/obj/gen/Sources/ARCONTROLLER_Feature.c.o
                0x00049ac4                ARCONTROLLER_FEATURE_Powerup_SendSoundsBuzz
 .text.ARCONTROLLER_FEATURE_Pro_SendProBoughtFeatures
                0x00049b28       0x70 /home/ncs/CAPSTONE/out/arsdk-native/build/libARController/obj/gen/Sources/ARCONTROLLER_Feature.c.o
                0x00049b28                ARCONTROLLER_FEATURE_Pro_SendProBoughtFeatures
 .text.ARCONTROLLER_FEATURE_Pro_SendProResponse
                0x00049b98       0x68 /home/ncs/CAPSTONE/out/arsdk-native/build/libARController/obj/gen/Sources/ARCONTROLLER_Feature.c.o
                0x00049b98                ARCONTROLLER_FEATURE_Pro_SendProResponse
 .text.ARCONTROLLER_FEATURE_Pro_SendProActivateFeatures
                0x00049c00       0x70 /home/ncs/CAPSTONE/out/arsdk-native/build/libARController/obj/gen/Sources/ARCONTROLLER_Feature.c.o
                0x00049c00                ARCONTROLLER_FEATURE_Pro_SendProActivateFeatures
 .text.ARCONTROLLER_FEATURE_Rc_SendMonitorChannels
                0x00049c70       0x64 /home/ncs/CAPSTONE/out/arsdk-native/build/libARController/obj/gen/Sources/ARCONTROLLER_Feature.c.o
                0x00049c70                ARCONTROLLER_FEATURE_Rc_SendMonitorChannels
 .text.ARCONTROLLER_FEATURE_Rc_SendStartCalibration
                0x00049cd4       0x68 /home/ncs/CAPSTONE/out/arsdk-native/build/libARController/obj/gen/Sources/ARCONTROLLER_Feature.c.o
                0x00049cd4                ARCONTROLLER_FEATURE_Rc_SendStartCalibration
 .text.ARCONTROLLER_FEATURE_Rc_SendInvertChannel
                0x00049d3c       0x68 /home/ncs/CAPSTONE/out/arsdk-native/build/libARController/obj/gen/Sources/ARCONTROLLER_Feature.c.o
                0x00049d3c                ARCONTROLLER_FEATURE_Rc_SendInvertChannel
 .text.ARCONTROLLER_FEATURE_Rc_SendAbortCalibration
                0x00049da4       0x64 /home/ncs/CAPSTONE/out/arsdk-native/build/libARController/obj/gen/Sources/ARCONTROLLER_Feature.c.o
                0x00049da4                ARCONTROLLER_FEATURE_Rc_SendAbortCalibration
 .text.ARCONTROLLER_FEATURE_Rc_SendResetCalibration
                0x00049e08       0x64 /home/ncs/CAPSTONE/out/arsdk-native/build/libARController/obj/gen/Sources/ARCONTROLLER_Feature.c.o
                0x00049e08                ARCONTROLLER_FEATURE_Rc_SendResetCalibration
 .text.ARCONTROLLER_FEATURE_SkyController_SendWifiRequestWifiList
                0x00049e6c       0x64 /home/ncs/CAPSTONE/out/arsdk-native/build/libARController/obj/gen/Sources/ARCONTROLLER_Feature.c.o
                0x00049e6c                ARCONTROLLER_FEATURE_SkyController_SendWifiRequestWifiList
 .text.ARCONTROLLER_FEATURE_SkyController_SendWifiRequestCurrentWifi
                0x00049ed0       0x64 /home/ncs/CAPSTONE/out/arsdk-native/build/libARController/obj/gen/Sources/ARCONTROLLER_Feature.c.o
                0x00049ed0                ARCONTROLLER_FEATURE_SkyController_SendWifiRequestCurrentWifi
 .text.ARCONTROLLER_FEATURE_SkyController_SendWifiConnectToWifi
                0x00049f34       0x68 /home/ncs/CAPSTONE/out/arsdk-native/build/libARController/obj/gen/Sources/ARCONTROLLER_Feature.c.o
                0x00049f34                ARCONTROLLER_FEATURE_SkyController_SendWifiConnectToWifi
 .text.ARCONTROLLER_FEATURE_SkyController_SendWifiForgetWifi
                0x00049f9c       0x64 /home/ncs/CAPSTONE/out/arsdk-native/build/libARController/obj/gen/Sources/ARCONTROLLER_Feature.c.o
                0x00049f9c                ARCONTROLLER_FEATURE_SkyController_SendWifiForgetWifi
 .text.ARCONTROLLER_FEATURE_SkyController_SendWifiWifiAuthChannel
                0x0004a000       0x64 /home/ncs/CAPSTONE/out/arsdk-native/build/libARController/obj/gen/Sources/ARCONTROLLER_Feature.c.o
                0x0004a000                ARCONTROLLER_FEATURE_SkyController_SendWifiWifiAuthChannel
 .text.ARCONTROLLER_FEATURE_SkyController_SendDeviceRequestDeviceList
                0x0004a064       0x64 /home/ncs/CAPSTONE/out/arsdk-native/build/libARController/obj/gen/Sources/ARCONTROLLER_Feature.c.o
                0x0004a064                ARCONTROLLER_FEATURE_SkyController_SendDeviceRequestDeviceList
 .text.ARCONTROLLER_FEATURE_SkyController_SendDeviceRequestCurrentDevice
                0x0004a0c8       0x64 /home/ncs/CAPSTONE/out/arsdk-native/build/libARController/obj/gen/Sources/ARCONTROLLER_Feature.c.o
                0x0004a0c8                ARCONTROLLER_FEATURE_SkyController_SendDeviceRequestCurrentDevice
 .text.ARCONTROLLER_FEATURE_SkyController_SendDeviceConnectToDevice
                0x0004a12c       0x64 /home/ncs/CAPSTONE/out/arsdk-native/build/libARController/obj/gen/Sources/ARCONTROLLER_Feature.c.o
                0x0004a12c                ARCONTROLLER_FEATURE_SkyController_SendDeviceConnectToDevice
 .text.ARCONTROLLER_FEATURE_SkyController_SendSettingsAllSettings
                0x0004a190       0x64 /home/ncs/CAPSTONE/out/arsdk-native/build/libARController/obj/gen/Sources/ARCONTROLLER_Feature.c.o
                0x0004a190                ARCONTROLLER_FEATURE_SkyController_SendSettingsAllSettings
 .text.ARCONTROLLER_FEATURE_SkyController_SendSettingsReset
                0x0004a1f4       0x64 /home/ncs/CAPSTONE/out/arsdk-native/build/libARController/obj/gen/Sources/ARCONTROLLER_Feature.c.o
                0x0004a1f4                ARCONTROLLER_FEATURE_SkyController_SendSettingsReset
 .text.ARCONTROLLER_FEATURE_SkyController_SendCommonAllStates
                0x0004a258       0x64 /home/ncs/CAPSTONE/out/arsdk-native/build/libARController/obj/gen/Sources/ARCONTROLLER_Feature.c.o
                0x0004a258                ARCONTROLLER_FEATURE_SkyController_SendCommonAllStates
 .text.ARCONTROLLER_FEATURE_SkyController_SendAccessPointSettingsAccessPointSSID
                0x0004a2bc       0x64 /home/ncs/CAPSTONE/out/arsdk-native/build/libARController/obj/gen/Sources/ARCONTROLLER_Feature.c.o
                0x0004a2bc                ARCONTROLLER_FEATURE_SkyController_SendAccessPointSettingsAccessPointSSID
 .text.ARCONTROLLER_FEATURE_SkyController_SendAccessPointSettingsAccessPointChannel
                0x0004a320       0x64 /home/ncs/CAPSTONE/out/arsdk-native/build/libARController/obj/gen/Sources/ARCONTROLLER_Feature.c.o
                0x0004a320                ARCONTROLLER_FEATURE_SkyController_SendAccessPointSettingsAccessPointChannel
 .text.ARCONTROLLER_FEATURE_SkyController_SendAccessPointSettingsWifiSelection
                0x0004a384       0x68 /home/ncs/CAPSTONE/out/arsdk-native/build/libARController/obj/gen/Sources/ARCONTROLLER_Feature.c.o
                0x0004a384                ARCONTROLLER_FEATURE_SkyController_SendAccessPointSettingsWifiSelection
 .text.ARCONTROLLER_FEATURE_SkyController_SendCameraResetOrientation
                0x0004a3ec       0x64 /home/ncs/CAPSTONE/out/arsdk-native/build/libARController/obj/gen/Sources/ARCONTROLLER_Feature.c.o
                0x0004a3ec                ARCONTROLLER_FEATURE_SkyController_SendCameraResetOrientation
 .text.ARCONTROLLER_FEATURE_SkyController_SendGamepadInfosGetGamepadControls
                0x0004a450       0x64 /home/ncs/CAPSTONE/out/arsdk-native/build/libARController/obj/gen/Sources/ARCONTROLLER_Feature.c.o
                0x0004a450                ARCONTROLLER_FEATURE_SkyController_SendGamepadInfosGetGamepadControls
 .text.ARCONTROLLER_FEATURE_SkyController_SendButtonMappingsGetCurrentButtonMappings
                0x0004a4b4       0x64 /home/ncs/CAPSTONE/out/arsdk-native/build/libARController/obj/gen/Sources/ARCONTROLLER_Feature.c.o
                0x0004a4b4                ARCONTROLLER_FEATURE_SkyController_SendButtonMappingsGetCurrentButtonMappings
 .text.ARCONTROLLER_FEATURE_SkyController_SendButtonMappingsGetAvailableButtonMappings
                0x0004a518       0x64 /home/ncs/CAPSTONE/out/arsdk-native/build/libARController/obj/gen/Sources/ARCONTROLLER_Feature.c.o
                0x0004a518                ARCONTROLLER_FEATURE_SkyController_SendButtonMappingsGetAvailableButtonMappings
 .text.ARCONTROLLER_FEATURE_SkyController_SendButtonMappingsSetButtonMapping
                0x0004a57c       0x68 /home/ncs/CAPSTONE/out/arsdk-native/build/libARController/obj/gen/Sources/ARCONTROLLER_Feature.c.o
                0x0004a57c                ARCONTROLLER_FEATURE_SkyController_SendButtonMappingsSetButtonMapping
 .text.ARCONTROLLER_FEATURE_SkyController_SendButtonMappingsDefaultButtonMapping
                0x0004a5e4       0x64 /home/ncs/CAPSTONE/out/arsdk-native/build/libARController/obj/gen/Sources/ARCONTROLLER_Feature.c.o
                0x0004a5e4                ARCONTROLLER_FEATURE_SkyController_SendButtonMappingsDefaultButtonMapping
 .text.ARCONTROLLER_FEATURE_SkyController_SendAxisMappingsGetCurrentAxisMappings
                0x0004a648       0x64 /home/ncs/CAPSTONE/out/arsdk-native/build/libARController/obj/gen/Sources/ARCONTROLLER_Feature.c.o
                0x0004a648                ARCONTROLLER_FEATURE_SkyController_SendAxisMappingsGetCurrentAxisMappings
 .text.ARCONTROLLER_FEATURE_SkyController_SendAxisMappingsGetAvailableAxisMappings
                0x0004a6ac       0x64 /home/ncs/CAPSTONE/out/arsdk-native/build/libARController/obj/gen/Sources/ARCONTROLLER_Feature.c.o
                0x0004a6ac                ARCONTROLLER_FEATURE_SkyController_SendAxisMappingsGetAvailableAxisMappings
 .text.ARCONTROLLER_FEATURE_SkyController_SendAxisMappingsSetAxisMapping
                0x0004a710       0x68 /home/ncs/CAPSTONE/out/arsdk-native/build/libARController/obj/gen/Sources/ARCONTROLLER_Feature.c.o
                0x0004a710                ARCONTROLLER_FEATURE_SkyController_SendAxisMappingsSetAxisMapping
 .text.ARCONTROLLER_FEATURE_SkyController_SendAxisMappingsDefaultAxisMapping
                0x0004a778       0x64 /home/ncs/CAPSTONE/out/arsdk-native/build/libARController/obj/gen/Sources/ARCONTROLLER_Feature.c.o
                0x0004a778                ARCONTROLLER_FEATURE_SkyController_SendAxisMappingsDefaultAxisMapping
 .text.ARCONTROLLER_FEATURE_SkyController_SendAxisFiltersGetCurrentAxisFilters
                0x0004a7dc       0x64 /home/ncs/CAPSTONE/out/arsdk-native/build/libARController/obj/gen/Sources/ARCONTROLLER_Feature.c.o
                0x0004a7dc                ARCONTROLLER_FEATURE_SkyController_SendAxisFiltersGetCurrentAxisFilters
 .text.ARCONTROLLER_FEATURE_SkyController_SendAxisFiltersGetPresetAxisFilters
                0x0004a840       0x64 /home/ncs/CAPSTONE/out/arsdk-native/build/libARController/obj/gen/Sources/ARCONTROLLER_Feature.c.o
                0x0004a840                ARCONTROLLER_FEATURE_SkyController_SendAxisFiltersGetPresetAxisFilters
 .text.ARCONTROLLER_FEATURE_SkyController_SendAxisFiltersSetAxisFilter
                0x0004a8a4       0x68 /home/ncs/CAPSTONE/out/arsdk-native/build/libARController/obj/gen/Sources/ARCONTROLLER_Feature.c.o
                0x0004a8a4                ARCONTROLLER_FEATURE_SkyController_SendAxisFiltersSetAxisFilter
 .text.ARCONTROLLER_FEATURE_SkyController_SendAxisFiltersDefaultAxisFilters
                0x0004a90c       0x64 /home/ncs/CAPSTONE/out/arsdk-native/build/libARController/obj/gen/Sources/ARCONTROLLER_Feature.c.o
                0x0004a90c                ARCONTROLLER_FEATURE_SkyController_SendAxisFiltersDefaultAxisFilters
 .text.ARCONTROLLER_FEATURE_SkyController_SendCoPilotingSetPilotingSource
                0x0004a970       0x64 /home/ncs/CAPSTONE/out/arsdk-native/build/libARController/obj/gen/Sources/ARCONTROLLER_Feature.c.o
                0x0004a970                ARCONTROLLER_FEATURE_SkyController_SendCoPilotingSetPilotingSource
 .text.ARCONTROLLER_FEATURE_SkyController_SendCalibrationEnableMagnetoCalibrationQualityUpdates
                0x0004a9d4       0x64 /home/ncs/CAPSTONE/out/arsdk-native/build/libARController/obj/gen/Sources/ARCONTROLLER_Feature.c.o
                0x0004a9d4                ARCONTROLLER_FEATURE_SkyController_SendCalibrationEnableMagnetoCalibrationQualityUpdates
 .text.ARCONTROLLER_FEATURE_SkyController_SendFactoryReset
                0x0004aa38       0x64 /home/ncs/CAPSTONE/out/arsdk-native/build/libARController/obj/gen/Sources/ARCONTROLLER_Feature.c.o
                0x0004aa38                ARCONTROLLER_FEATURE_SkyController_SendFactoryReset
 .text.ARCONTROLLER_FEATURE_UnknownFeature1_SendGeographicRun
                0x0004aa9c       0x70 /home/ncs/CAPSTONE/out/arsdk-native/build/libARController/obj/gen/Sources/ARCONTROLLER_Feature.c.o
                0x0004aa9c                ARCONTROLLER_FEATURE_UnknownFeature1_SendGeographicRun
 .text.ARCONTROLLER_FEATURE_UnknownFeature1_SendRelativeRun
                0x0004ab0c       0x70 /home/ncs/CAPSTONE/out/arsdk-native/build/libARController/obj/gen/Sources/ARCONTROLLER_Feature.c.o
                0x0004ab0c                ARCONTROLLER_FEATURE_UnknownFeature1_SendRelativeRun
 .text.ARCONTROLLER_FEATURE_UnknownFeature1_SendLookAtRun
                0x0004ab7c       0x64 /home/ncs/CAPSTONE/out/arsdk-native/build/libARController/obj/gen/Sources/ARCONTROLLER_Feature.c.o
                0x0004ab7c                ARCONTROLLER_FEATURE_UnknownFeature1_SendLookAtRun
 .text.ARCONTROLLER_FEATURE_UnknownFeature1_SendSpiralAnimRun
                0x0004abe0       0x70 /home/ncs/CAPSTONE/out/arsdk-native/build/libARController/obj/gen/Sources/ARCONTROLLER_Feature.c.o
                0x0004abe0                ARCONTROLLER_FEATURE_UnknownFeature1_SendSpiralAnimRun
 .text.ARCONTROLLER_FEATURE_UnknownFeature1_SendSwingAnimRun
                0x0004ac50       0x68 /home/ncs/CAPSTONE/out/arsdk-native/build/libARController/obj/gen/Sources/ARCONTROLLER_Feature.c.o
                0x0004ac50                ARCONTROLLER_FEATURE_UnknownFeature1_SendSwingAnimRun
 .text.ARCONTROLLER_FEATURE_UnknownFeature1_SendBoomerangAnimRun
                0x0004acb8       0x68 /home/ncs/CAPSTONE/out/arsdk-native/build/libARController/obj/gen/Sources/ARCONTROLLER_Feature.c.o
                0x0004acb8                ARCONTROLLER_FEATURE_UnknownFeature1_SendBoomerangAnimRun
 .text.ARCONTROLLER_FEATURE_UnknownFeature1_SendCandleAnimRun
                0x0004ad20       0x68 /home/ncs/CAPSTONE/out/arsdk-native/build/libARController/obj/gen/Sources/ARCONTROLLER_Feature.c.o
                0x0004ad20                ARCONTROLLER_FEATURE_UnknownFeature1_SendCandleAnimRun
 .text.ARCONTROLLER_FEATURE_UnknownFeature1_SendDollySlideAnimRun
                0x0004ad88       0x70 /home/ncs/CAPSTONE/out/arsdk-native/build/libARController/obj/gen/Sources/ARCONTROLLER_Feature.c.o
                0x0004ad88                ARCONTROLLER_FEATURE_UnknownFeature1_SendDollySlideAnimRun
 .text.ARCONTROLLER_FEATURE_UnknownFeature1_SendUserFramingPosition
                0x0004adf8       0x68 /home/ncs/CAPSTONE/out/arsdk-native/build/libARController/obj/gen/Sources/ARCONTROLLER_Feature.c.o
                0x0004adf8                ARCONTROLLER_FEATURE_UnknownFeature1_SendUserFramingPosition
 .text.ARCONTROLLER_FEATURE_UnknownFeature1_SendUserGPSData
                0x0004ae60       0x64 /home/ncs/CAPSTONE/out/arsdk-native/build/libARController/obj/gen/Sources/ARCONTROLLER_Feature.c.o
                0x0004ae60                ARCONTROLLER_FEATURE_UnknownFeature1_SendUserGPSData
 .text.ARCONTROLLER_FEATURE_UnknownFeature1_SendUserBaroData
                0x0004aec4       0x64 /home/ncs/CAPSTONE/out/arsdk-native/build/libARController/obj/gen/Sources/ARCONTROLLER_Feature.c.o
                0x0004aec4                ARCONTROLLER_FEATURE_UnknownFeature1_SendUserBaroData
 .text.ARCONTROLLER_FEATURE_UnknownFeature1_SendLynxDetection
                0x0004af28       0x70 /home/ncs/CAPSTONE/out/arsdk-native/build/libARController/obj/gen/Sources/ARCONTROLLER_Feature.c.o
                0x0004af28                ARCONTROLLER_FEATURE_UnknownFeature1_SendLynxDetection
 .text.ARCONTROLLER_FEATURE_Wifi_SendScan
                0x0004af98       0x64 /home/ncs/CAPSTONE/out/arsdk-native/build/libARController/obj/gen/Sources/ARCONTROLLER_Feature.c.o
                0x0004af98                ARCONTROLLER_FEATURE_Wifi_SendScan
 .text.ARCONTROLLER_FEATURE_Wifi_SendUpdateAuthorizedChannels
                0x0004affc       0x64 /home/ncs/CAPSTONE/out/arsdk-native/build/libARController/obj/gen/Sources/ARCONTROLLER_Feature.c.o
                0x0004affc                ARCONTROLLER_FEATURE_Wifi_SendUpdateAuthorizedChannels
 .text.ARCONTROLLER_FEATURE_Wifi_SendSetApChannel
                0x0004b060       0x68 /home/ncs/CAPSTONE/out/arsdk-native/build/libARController/obj/gen/Sources/ARCONTROLLER_Feature.c.o
                0x0004b060                ARCONTROLLER_FEATURE_Wifi_SendSetApChannel
 .text.ARCONTROLLER_FEATURE_Wifi_SendSetSecurity
                0x0004b0c8       0x68 /home/ncs/CAPSTONE/out/arsdk-native/build/libARController/obj/gen/Sources/ARCONTROLLER_Feature.c.o
                0x0004b0c8                ARCONTROLLER_FEATURE_Wifi_SendSetSecurity
 .text.ARCONTROLLER_FEATURE_Wifi_SendSetCountry
                0x0004b130       0x68 /home/ncs/CAPSTONE/out/arsdk-native/build/libARController/obj/gen/Sources/ARCONTROLLER_Feature.c.o
                0x0004b130                ARCONTROLLER_FEATURE_Wifi_SendSetCountry
 .text.ARCONTROLLER_FEATURE_Wifi_SendSetEnvironment
                0x0004b198       0x64 /home/ncs/CAPSTONE/out/arsdk-native/build/libARController/obj/gen/Sources/ARCONTROLLER_Feature.c.o
                0x0004b198                ARCONTROLLER_FEATURE_Wifi_SendSetEnvironment
 .text.ARCONTROLLER_FEATURE_ARDrone3_SetPilotingPCMD
                0x0004b1fc       0x4c /home/ncs/CAPSTONE/out/arsdk-native/build/libARController/obj/gen/Sources/ARCONTROLLER_Feature.c.o
                0x0004b1fc                ARCONTROLLER_FEATURE_ARDrone3_SetPilotingPCMD
 .text.ARCONTROLLER_FEATURE_ARDrone3_SetCameraOrientation
                0x0004b248       0x20 /home/ncs/CAPSTONE/out/arsdk-native/build/libARController/obj/gen/Sources/ARCONTROLLER_Feature.c.o
                0x0004b248                ARCONTROLLER_FEATURE_ARDrone3_SetCameraOrientation
 .text.ARCONTROLLER_FEATURE_JumpingSumo_SetPilotingPCMD
                0x0004b268       0x24 /home/ncs/CAPSTONE/out/arsdk-native/build/libARController/obj/gen/Sources/ARCONTROLLER_Feature.c.o
                0x0004b268                ARCONTROLLER_FEATURE_JumpingSumo_SetPilotingPCMD
 .text.ARCONTROLLER_FEATURE_MiniDrone_SetPilotingPCMD
                0x0004b28c       0x4c /home/ncs/CAPSTONE/out/arsdk-native/build/libARController/obj/gen/Sources/ARCONTROLLER_Feature.c.o
                0x0004b28c                ARCONTROLLER_FEATURE_MiniDrone_SetPilotingPCMD
 .text.ARCONTROLLER_FEATURE_Powerup_SetPilotingPCMD
                0x0004b2d8       0x24 /home/ncs/CAPSTONE/out/arsdk-native/build/libARController/obj/gen/Sources/ARCONTROLLER_Feature.c.o
                0x0004b2d8                ARCONTROLLER_FEATURE_Powerup_SetPilotingPCMD
 .text.ARCONTROLLER_Feature_NewCommandsElement
                0x0004b2fc       0x24 /home/ncs/CAPSTONE/out/arsdk-native/build/libARController/obj/gen/Sources/ARCONTROLLER_Feature.c.o
                0x0004b2fc                ARCONTROLLER_Feature_NewCommandsElement
 .text.ARCONTROLLER_Feature_DeleteArgumentsDictionary
                0x0004b320       0xea /home/ncs/CAPSTONE/out/arsdk-native/build/libARController/obj/gen/Sources/ARCONTROLLER_Feature.c.o
                0x0004b320                ARCONTROLLER_Feature_DeleteArgumentsDictionary
 .text.ARCONTROLLER_Feature_DeleteCommandsDictionary
                0x0004b40a      0x1b8 /home/ncs/CAPSTONE/out/arsdk-native/build/libARController/obj/gen/Sources/ARCONTROLLER_Feature.c.o
                0x0004b40a                ARCONTROLLER_Feature_DeleteCommandsDictionary
 .text.ARCONTROLLER_Feature_DeleteElement
                0x0004b5c2       0x30 /home/ncs/CAPSTONE/out/arsdk-native/build/libARController/obj/gen/Sources/ARCONTROLLER_Feature.c.o
                0x0004b5c2                ARCONTROLLER_Feature_DeleteElement
 *fill*         0x0004b5f2        0x2 
 .text.ARCONTROLLER_Feature_DeleteCommandsElement
                0x0004b5f4      0x148 /home/ncs/CAPSTONE/out/arsdk-native/build/libARController/obj/gen/Sources/ARCONTROLLER_Feature.c.o
                0x0004b5f4                ARCONTROLLER_Feature_DeleteCommandsElement
 .text.ARCONTROLLER_Feature_AddElement
                0x0004b73c      0xb84 /home/ncs/CAPSTONE/out/arsdk-native/build/libARController/obj/gen/Sources/ARCONTROLLER_Feature.c.o
                0x0004b73c                ARCONTROLLER_Feature_AddElement
 .text.ARCONTROLLER_FEATURE_Generic_Delete
                0x0004c2c0       0x4a /home/ncs/CAPSTONE/out/arsdk-native/build/libARController/obj/gen/Sources/ARCONTROLLER_Feature.c.o
                0x0004c2c0                ARCONTROLLER_FEATURE_Generic_Delete
 *fill*         0x0004c30a        0x2 
 .text.ARCONTROLLER_FEATURE_Generic_New
                0x0004c30c       0x80 /home/ncs/CAPSTONE/out/arsdk-native/build/libARController/obj/gen/Sources/ARCONTROLLER_Feature.c.o
                0x0004c30c                ARCONTROLLER_FEATURE_Generic_New
 .text.ARCONTROLLER_FEATURE_Generic_GetDictionary
                0x0004c38c       0x18 /home/ncs/CAPSTONE/out/arsdk-native/build/libARController/obj/gen/Sources/ARCONTROLLER_Feature.c.o
                0x0004c38c                ARCONTROLLER_FEATURE_Generic_GetDictionary
 .text.ARCONTROLLER_FEATURE_Generic_AddCallback
                0x0004c3a4       0x12 /home/ncs/CAPSTONE/out/arsdk-native/build/libARController/obj/gen/Sources/ARCONTROLLER_Feature.c.o
                0x0004c3a4                ARCONTROLLER_FEATURE_Generic_AddCallback
 .text.ARCONTROLLER_FEATURE_Generic_RemoveCallback
                0x0004c3b6       0x12 /home/ncs/CAPSTONE/out/arsdk-native/build/libARController/obj/gen/Sources/ARCONTROLLER_Feature.c.o
                0x0004c3b6                ARCONTROLLER_FEATURE_Generic_RemoveCallback
 .text.ARCONTROLLER_FEATURE_Generic_UnregisterARCommands
                0x0004c3c8       0x1e /home/ncs/CAPSTONE/out/arsdk-native/build/libARController/obj/gen/Sources/ARCONTROLLER_Feature.c.o
                0x0004c3c8                ARCONTROLLER_FEATURE_Generic_UnregisterARCommands
 .text.ARCONTROLLER_FEATURE_Generic_RegisterARCommands
                0x0004c3e6        0x4 /home/ncs/CAPSTONE/out/arsdk-native/build/libARController/obj/gen/Sources/ARCONTROLLER_Feature.c.o
                0x0004c3e6                ARCONTROLLER_FEATURE_Generic_RegisterARCommands
 .text.ARCONTROLLER_FEATURE_Generic_SetNetworkController
                0x0004c3ea       0x12 /home/ncs/CAPSTONE/out/arsdk-native/build/libARController/obj/gen/Sources/ARCONTROLLER_Feature.c.o
                0x0004c3ea                ARCONTROLLER_FEATURE_Generic_SetNetworkController
 .text.ARCONTROLLER_Generic_GetCommandElements
                0x0004c3fc       0xfc /home/ncs/CAPSTONE/out/arsdk-native/build/libARController/obj/gen/Sources/ARCONTROLLER_Feature.c.o
                0x0004c3fc                ARCONTROLLER_Generic_GetCommandElements
 .text.ARCONTROLLER_FEATURE_ARDrone3_Delete
                0x0004c4f8       0x8a /home/ncs/CAPSTONE/out/arsdk-native/build/libARController/obj/gen/Sources/ARCONTROLLER_Feature.c.o
                0x0004c4f8                ARCONTROLLER_FEATURE_ARDrone3_Delete
 *fill*         0x0004c582        0x2 
 .text.ARCONTROLLER_FEATURE_ARDrone3_New
                0x0004c584      0x3bc /home/ncs/CAPSTONE/out/arsdk-native/build/libARController/obj/gen/Sources/ARCONTROLLER_Feature.c.o
                0x0004c584                ARCONTROLLER_FEATURE_ARDrone3_New
 .text.ARCONTROLLER_FEATURE_ARDrone3_GetDictionary
                0x0004c940       0x1a /home/ncs/CAPSTONE/out/arsdk-native/build/libARController/obj/gen/Sources/ARCONTROLLER_Feature.c.o
                0x0004c940                ARCONTROLLER_FEATURE_ARDrone3_GetDictionary
 .text.ARCONTROLLER_FEATURE_ARDrone3_AddCallback
                0x0004c95a       0x14 /home/ncs/CAPSTONE/out/arsdk-native/build/libARController/obj/gen/Sources/ARCONTROLLER_Feature.c.o
                0x0004c95a                ARCONTROLLER_FEATURE_ARDrone3_AddCallback
 .text.ARCONTROLLER_FEATURE_ARDrone3_RemoveCallback
                0x0004c96e       0x14 /home/ncs/CAPSTONE/out/arsdk-native/build/libARController/obj/gen/Sources/ARCONTROLLER_Feature.c.o
                0x0004c96e                ARCONTROLLER_FEATURE_ARDrone3_RemoveCallback
 *fill*         0x0004c982        0x2 
 .text.ARCONTROLLER_FEATURE_ARDrone3_RegisterARCommands
                0x0004c984      0x8b4 /home/ncs/CAPSTONE/out/arsdk-native/build/libARController/obj/gen/Sources/ARCONTROLLER_Feature.c.o
                0x0004c984                ARCONTROLLER_FEATURE_ARDrone3_RegisterARCommands
 .text.ARCONTROLLER_FEATURE_ARDrone3_UnregisterARCommands
                0x0004d238      0x526 /home/ncs/CAPSTONE/out/arsdk-native/build/libARController/obj/gen/Sources/ARCONTROLLER_Feature.c.o
                0x0004d238                ARCONTROLLER_FEATURE_ARDrone3_UnregisterARCommands
 *fill*         0x0004d75e        0x2 
 .text.ARCONTROLLER_ARDrone3_SendPilotingPCMDStruct
                0x0004d760       0xf8 /home/ncs/CAPSTONE/out/arsdk-native/build/libARController/obj/gen/Sources/ARCONTROLLER_Feature.c.o
                0x0004d760                ARCONTROLLER_ARDrone3_SendPilotingPCMDStruct
 .text.ARCONTROLLER_ARDrone3_SendCameraOrientationStruct
                0x0004d858       0xe4 /home/ncs/CAPSTONE/out/arsdk-native/build/libARController/obj/gen/Sources/ARCONTROLLER_Feature.c.o
                0x0004d858                ARCONTROLLER_ARDrone3_SendCameraOrientationStruct
 .text.ARCONTROLLER_ARDrone3_NewCmdElementMediaRecordStatePictureStateChanged
                0x0004d93c      0x7c4 /home/ncs/CAPSTONE/out/arsdk-native/build/libARController/obj/gen/Sources/ARCONTROLLER_Feature.c.o
                0x0004d93c                ARCONTROLLER_ARDrone3_NewCmdElementMediaRecordStatePictureStateChanged
 .text.ARCONTROLLER_FEATURE_ARDrone3_MediaRecordStatePictureStateChangedCallback
                0x0004e100      0x438 /home/ncs/CAPSTONE/out/arsdk-native/build/libARController/obj/gen/Sources/ARCONTROLLER_Feature.c.o
                0x0004e100                ARCONTROLLER_FEATURE_ARDrone3_MediaRecordStatePictureStateChangedCallback
 .text.ARCONTROLLER_ARDrone3_NewCmdElementMediaRecordStateVideoStateChanged
                0x0004e538      0x7c4 /home/ncs/CAPSTONE/out/arsdk-native/build/libARController/obj/gen/Sources/ARCONTROLLER_Feature.c.o
                0x0004e538                ARCONTROLLER_ARDrone3_NewCmdElementMediaRecordStateVideoStateChanged
 .text.ARCONTROLLER_FEATURE_ARDrone3_MediaRecordStateVideoStateChangedCallback
                0x0004ecfc      0x438 /home/ncs/CAPSTONE/out/arsdk-native/build/libARController/obj/gen/Sources/ARCONTROLLER_Feature.c.o
                0x0004ecfc                ARCONTROLLER_FEATURE_ARDrone3_MediaRecordStateVideoStateChangedCallback
 .text.ARCONTROLLER_ARDrone3_NewCmdElementMediaRecordStatePictureStateChangedV2
                0x0004f134      0x7c4 /home/ncs/CAPSTONE/out/arsdk-native/build/libARController/obj/gen/Sources/ARCONTROLLER_Feature.c.o
                0x0004f134                ARCONTROLLER_ARDrone3_NewCmdElementMediaRecordStatePictureStateChangedV2
 .text.ARCONTROLLER_FEATURE_ARDrone3_MediaRecordStatePictureStateChangedV2Callback
                0x0004f8f8      0x438 /home/ncs/CAPSTONE/out/arsdk-native/build/libARController/obj/gen/Sources/ARCONTROLLER_Feature.c.o
                0x0004f8f8                ARCONTROLLER_FEATURE_ARDrone3_MediaRecordStatePictureStateChangedV2Callback
 .text.ARCONTROLLER_ARDrone3_NewCmdElementMediaRecordStateVideoStateChangedV2
                0x0004fd30      0x7c4 /home/ncs/CAPSTONE/out/arsdk-native/build/libARController/obj/gen/Sources/ARCONTROLLER_Feature.c.o
                0x0004fd30                ARCONTROLLER_ARDrone3_NewCmdElementMediaRecordStateVideoStateChangedV2
 .text.ARCONTROLLER_FEATURE_ARDrone3_MediaRecordStateVideoStateChangedV2Callback
                0x000504f4      0x438 /home/ncs/CAPSTONE/out/arsdk-native/build/libARController/obj/gen/Sources/ARCONTROLLER_Feature.c.o
                0x000504f4                ARCONTROLLER_FEATURE_ARDrone3_MediaRecordStateVideoStateChangedV2Callback
 .text.ARCONTROLLER_ARDrone3_NewCmdElementMediaRecordStateVideoResolutionState
                0x0005092c      0x7c4 /home/ncs/CAPSTONE/out/arsdk-native/build/libARController/obj/gen/Sources/ARCONTROLLER_Feature.c.o
                0x0005092c                ARCONTROLLER_ARDrone3_NewCmdElementMediaRecordStateVideoResolutionState
 .text.ARCONTROLLER_FEATURE_ARDrone3_MediaRecordStateVideoResolutionStateCallback
                0x000510f0      0x438 /home/ncs/CAPSTONE/out/arsdk-native/build/libARController/obj/gen/Sources/ARCONTROLLER_Feature.c.o
                0x000510f0                ARCONTROLLER_FEATURE_ARDrone3_MediaRecordStateVideoResolutionStateCallback
 .text.ARCONTROLLER_ARDrone3_NewCmdElementMediaRecordEventPictureEventChanged
                0x00051528      0x7c4 /home/ncs/CAPSTONE/out/arsdk-native/build/libARController/obj/gen/Sources/ARCONTROLLER_Feature.c.o
                0x00051528                ARCONTROLLER_ARDrone3_NewCmdElementMediaRecordEventPictureEventChanged
 .text.ARCONTROLLER_FEATURE_ARDrone3_MediaRecordEventPictureEventChangedCallback
                0x00051cec      0x438 /home/ncs/CAPSTONE/out/arsdk-native/build/libARController/obj/gen/Sources/ARCONTROLLER_Feature.c.o
                0x00051cec                ARCONTROLLER_FEATURE_ARDrone3_MediaRecordEventPictureEventChangedCallback
 .text.ARCONTROLLER_ARDrone3_NewCmdElementMediaRecordEventVideoEventChanged
                0x00052124      0x7c4 /home/ncs/CAPSTONE/out/arsdk-native/build/libARController/obj/gen/Sources/ARCONTROLLER_Feature.c.o
                0x00052124                ARCONTROLLER_ARDrone3_NewCmdElementMediaRecordEventVideoEventChanged
 .text.ARCONTROLLER_FEATURE_ARDrone3_MediaRecordEventVideoEventChangedCallback
                0x000528e8      0x438 /home/ncs/CAPSTONE/out/arsdk-native/build/libARController/obj/gen/Sources/ARCONTROLLER_Feature.c.o
                0x000528e8                ARCONTROLLER_FEATURE_ARDrone3_MediaRecordEventVideoEventChangedCallback
 .text.ARCONTROLLER_ARDrone3_NewCmdElementPilotingStateFlyingStateChanged
                0x00052d20      0x428 /home/ncs/CAPSTONE/out/arsdk-native/build/libARController/obj/gen/Sources/ARCONTROLLER_Feature.c.o
                0x00052d20                ARCONTROLLER_ARDrone3_NewCmdElementPilotingStateFlyingStateChanged
 .text.ARCONTROLLER_FEATURE_ARDrone3_PilotingStateFlyingStateChangedCallback
                0x00053148      0x42c /home/ncs/CAPSTONE/out/arsdk-native/build/libARController/obj/gen/Sources/ARCONTROLLER_Feature.c.o
                0x00053148                ARCONTROLLER_FEATURE_ARDrone3_PilotingStateFlyingStateChangedCallback
 .text.ARCONTROLLER_ARDrone3_NewCmdElementPilotingStateAlertStateChanged
                0x00053574      0x428 /home/ncs/CAPSTONE/out/arsdk-native/build/libARController/obj/gen/Sources/ARCONTROLLER_Feature.c.o
                0x00053574                ARCONTROLLER_ARDrone3_NewCmdElementPilotingStateAlertStateChanged
 .text.ARCONTROLLER_FEATURE_ARDrone3_PilotingStateAlertStateChangedCallback
                0x0005399c      0x42c /home/ncs/CAPSTONE/out/arsdk-native/build/libARController/obj/gen/Sources/ARCONTROLLER_Feature.c.o
                0x0005399c                ARCONTROLLER_FEATURE_ARDrone3_PilotingStateAlertStateChangedCallback
 .text.ARCONTROLLER_ARDrone3_NewCmdElementPilotingStateNavigateHomeStateChanged
                0x00053dc8      0x7c4 /home/ncs/CAPSTONE/out/arsdk-native/build/libARController/obj/gen/Sources/ARCONTROLLER_Feature.c.o
                0x00053dc8                ARCONTROLLER_ARDrone3_NewCmdElementPilotingStateNavigateHomeStateChanged
 .text.ARCONTROLLER_FEATURE_ARDrone3_PilotingStateNavigateHomeStateChangedCallback
                0x0005458c      0x438 /home/ncs/CAPSTONE/out/arsdk-native/build/libARController/obj/gen/Sources/ARCONTROLLER_Feature.c.o
                0x0005458c                ARCONTROLLER_FEATURE_ARDrone3_PilotingStateNavigateHomeStateChangedCallback
 .text.ARCONTROLLER_ARDrone3_NewCmdElementPilotingStatePositionChanged
                0x000549c4      0xb78 /home/ncs/CAPSTONE/out/arsdk-native/build/libARController/obj/gen/Sources/ARCONTROLLER_Feature.c.o
                0x000549c4                ARCONTROLLER_ARDrone3_NewCmdElementPilotingStatePositionChanged
 .text.ARCONTROLLER_FEATURE_ARDrone3_PilotingStatePositionChangedCallback
                0x0005553c      0x444 /home/ncs/CAPSTONE/out/arsdk-native/build/libARController/obj/gen/Sources/ARCONTROLLER_Feature.c.o
                0x0005553c                ARCONTROLLER_FEATURE_ARDrone3_PilotingStatePositionChangedCallback
 .text.ARCONTROLLER_ARDrone3_NewCmdElementPilotingStateSpeedChanged
                0x00055980      0xb78 /home/ncs/CAPSTONE/out/arsdk-native/build/libARController/obj/gen/Sources/ARCONTROLLER_Feature.c.o
                0x00055980                ARCONTROLLER_ARDrone3_NewCmdElementPilotingStateSpeedChanged
 .text.ARCONTROLLER_FEATURE_ARDrone3_PilotingStateSpeedChangedCallback
                0x000564f8      0x444 /home/ncs/CAPSTONE/out/arsdk-native/build/libARController/obj/gen/Sources/ARCONTROLLER_Feature.c.o
                0x000564f8                ARCONTROLLER_FEATURE_ARDrone3_PilotingStateSpeedChangedCallback
 .text.ARCONTROLLER_ARDrone3_NewCmdElementPilotingStateAttitudeChanged
                0x0005693c      0xb78 /home/ncs/CAPSTONE/out/arsdk-native/build/libARController/obj/gen/Sources/ARCONTROLLER_Feature.c.o
                0x0005693c                ARCONTROLLER_ARDrone3_NewCmdElementPilotingStateAttitudeChanged
 .text.ARCONTROLLER_FEATURE_ARDrone3_PilotingStateAttitudeChangedCallback
                0x000574b4      0x444 /home/ncs/CAPSTONE/out/arsdk-native/build/libARController/obj/gen/Sources/ARCONTROLLER_Feature.c.o
                0x000574b4                ARCONTROLLER_FEATURE_ARDrone3_PilotingStateAttitudeChangedCallback
 .text.ARCONTROLLER_ARDrone3_NewCmdElementPilotingStateAutoTakeOffModeChanged
                0x000578f8      0x428 /home/ncs/CAPSTONE/out/arsdk-native/build/libARController/obj/gen/Sources/ARCONTROLLER_Feature.c.o
                0x000578f8                ARCONTROLLER_ARDrone3_NewCmdElementPilotingStateAutoTakeOffModeChanged
 .text.ARCONTROLLER_FEATURE_ARDrone3_PilotingStateAutoTakeOffModeChangedCallback
                0x00057d20      0x42c /home/ncs/CAPSTONE/out/arsdk-native/build/libARController/obj/gen/Sources/ARCONTROLLER_Feature.c.o
                0x00057d20                ARCONTROLLER_FEATURE_ARDrone3_PilotingStateAutoTakeOffModeChangedCallback
 .text.ARCONTROLLER_ARDrone3_NewCmdElementPilotingStateAltitudeChanged
                0x0005814c      0x430 /home/ncs/CAPSTONE/out/arsdk-native/build/libARController/obj/gen/Sources/ARCONTROLLER_Feature.c.o
                0x0005814c                ARCONTROLLER_ARDrone3_NewCmdElementPilotingStateAltitudeChanged
 .text.ARCONTROLLER_FEATURE_ARDrone3_PilotingStateAltitudeChangedCallback
                0x0005857c      0x434 /home/ncs/CAPSTONE/out/arsdk-native/build/libARController/obj/gen/Sources/ARCONTROLLER_Feature.c.o
                0x0005857c                ARCONTROLLER_FEATURE_ARDrone3_PilotingStateAltitudeChangedCallback
 .text.ARCONTROLLER_ARDrone3_NewCmdElementPilotingStateGpsLocationChanged
                0x000589b0     0x168c /home/ncs/CAPSTONE/out/arsdk-native/build/libARController/obj/gen/Sources/ARCONTROLLER_Feature.c.o
                0x000589b0                ARCONTROLLER_ARDrone3_NewCmdElementPilotingStateGpsLocationChanged
 .text.ARCONTROLLER_FEATURE_ARDrone3_PilotingStateGpsLocationChangedCallback
                0x0005a03c      0x460 /home/ncs/CAPSTONE/out/arsdk-native/build/libARController/obj/gen/Sources/ARCONTROLLER_Feature.c.o
                0x0005a03c                ARCONTROLLER_FEATURE_ARDrone3_PilotingStateGpsLocationChangedCallback
 .text.ARCONTROLLER_ARDrone3_NewCmdElementPilotingStateLandingStateChanged
                0x0005a49c      0x428 /home/ncs/CAPSTONE/out/arsdk-native/build/libARController/obj/gen/Sources/ARCONTROLLER_Feature.c.o
                0x0005a49c                ARCONTROLLER_ARDrone3_NewCmdElementPilotingStateLandingStateChanged
 .text.ARCONTROLLER_FEATURE_ARDrone3_PilotingStateLandingStateChangedCallback
                0x0005a8c4      0x42c /home/ncs/CAPSTONE/out/arsdk-native/build/libARController/obj/gen/Sources/ARCONTROLLER_Feature.c.o
                0x0005a8c4                ARCONTROLLER_FEATURE_ARDrone3_PilotingStateLandingStateChangedCallback
 .text.ARCONTROLLER_ARDrone3_NewCmdElementPilotingEventMoveByEnd
                0x0005acf0     0x12dc /home/ncs/CAPSTONE/out/arsdk-native/build/libARController/obj/gen/Sources/ARCONTROLLER_Feature.c.o
                0x0005acf0                ARCONTROLLER_ARDrone3_NewCmdElementPilotingEventMoveByEnd
 .text.ARCONTROLLER_FEATURE_ARDrone3_PilotingEventMoveByEndCallback
                0x0005bfcc      0x454 /home/ncs/CAPSTONE/out/arsdk-native/build/libARController/obj/gen/Sources/ARCONTROLLER_Feature.c.o
                0x0005bfcc                ARCONTROLLER_FEATURE_ARDrone3_PilotingEventMoveByEndCallback
 .text.ARCONTROLLER_ARDrone3_NewCmdElementNetworkStateWifiScanListChanged
                0x0005c420      0xf3c /home/ncs/CAPSTONE/out/arsdk-native/build/libARController/obj/gen/Sources/ARCONTROLLER_Feature.c.o
                0x0005c420                ARCONTROLLER_ARDrone3_NewCmdElementNetworkStateWifiScanListChanged
 .text.ARCONTROLLER_FEATURE_ARDrone3_NetworkStateWifiScanListChangedCallback
                0x0005d35c      0x43c /home/ncs/CAPSTONE/out/arsdk-native/build/libARController/obj/gen/Sources/ARCONTROLLER_Feature.c.o
                0x0005d35c                ARCONTROLLER_FEATURE_ARDrone3_NetworkStateWifiScanListChangedCallback
 .text.ARCONTROLLER_ARDrone3_NewCmdElementNetworkStateWifiAuthChannelListChanged
                0x0005d798      0xbe8 /home/ncs/CAPSTONE/out/arsdk-native/build/libARController/obj/gen/Sources/ARCONTROLLER_Feature.c.o
                0x0005d798                ARCONTROLLER_ARDrone3_NewCmdElementNetworkStateWifiAuthChannelListChanged
 .text.ARCONTROLLER_FEATURE_ARDrone3_NetworkStateWifiAuthChannelListChangedCallback
                0x0005e380      0x454 /home/ncs/CAPSTONE/out/arsdk-native/build/libARController/obj/gen/Sources/ARCONTROLLER_Feature.c.o
                0x0005e380                ARCONTROLLER_FEATURE_ARDrone3_NetworkStateWifiAuthChannelListChangedCallback
 .text.ARCONTROLLER_ARDrone3_NewCmdElementNetworkStateAllWifiAuthChannelChanged
                0x0005e7d4       0x7c /home/ncs/CAPSTONE/out/arsdk-native/build/libARController/obj/gen/Sources/ARCONTROLLER_Feature.c.o
                0x0005e7d4                ARCONTROLLER_ARDrone3_NewCmdElementNetworkStateAllWifiAuthChannelChanged
 .text.ARCONTROLLER_ARDrone3_NewCmdElementNetworkStateAllWifiScanChanged
                0x0005e850        0x4 /home/ncs/CAPSTONE/out/arsdk-native/build/libARController/obj/gen/Sources/ARCONTROLLER_Feature.c.o
                0x0005e850                ARCONTROLLER_ARDrone3_NewCmdElementNetworkStateAllWifiScanChanged
 .text.ARCONTROLLER_FEATURE_ARDrone3_NetworkStateAllWifiScanChangedCallback
                0x0005e854      0x424 /home/ncs/CAPSTONE/out/arsdk-native/build/libARController/obj/gen/Sources/ARCONTROLLER_Feature.c.o
                0x0005e854                ARCONTROLLER_FEATURE_ARDrone3_NetworkStateAllWifiScanChangedCallback
 .text.ARCONTROLLER_ARDrone3_NewCmdElementPilotingStateFlatTrimChanged
                0x0005ec78        0x4 /home/ncs/CAPSTONE/out/arsdk-native/build/libARController/obj/gen/Sources/ARCONTROLLER_Feature.c.o
                0x0005ec78                ARCONTROLLER_ARDrone3_NewCmdElementPilotingStateFlatTrimChanged
 .text.ARCONTROLLER_FEATURE_ARDrone3_PilotingStateFlatTrimChangedCallback
                0x0005ec7c      0x424 /home/ncs/CAPSTONE/out/arsdk-native/build/libARController/obj/gen/Sources/ARCONTROLLER_Feature.c.o
                0x0005ec7c                ARCONTROLLER_FEATURE_ARDrone3_PilotingStateFlatTrimChangedCallback
 .text.ARCONTROLLER_FEATURE_ARDrone3_NetworkStateAllWifiAuthChannelChangedCallback
                0x0005f0a0      0x424 /home/ncs/CAPSTONE/out/arsdk-native/build/libARController/obj/gen/Sources/ARCONTROLLER_Feature.c.o
                0x0005f0a0                ARCONTROLLER_FEATURE_ARDrone3_NetworkStateAllWifiAuthChannelChangedCallback
 .text.ARCONTROLLER_ARDrone3_NewCmdElementPilotingSettingsStateMaxAltitudeChanged
                0x0005f4c4      0xb78 /home/ncs/CAPSTONE/out/arsdk-native/build/libARController/obj/gen/Sources/ARCONTROLLER_Feature.c.o
                0x0005f4c4                ARCONTROLLER_ARDrone3_NewCmdElementPilotingSettingsStateMaxAltitudeChanged
 .text.ARCONTROLLER_FEATURE_ARDrone3_PilotingSettingsStateMaxAltitudeChangedCallback
                0x0006003c      0x444 /home/ncs/CAPSTONE/out/arsdk-native/build/libARController/obj/gen/Sources/ARCONTROLLER_Feature.c.o
                0x0006003c                ARCONTROLLER_FEATURE_ARDrone3_PilotingSettingsStateMaxAltitudeChangedCallback
 .text.ARCONTROLLER_ARDrone3_NewCmdElementPilotingSettingsStateMaxTiltChanged
                0x00060480      0xb78 /home/ncs/CAPSTONE/out/arsdk-native/build/libARController/obj/gen/Sources/ARCONTROLLER_Feature.c.o
                0x00060480                ARCONTROLLER_ARDrone3_NewCmdElementPilotingSettingsStateMaxTiltChanged
 .text.ARCONTROLLER_FEATURE_ARDrone3_PilotingSettingsStateMaxTiltChangedCallback
                0x00060ff8      0x444 /home/ncs/CAPSTONE/out/arsdk-native/build/libARController/obj/gen/Sources/ARCONTROLLER_Feature.c.o
                0x00060ff8                ARCONTROLLER_FEATURE_ARDrone3_PilotingSettingsStateMaxTiltChangedCallback
 .text.ARCONTROLLER_ARDrone3_NewCmdElementPilotingSettingsStateAbsolutControlChanged
                0x0006143c      0x428 /home/ncs/CAPSTONE/out/arsdk-native/build/libARController/obj/gen/Sources/ARCONTROLLER_Feature.c.o
                0x0006143c                ARCONTROLLER_ARDrone3_NewCmdElementPilotingSettingsStateAbsolutControlChanged
 .text.ARCONTROLLER_FEATURE_ARDrone3_PilotingSettingsStateAbsolutControlChangedCallback
                0x00061864      0x42c /home/ncs/CAPSTONE/out/arsdk-native/build/libARController/obj/gen/Sources/ARCONTROLLER_Feature.c.o
                0x00061864                ARCONTROLLER_FEATURE_ARDrone3_PilotingSettingsStateAbsolutControlChangedCallback
 .text.ARCONTROLLER_ARDrone3_NewCmdElementPilotingSettingsStateMaxDistanceChanged
                0x00061c90      0xb78 /home/ncs/CAPSTONE/out/arsdk-native/build/libARController/obj/gen/Sources/ARCONTROLLER_Feature.c.o
                0x00061c90                ARCONTROLLER_ARDrone3_NewCmdElementPilotingSettingsStateMaxDistanceChanged
 .text.ARCONTROLLER_FEATURE_ARDrone3_PilotingSettingsStateMaxDistanceChangedCallback
                0x00062808      0x444 /home/ncs/CAPSTONE/out/arsdk-native/build/libARController/obj/gen/Sources/ARCONTROLLER_Feature.c.o
                0x00062808                ARCONTROLLER_FEATURE_ARDrone3_PilotingSettingsStateMaxDistanceChangedCallback
 .text.ARCONTROLLER_ARDrone3_NewCmdElementPilotingSettingsStateNoFlyOverMaxDistanceChanged
                0x00062c4c      0x428 /home/ncs/CAPSTONE/out/arsdk-native/build/libARController/obj/gen/Sources/ARCONTROLLER_Feature.c.o
                0x00062c4c                ARCONTROLLER_ARDrone3_NewCmdElementPilotingSettingsStateNoFlyOverMaxDistanceChanged
 .text.ARCONTROLLER_FEATURE_ARDrone3_PilotingSettingsStateNoFlyOverMaxDistanceChangedCallback
                0x00063074      0x42c /home/ncs/CAPSTONE/out/arsdk-native/build/libARController/obj/gen/Sources/ARCONTROLLER_Feature.c.o
                0x00063074                ARCONTROLLER_FEATURE_ARDrone3_PilotingSettingsStateNoFlyOverMaxDistanceChangedCallback
 .text.ARCONTROLLER_ARDrone3_NewCmdElementPilotingSettingsStateAutonomousFlightMaxHorizontalSpeed
                0x000634a0      0x430 /home/ncs/CAPSTONE/out/arsdk-native/build/libARController/obj/gen/Sources/ARCONTROLLER_Feature.c.o
                0x000634a0                ARCONTROLLER_ARDrone3_NewCmdElementPilotingSettingsStateAutonomousFlightMaxHorizontalSpeed
 .text.ARCONTROLLER_FEATURE_ARDrone3_PilotingSettingsStateAutonomousFlightMaxHorizontalSpeedCallback
                0x000638d0      0x434 /home/ncs/CAPSTONE/out/arsdk-native/build/libARController/obj/gen/Sources/ARCONTROLLER_Feature.c.o
                0x000638d0                ARCONTROLLER_FEATURE_ARDrone3_PilotingSettingsStateAutonomousFlightMaxHorizontalSpeedCallback
 .text.ARCONTROLLER_ARDrone3_NewCmdElementPilotingSettingsStateAutonomousFlightMaxVerticalSpeed
                0x00063d04      0x430 /home/ncs/CAPSTONE/out/arsdk-native/build/libARController/obj/gen/Sources/ARCONTROLLER_Feature.c.o
                0x00063d04                ARCONTROLLER_ARDrone3_NewCmdElementPilotingSettingsStateAutonomousFlightMaxVerticalSpeed
 .text.ARCONTROLLER_FEATURE_ARDrone3_PilotingSettingsStateAutonomousFlightMaxVerticalSpeedCallback
                0x00064134      0x434 /home/ncs/CAPSTONE/out/arsdk-native/build/libARController/obj/gen/Sources/ARCONTROLLER_Feature.c.o
                0x00064134                ARCONTROLLER_FEATURE_ARDrone3_PilotingSettingsStateAutonomousFlightMaxVerticalSpeedCallback
 .text.ARCONTROLLER_ARDrone3_NewCmdElementPilotingSettingsStateAutonomousFlightMaxHorizontalAcceleration
                0x00064568      0x430 /home/ncs/CAPSTONE/out/arsdk-native/build/libARController/obj/gen/Sources/ARCONTROLLER_Feature.c.o
                0x00064568                ARCONTROLLER_ARDrone3_NewCmdElementPilotingSettingsStateAutonomousFlightMaxHorizontalAcceleration
 .text.ARCONTROLLER_FEATURE_ARDrone3_PilotingSettingsStateAutonomousFlightMaxHorizontalAccelerationCallback
                0x00064998      0x434 /home/ncs/CAPSTONE/out/arsdk-native/build/libARController/obj/gen/Sources/ARCONTROLLER_Feature.c.o
                0x00064998                ARCONTROLLER_FEATURE_ARDrone3_PilotingSettingsStateAutonomousFlightMaxHorizontalAccelerationCallback
 .text.ARCONTROLLER_ARDrone3_NewCmdElementPilotingSettingsStateAutonomousFlightMaxVerticalAcceleration
                0x00064dcc      0x430 /home/ncs/CAPSTONE/out/arsdk-native/build/libARController/obj/gen/Sources/ARCONTROLLER_Feature.c.o
                0x00064dcc                ARCONTROLLER_ARDrone3_NewCmdElementPilotingSettingsStateAutonomousFlightMaxVerticalAcceleration
 .text.ARCONTROLLER_FEATURE_ARDrone3_PilotingSettingsStateAutonomousFlightMaxVerticalAccelerationCallback
                0x000651fc      0x434 /home/ncs/CAPSTONE/out/arsdk-native/build/libARController/obj/gen/Sources/ARCONTROLLER_Feature.c.o
                0x000651fc                ARCONTROLLER_FEATURE_ARDrone3_PilotingSettingsStateAutonomousFlightMaxVerticalAccelerationCallback
 .text.ARCONTROLLER_ARDrone3_NewCmdElementPilotingSettingsStateAutonomousFlightMaxRotationSpeed
                0x00065630      0x430 /home/ncs/CAPSTONE/out/arsdk-native/build/libARController/obj/gen/Sources/ARCONTROLLER_Feature.c.o
                0x00065630                ARCONTROLLER_ARDrone3_NewCmdElementPilotingSettingsStateAutonomousFlightMaxRotationSpeed
 .text.ARCONTROLLER_FEATURE_ARDrone3_PilotingSettingsStateAutonomousFlightMaxRotationSpeedCallback
                0x00065a60      0x434 /home/ncs/CAPSTONE/out/arsdk-native/build/libARController/obj/gen/Sources/ARCONTROLLER_Feature.c.o
                0x00065a60                ARCONTROLLER_FEATURE_ARDrone3_PilotingSettingsStateAutonomousFlightMaxRotationSpeedCallback
 .text.ARCONTROLLER_ARDrone3_NewCmdElementPilotingSettingsStateBankedTurnChanged
                0x00065e94      0x428 /home/ncs/CAPSTONE/out/arsdk-native/build/libARController/obj/gen/Sources/ARCONTROLLER_Feature.c.o
                0x00065e94                ARCONTROLLER_ARDrone3_NewCmdElementPilotingSettingsStateBankedTurnChanged
 .text.ARCONTROLLER_FEATURE_ARDrone3_PilotingSettingsStateBankedTurnChangedCallback
                0x000662bc      0x42c /home/ncs/CAPSTONE/out/arsdk-native/build/libARController/obj/gen/Sources/ARCONTROLLER_Feature.c.o
                0x000662bc                ARCONTROLLER_FEATURE_ARDrone3_PilotingSettingsStateBankedTurnChangedCallback
 .text.ARCONTROLLER_ARDrone3_NewCmdElementPilotingSettingsStateMinAltitudeChanged
                0x000666e8      0xb78 /home/ncs/CAPSTONE/out/arsdk-native/build/libARController/obj/gen/Sources/ARCONTROLLER_Feature.c.o
                0x000666e8                ARCONTROLLER_ARDrone3_NewCmdElementPilotingSettingsStateMinAltitudeChanged
 .text.ARCONTROLLER_FEATURE_ARDrone3_PilotingSettingsStateMinAltitudeChangedCallback
                0x00067260      0x444 /home/ncs/CAPSTONE/out/arsdk-native/build/libARController/obj/gen/Sources/ARCONTROLLER_Feature.c.o
                0x00067260                ARCONTROLLER_FEATURE_ARDrone3_PilotingSettingsStateMinAltitudeChangedCallback
 .text.ARCONTROLLER_ARDrone3_NewCmdElementPilotingSettingsStateCirclingDirectionChanged
                0x000676a4      0x428 /home/ncs/CAPSTONE/out/arsdk-native/build/libARController/obj/gen/Sources/ARCONTROLLER_Feature.c.o
                0x000676a4                ARCONTROLLER_ARDrone3_NewCmdElementPilotingSettingsStateCirclingDirectionChanged
 .text.ARCONTROLLER_FEATURE_ARDrone3_PilotingSettingsStateCirclingDirectionChangedCallback
                0x00067acc      0x42c /home/ncs/CAPSTONE/out/arsdk-native/build/libARController/obj/gen/Sources/ARCONTROLLER_Feature.c.o
                0x00067acc                ARCONTROLLER_FEATURE_ARDrone3_PilotingSettingsStateCirclingDirectionChangedCallback
 .text.ARCONTROLLER_ARDrone3_NewCmdElementPilotingSettingsStateCirclingRadiusChanged
                0x00067ef8      0xb64 /home/ncs/CAPSTONE/out/arsdk-native/build/libARController/obj/gen/Sources/ARCONTROLLER_Feature.c.o
                0x00067ef8                ARCONTROLLER_ARDrone3_NewCmdElementPilotingSettingsStateCirclingRadiusChanged
 .text.ARCONTROLLER_FEATURE_ARDrone3_PilotingSettingsStateCirclingRadiusChangedCallback
                0x00068a5c      0x440 /home/ncs/CAPSTONE/out/arsdk-native/build/libARController/obj/gen/Sources/ARCONTROLLER_Feature.c.o
                0x00068a5c                ARCONTROLLER_FEATURE_ARDrone3_PilotingSettingsStateCirclingRadiusChangedCallback
 .text.ARCONTROLLER_ARDrone3_NewCmdElementPilotingSettingsStateCirclingAltitudeChanged
                0x00068e9c      0xb64 /home/ncs/CAPSTONE/out/arsdk-native/build/libARController/obj/gen/Sources/ARCONTROLLER_Feature.c.o
                0x00068e9c                ARCONTROLLER_ARDrone3_NewCmdElementPilotingSettingsStateCirclingAltitudeChanged
 .text.ARCONTROLLER_FEATURE_ARDrone3_PilotingSettingsStateCirclingAltitudeChangedCallback
                0x00069a00      0x440 /home/ncs/CAPSTONE/out/arsdk-native/build/libARController/obj/gen/Sources/ARCONTROLLER_Feature.c.o
                0x00069a00                ARCONTROLLER_FEATURE_ARDrone3_PilotingSettingsStateCirclingAltitudeChangedCallback
 .text.ARCONTROLLER_ARDrone3_NewCmdElementPilotingSettingsStatePitchModeChanged
                0x00069e40      0x428 /home/ncs/CAPSTONE/out/arsdk-native/build/libARController/obj/gen/Sources/ARCONTROLLER_Feature.c.o
                0x00069e40                ARCONTROLLER_ARDrone3_NewCmdElementPilotingSettingsStatePitchModeChanged
 .text.ARCONTROLLER_FEATURE_ARDrone3_PilotingSettingsStatePitchModeChangedCallback
                0x0006a268      0x42c /home/ncs/CAPSTONE/out/arsdk-native/build/libARController/obj/gen/Sources/ARCONTROLLER_Feature.c.o
                0x0006a268                ARCONTROLLER_FEATURE_ARDrone3_PilotingSettingsStatePitchModeChangedCallback
 .text.ARCONTROLLER_ARDrone3_NewCmdElementSpeedSettingsStateMaxVerticalSpeedChanged
                0x0006a694      0xb78 /home/ncs/CAPSTONE/out/arsdk-native/build/libARController/obj/gen/Sources/ARCONTROLLER_Feature.c.o
                0x0006a694                ARCONTROLLER_ARDrone3_NewCmdElementSpeedSettingsStateMaxVerticalSpeedChanged
 .text.ARCONTROLLER_FEATURE_ARDrone3_SpeedSettingsStateMaxVerticalSpeedChangedCallback
                0x0006b20c      0x444 /home/ncs/CAPSTONE/out/arsdk-native/build/libARController/obj/gen/Sources/ARCONTROLLER_Feature.c.o
                0x0006b20c                ARCONTROLLER_FEATURE_ARDrone3_SpeedSettingsStateMaxVerticalSpeedChangedCallback
 .text.ARCONTROLLER_ARDrone3_NewCmdElementSpeedSettingsStateMaxRotationSpeedChanged
                0x0006b650      0xb78 /home/ncs/CAPSTONE/out/arsdk-native/build/libARController/obj/gen/Sources/ARCONTROLLER_Feature.c.o
                0x0006b650                ARCONTROLLER_ARDrone3_NewCmdElementSpeedSettingsStateMaxRotationSpeedChanged
 .text.ARCONTROLLER_FEATURE_ARDrone3_SpeedSettingsStateMaxRotationSpeedChangedCallback
                0x0006c1c8      0x444 /home/ncs/CAPSTONE/out/arsdk-native/build/libARController/obj/gen/Sources/ARCONTROLLER_Feature.c.o
                0x0006c1c8                ARCONTROLLER_FEATURE_ARDrone3_SpeedSettingsStateMaxRotationSpeedChangedCallback
 .text.ARCONTROLLER_ARDrone3_NewCmdElementSpeedSettingsStateHullProtectionChanged
                0x0006c60c      0x428 /home/ncs/CAPSTONE/out/arsdk-native/build/libARController/obj/gen/Sources/ARCONTROLLER_Feature.c.o
                0x0006c60c                ARCONTROLLER_ARDrone3_NewCmdElementSpeedSettingsStateHullProtectionChanged
 .text.ARCONTROLLER_FEATURE_ARDrone3_SpeedSettingsStateHullProtectionChangedCallback
                0x0006ca34      0x42c /home/ncs/CAPSTONE/out/arsdk-native/build/libARController/obj/gen/Sources/ARCONTROLLER_Feature.c.o
                0x0006ca34                ARCONTROLLER_FEATURE_ARDrone3_SpeedSettingsStateHullProtectionChangedCallback
 .text.ARCONTROLLER_ARDrone3_NewCmdElementSpeedSettingsStateOutdoorChanged
                0x0006ce60      0x428 /home/ncs/CAPSTONE/out/arsdk-native/build/libARController/obj/gen/Sources/ARCONTROLLER_Feature.c.o
                0x0006ce60                ARCONTROLLER_ARDrone3_NewCmdElementSpeedSettingsStateOutdoorChanged
 .text.ARCONTROLLER_FEATURE_ARDrone3_SpeedSettingsStateOutdoorChangedCallback
                0x0006d288      0x42c /home/ncs/CAPSTONE/out/arsdk-native/build/libARController/obj/gen/Sources/ARCONTROLLER_Feature.c.o
                0x0006d288                ARCONTROLLER_FEATURE_ARDrone3_SpeedSettingsStateOutdoorChangedCallback
 .text.ARCONTROLLER_ARDrone3_NewCmdElementSpeedSettingsStateMaxPitchRollRotationSpeedChanged
                0x0006d6b4      0xb78 /home/ncs/CAPSTONE/out/arsdk-native/build/libARController/obj/gen/Sources/ARCONTROLLER_Feature.c.o
                0x0006d6b4                ARCONTROLLER_ARDrone3_NewCmdElementSpeedSettingsStateMaxPitchRollRotationSpeedChanged
 .text.ARCONTROLLER_FEATURE_ARDrone3_SpeedSettingsStateMaxPitchRollRotationSpeedChangedCallback
                0x0006e22c      0x444 /home/ncs/CAPSTONE/out/arsdk-native/build/libARController/obj/gen/Sources/ARCONTROLLER_Feature.c.o
                0x0006e22c                ARCONTROLLER_FEATURE_ARDrone3_SpeedSettingsStateMaxPitchRollRotationSpeedChangedCallback
 .text.ARCONTROLLER_ARDrone3_NewCmdElementNetworkSettingsStateWifiSelectionChanged
                0x0006e670      0xb60 /home/ncs/CAPSTONE/out/arsdk-native/build/libARController/obj/gen/Sources/ARCONTROLLER_Feature.c.o
                0x0006e670                ARCONTROLLER_ARDrone3_NewCmdElementNetworkSettingsStateWifiSelectionChanged
 .text.ARCONTROLLER_FEATURE_ARDrone3_NetworkSettingsStateWifiSelectionChangedCallback
                0x0006f1d0      0x440 /home/ncs/CAPSTONE/out/arsdk-native/build/libARController/obj/gen/Sources/ARCONTROLLER_Feature.c.o
                0x0006f1d0                ARCONTROLLER_FEATURE_ARDrone3_NetworkSettingsStateWifiSelectionChangedCallback
 .text.ARCONTROLLER_ARDrone3_NewCmdElementNetworkSettingsStateWifiSecurityChanged
                0x0006f610      0x428 /home/ncs/CAPSTONE/out/arsdk-native/build/libARController/obj/gen/Sources/ARCONTROLLER_Feature.c.o
                0x0006f610                ARCONTROLLER_ARDrone3_NewCmdElementNetworkSettingsStateWifiSecurityChanged
 .text.ARCONTROLLER_FEATURE_ARDrone3_NetworkSettingsStateWifiSecurityChangedCallback
                0x0006fa38      0x42c /home/ncs/CAPSTONE/out/arsdk-native/build/libARController/obj/gen/Sources/ARCONTROLLER_Feature.c.o
                0x0006fa38                ARCONTROLLER_FEATURE_ARDrone3_NetworkSettingsStateWifiSecurityChangedCallback
 .text.ARCONTROLLER_ARDrone3_NewCmdElementNetworkSettingsStateWifiSecurity
                0x0006fe64      0xb98 /home/ncs/CAPSTONE/out/arsdk-native/build/libARController/obj/gen/Sources/ARCONTROLLER_Feature.c.o
                0x0006fe64                ARCONTROLLER_ARDrone3_NewCmdElementNetworkSettingsStateWifiSecurity
 .text.ARCONTROLLER_FEATURE_ARDrone3_NetworkSettingsStateWifiSecurityCallback
                0x000709fc      0x440 /home/ncs/CAPSTONE/out/arsdk-native/build/libARController/obj/gen/Sources/ARCONTROLLER_Feature.c.o
                0x000709fc                ARCONTROLLER_FEATURE_ARDrone3_NetworkSettingsStateWifiSecurityCallback
 .text.ARCONTROLLER_ARDrone3_NewCmdElementSettingsStateProductMotorVersionListChanged
                0x00070e3c      0xff4 /home/ncs/CAPSTONE/out/arsdk-native/build/libARController/obj/gen/Sources/ARCONTROLLER_Feature.c.o
                0x00070e3c                ARCONTROLLER_ARDrone3_NewCmdElementSettingsStateProductMotorVersionListChanged
 .text.ARCONTROLLER_FEATURE_ARDrone3_SettingsStateProductMotorVersionListChangedCallback
                0x00071e30      0x43c /home/ncs/CAPSTONE/out/arsdk-native/build/libARController/obj/gen/Sources/ARCONTROLLER_Feature.c.o
                0x00071e30                ARCONTROLLER_FEATURE_ARDrone3_SettingsStateProductMotorVersionListChangedCallback
 .text.ARCONTROLLER_ARDrone3_NewCmdElementSettingsStateProductGPSVersionChanged
                0x0007226c      0x834 /home/ncs/CAPSTONE/out/arsdk-native/build/libARController/obj/gen/Sources/ARCONTROLLER_Feature.c.o
                0x0007226c                ARCONTROLLER_ARDrone3_NewCmdElementSettingsStateProductGPSVersionChanged
 .text.ARCONTROLLER_FEATURE_ARDrone3_SettingsStateProductGPSVersionChangedCallback
                0x00072aa0      0x438 /home/ncs/CAPSTONE/out/arsdk-native/build/libARController/obj/gen/Sources/ARCONTROLLER_Feature.c.o
                0x00072aa0                ARCONTROLLER_FEATURE_ARDrone3_SettingsStateProductGPSVersionChangedCallback
 .text.ARCONTROLLER_ARDrone3_NewCmdElementSettingsStateMotorErrorStateChanged
                0x00072ed8      0x7c4 /home/ncs/CAPSTONE/out/arsdk-native/build/libARController/obj/gen/Sources/ARCONTROLLER_Feature.c.o
                0x00072ed8                ARCONTROLLER_ARDrone3_NewCmdElementSettingsStateMotorErrorStateChanged
 .text.ARCONTROLLER_FEATURE_ARDrone3_SettingsStateMotorErrorStateChangedCallback
                0x0007369c      0x438 /home/ncs/CAPSTONE/out/arsdk-native/build/libARController/obj/gen/Sources/ARCONTROLLER_Feature.c.o
                0x0007369c                ARCONTROLLER_FEATURE_ARDrone3_SettingsStateMotorErrorStateChangedCallback
 .text.ARCONTROLLER_ARDrone3_NewCmdElementSettingsStateMotorSoftwareVersionChanged
                0x00073ad4      0x45c /home/ncs/CAPSTONE/out/arsdk-native/build/libARController/obj/gen/Sources/ARCONTROLLER_Feature.c.o
                0x00073ad4                ARCONTROLLER_ARDrone3_NewCmdElementSettingsStateMotorSoftwareVersionChanged
 .text.ARCONTROLLER_FEATURE_ARDrone3_SettingsStateMotorSoftwareVersionChangedCallback
                0x00073f30      0x42c /home/ncs/CAPSTONE/out/arsdk-native/build/libARController/obj/gen/Sources/ARCONTROLLER_Feature.c.o
                0x00073f30                ARCONTROLLER_FEATURE_ARDrone3_SettingsStateMotorSoftwareVersionChangedCallback
 .text.ARCONTROLLER_ARDrone3_NewCmdElementSettingsStateMotorFlightsStatusChanged
                0x0007435c      0xb60 /home/ncs/CAPSTONE/out/arsdk-native/build/libARController/obj/gen/Sources/ARCONTROLLER_Feature.c.o
                0x0007435c                ARCONTROLLER_ARDrone3_NewCmdElementSettingsStateMotorFlightsStatusChanged
 .text.ARCONTROLLER_FEATURE_ARDrone3_SettingsStateMotorFlightsStatusChangedCallback
                0x00074ebc      0x440 /home/ncs/CAPSTONE/out/arsdk-native/build/libARController/obj/gen/Sources/ARCONTROLLER_Feature.c.o
                0x00074ebc                ARCONTROLLER_FEATURE_ARDrone3_SettingsStateMotorFlightsStatusChangedCallback
 .text.ARCONTROLLER_ARDrone3_NewCmdElementSettingsStateMotorErrorLastErrorChanged
                0x000752fc      0x428 /home/ncs/CAPSTONE/out/arsdk-native/build/libARController/obj/gen/Sources/ARCONTROLLER_Feature.c.o
                0x000752fc                ARCONTROLLER_ARDrone3_NewCmdElementSettingsStateMotorErrorLastErrorChanged
 .text.ARCONTROLLER_FEATURE_ARDrone3_SettingsStateMotorErrorLastErrorChangedCallback
                0x00075724      0x42c /home/ncs/CAPSTONE/out/arsdk-native/build/libARController/obj/gen/Sources/ARCONTROLLER_Feature.c.o
                0x00075724                ARCONTROLLER_FEATURE_ARDrone3_SettingsStateMotorErrorLastErrorChangedCallback
 .text.ARCONTROLLER_ARDrone3_NewCmdElementSettingsStateP7ID
                0x00075b50      0x45c /home/ncs/CAPSTONE/out/arsdk-native/build/libARController/obj/gen/Sources/ARCONTROLLER_Feature.c.o
                0x00075b50                ARCONTROLLER_ARDrone3_NewCmdElementSettingsStateP7ID
 .text.ARCONTROLLER_FEATURE_ARDrone3_SettingsStateP7IDCallback
                0x00075fac      0x42c /home/ncs/CAPSTONE/out/arsdk-native/build/libARController/obj/gen/Sources/ARCONTROLLER_Feature.c.o
                0x00075fac                ARCONTROLLER_FEATURE_ARDrone3_SettingsStateP7IDCallback
 .text.ARCONTROLLER_ARDrone3_NewCmdElementSettingsStateCPUID
                0x000763d8      0x45c /home/ncs/CAPSTONE/out/arsdk-native/build/libARController/obj/gen/Sources/ARCONTROLLER_Feature.c.o
                0x000763d8                ARCONTROLLER_ARDrone3_NewCmdElementSettingsStateCPUID
 .text.ARCONTROLLER_FEATURE_ARDrone3_SettingsStateCPUIDCallback
                0x00076834      0x42c /home/ncs/CAPSTONE/out/arsdk-native/build/libARController/obj/gen/Sources/ARCONTROLLER_Feature.c.o
                0x00076834                ARCONTROLLER_FEATURE_ARDrone3_SettingsStateCPUIDCallback
 .text.ARCONTROLLER_ARDrone3_NewCmdElementPictureSettingsStatePictureFormatChanged
                0x00076c60      0x428 /home/ncs/CAPSTONE/out/arsdk-native/build/libARController/obj/gen/Sources/ARCONTROLLER_Feature.c.o
                0x00076c60                ARCONTROLLER_ARDrone3_NewCmdElementPictureSettingsStatePictureFormatChanged
 .text.ARCONTROLLER_FEATURE_ARDrone3_PictureSettingsStatePictureFormatChangedCallback
                0x00077088      0x42c /home/ncs/CAPSTONE/out/arsdk-native/build/libARController/obj/gen/Sources/ARCONTROLLER_Feature.c.o
                0x00077088                ARCONTROLLER_FEATURE_ARDrone3_PictureSettingsStatePictureFormatChangedCallback
 .text.ARCONTROLLER_ARDrone3_NewCmdElementPictureSettingsStateAutoWhiteBalanceChanged
                0x000774b4      0x428 /home/ncs/CAPSTONE/out/arsdk-native/build/libARController/obj/gen/Sources/ARCONTROLLER_Feature.c.o
                0x000774b4                ARCONTROLLER_ARDrone3_NewCmdElementPictureSettingsStateAutoWhiteBalanceChanged
 .text.ARCONTROLLER_FEATURE_ARDrone3_PictureSettingsStateAutoWhiteBalanceChangedCallback
                0x000778dc      0x42c /home/ncs/CAPSTONE/out/arsdk-native/build/libARController/obj/gen/Sources/ARCONTROLLER_Feature.c.o
                0x000778dc                ARCONTROLLER_FEATURE_ARDrone3_PictureSettingsStateAutoWhiteBalanceChangedCallback
 .text.ARCONTROLLER_ARDrone3_NewCmdElementPictureSettingsStateExpositionChanged
                0x00077d08      0xb78 /home/ncs/CAPSTONE/out/arsdk-native/build/libARController/obj/gen/Sources/ARCONTROLLER_Feature.c.o
                0x00077d08                ARCONTROLLER_ARDrone3_NewCmdElementPictureSettingsStateExpositionChanged
 .text.ARCONTROLLER_FEATURE_ARDrone3_PictureSettingsStateExpositionChangedCallback
                0x00078880      0x444 /home/ncs/CAPSTONE/out/arsdk-native/build/libARController/obj/gen/Sources/ARCONTROLLER_Feature.c.o
                0x00078880                ARCONTROLLER_FEATURE_ARDrone3_PictureSettingsStateExpositionChangedCallback
 .text.ARCONTROLLER_ARDrone3_NewCmdElementPictureSettingsStateSaturationChanged
                0x00078cc4      0xb78 /home/ncs/CAPSTONE/out/arsdk-native/build/libARController/obj/gen/Sources/ARCONTROLLER_Feature.c.o
                0x00078cc4                ARCONTROLLER_ARDrone3_NewCmdElementPictureSettingsStateSaturationChanged
 .text.ARCONTROLLER_FEATURE_ARDrone3_PictureSettingsStateSaturationChangedCallback
                0x0007983c      0x444 /home/ncs/CAPSTONE/out/arsdk-native/build/libARController/obj/gen/Sources/ARCONTROLLER_Feature.c.o
                0x0007983c                ARCONTROLLER_FEATURE_ARDrone3_PictureSettingsStateSaturationChangedCallback
 .text.ARCONTROLLER_ARDrone3_NewCmdElementPictureSettingsStateTimelapseChanged
                0x00079c80      0xf1c /home/ncs/CAPSTONE/out/arsdk-native/build/libARController/obj/gen/Sources/ARCONTROLLER_Feature.c.o
                0x00079c80                ARCONTROLLER_ARDrone3_NewCmdElementPictureSettingsStateTimelapseChanged
 .text.ARCONTROLLER_FEATURE_ARDrone3_PictureSettingsStateTimelapseChangedCallback
                0x0007ab9c      0x44c /home/ncs/CAPSTONE/out/arsdk-native/build/libARController/obj/gen/Sources/ARCONTROLLER_Feature.c.o
                0x0007ab9c                ARCONTROLLER_FEATURE_ARDrone3_PictureSettingsStateTimelapseChangedCallback
 .text.ARCONTROLLER_ARDrone3_NewCmdElementPictureSettingsStateVideoAutorecordChanged
                0x0007afe8      0x7c4 /home/ncs/CAPSTONE/out/arsdk-native/build/libARController/obj/gen/Sources/ARCONTROLLER_Feature.c.o
                0x0007afe8                ARCONTROLLER_ARDrone3_NewCmdElementPictureSettingsStateVideoAutorecordChanged
 .text.ARCONTROLLER_FEATURE_ARDrone3_PictureSettingsStateVideoAutorecordChangedCallback
                0x0007b7ac      0x438 /home/ncs/CAPSTONE/out/arsdk-native/build/libARController/obj/gen/Sources/ARCONTROLLER_Feature.c.o
                0x0007b7ac                ARCONTROLLER_FEATURE_ARDrone3_PictureSettingsStateVideoAutorecordChangedCallback
 .text.ARCONTROLLER_ARDrone3_NewCmdElementPictureSettingsStateVideoStabilizationModeChanged
                0x0007bbe4      0x428 /home/ncs/CAPSTONE/out/arsdk-native/build/libARController/obj/gen/Sources/ARCONTROLLER_Feature.c.o
                0x0007bbe4                ARCONTROLLER_ARDrone3_NewCmdElementPictureSettingsStateVideoStabilizationModeChanged
 .text.ARCONTROLLER_FEATURE_ARDrone3_PictureSettingsStateVideoStabilizationModeChangedCallback
                0x0007c00c      0x42c /home/ncs/CAPSTONE/out/arsdk-native/build/libARController/obj/gen/Sources/ARCONTROLLER_Feature.c.o
                0x0007c00c                ARCONTROLLER_FEATURE_ARDrone3_PictureSettingsStateVideoStabilizationModeChangedCallback
 .text.ARCONTROLLER_ARDrone3_NewCmdElementPictureSettingsStateVideoRecordingModeChanged
                0x0007c438      0x428 /home/ncs/CAPSTONE/out/arsdk-native/build/libARController/obj/gen/Sources/ARCONTROLLER_Feature.c.o
                0x0007c438                ARCONTROLLER_ARDrone3_NewCmdElementPictureSettingsStateVideoRecordingModeChanged
 .text.ARCONTROLLER_FEATURE_ARDrone3_PictureSettingsStateVideoRecordingModeChangedCallback
                0x0007c860      0x434 /home/ncs/CAPSTONE/out/arsdk-native/build/libARController/obj/gen/Sources/ARCONTROLLER_Feature.c.o
                0x0007c860                ARCONTROLLER_FEATURE_ARDrone3_PictureSettingsStateVideoRecordingModeChangedCallback
 .text.ARCONTROLLER_ARDrone3_NewCmdElementPictureSettingsStateVideoFramerateChanged
                0x0007cc94      0x428 /home/ncs/CAPSTONE/out/arsdk-native/build/libARController/obj/gen/Sources/ARCONTROLLER_Feature.c.o
                0x0007cc94                ARCONTROLLER_ARDrone3_NewCmdElementPictureSettingsStateVideoFramerateChanged
 .text.ARCONTROLLER_FEATURE_ARDrone3_PictureSettingsStateVideoFramerateChangedCallback
                0x0007d0bc      0x42c /home/ncs/CAPSTONE/out/arsdk-native/build/libARController/obj/gen/Sources/ARCONTROLLER_Feature.c.o
                0x0007d0bc                ARCONTROLLER_FEATURE_ARDrone3_PictureSettingsStateVideoFramerateChangedCallback
 .text.ARCONTROLLER_ARDrone3_NewCmdElementPictureSettingsStateVideoResolutionsChanged
                0x0007d4e8      0x428 /home/ncs/CAPSTONE/out/arsdk-native/build/libARController/obj/gen/Sources/ARCONTROLLER_Feature.c.o
                0x0007d4e8                ARCONTROLLER_ARDrone3_NewCmdElementPictureSettingsStateVideoResolutionsChanged
 .text.ARCONTROLLER_FEATURE_ARDrone3_PictureSettingsStateVideoResolutionsChangedCallback
                0x0007d910      0x42c /home/ncs/CAPSTONE/out/arsdk-native/build/libARController/obj/gen/Sources/ARCONTROLLER_Feature.c.o
                0x0007d910                ARCONTROLLER_FEATURE_ARDrone3_PictureSettingsStateVideoResolutionsChangedCallback
 .text.ARCONTROLLER_ARDrone3_NewCmdElementMediaStreamingStateVideoEnableChanged
                0x0007dd3c      0x428 /home/ncs/CAPSTONE/out/arsdk-native/build/libARController/obj/gen/Sources/ARCONTROLLER_Feature.c.o
                0x0007dd3c                ARCONTROLLER_ARDrone3_NewCmdElementMediaStreamingStateVideoEnableChanged
 .text.ARCONTROLLER_FEATURE_ARDrone3_MediaStreamingStateVideoEnableChangedCallback
                0x0007e164      0x42c /home/ncs/CAPSTONE/out/arsdk-native/build/libARController/obj/gen/Sources/ARCONTROLLER_Feature.c.o
                0x0007e164                ARCONTROLLER_FEATURE_ARDrone3_MediaStreamingStateVideoEnableChangedCallback
 .text.ARCONTROLLER_ARDrone3_NewCmdElementMediaStreamingStateVideoStreamModeChanged
                0x0007e590      0x428 /home/ncs/CAPSTONE/out/arsdk-native/build/libARController/obj/gen/Sources/ARCONTROLLER_Feature.c.o
                0x0007e590                ARCONTROLLER_ARDrone3_NewCmdElementMediaStreamingStateVideoStreamModeChanged
 .text.ARCONTROLLER_FEATURE_ARDrone3_MediaStreamingStateVideoStreamModeChangedCallback
                0x0007e9b8      0x42c /home/ncs/CAPSTONE/out/arsdk-native/build/libARController/obj/gen/Sources/ARCONTROLLER_Feature.c.o
                0x0007e9b8                ARCONTROLLER_FEATURE_ARDrone3_MediaStreamingStateVideoStreamModeChangedCallback
 .text.ARCONTROLLER_ARDrone3_NewCmdElementGPSSettingsStateHomeChanged
                0x0007ede4      0xb78 /home/ncs/CAPSTONE/out/arsdk-native/build/libARController/obj/gen/Sources/ARCONTROLLER_Feature.c.o
                0x0007ede4                ARCONTROLLER_ARDrone3_NewCmdElementGPSSettingsStateHomeChanged
 .text.ARCONTROLLER_FEATURE_ARDrone3_GPSSettingsStateHomeChangedCallback
                0x0007f95c      0x444 /home/ncs/CAPSTONE/out/arsdk-native/build/libARController/obj/gen/Sources/ARCONTROLLER_Feature.c.o
                0x0007f95c                ARCONTROLLER_FEATURE_ARDrone3_GPSSettingsStateHomeChangedCallback
 .text.ARCONTROLLER_ARDrone3_NewCmdElementGPSSettingsStateResetHomeChanged
                0x0007fda0      0xb78 /home/ncs/CAPSTONE/out/arsdk-native/build/libARController/obj/gen/Sources/ARCONTROLLER_Feature.c.o
                0x0007fda0                ARCONTROLLER_ARDrone3_NewCmdElementGPSSettingsStateResetHomeChanged
 .text.ARCONTROLLER_FEATURE_ARDrone3_GPSSettingsStateResetHomeChangedCallback
                0x00080918      0x444 /home/ncs/CAPSTONE/out/arsdk-native/build/libARController/obj/gen/Sources/ARCONTROLLER_Feature.c.o
                0x00080918                ARCONTROLLER_FEATURE_ARDrone3_GPSSettingsStateResetHomeChangedCallback
 .text.ARCONTROLLER_ARDrone3_NewCmdElementGPSSettingsStateGPSFixStateChanged
                0x00080d5c      0x428 /home/ncs/CAPSTONE/out/arsdk-native/build/libARController/obj/gen/Sources/ARCONTROLLER_Feature.c.o
                0x00080d5c                ARCONTROLLER_ARDrone3_NewCmdElementGPSSettingsStateGPSFixStateChanged
 .text.ARCONTROLLER_FEATURE_ARDrone3_GPSSettingsStateGPSFixStateChangedCallback
                0x00081184      0x42c /home/ncs/CAPSTONE/out/arsdk-native/build/libARController/obj/gen/Sources/ARCONTROLLER_Feature.c.o
                0x00081184                ARCONTROLLER_FEATURE_ARDrone3_GPSSettingsStateGPSFixStateChangedCallback
 .text.ARCONTROLLER_ARDrone3_NewCmdElementGPSSettingsStateGPSUpdateStateChanged
                0x000815b0      0x428 /home/ncs/CAPSTONE/out/arsdk-native/build/libARController/obj/gen/Sources/ARCONTROLLER_Feature.c.o
                0x000815b0                ARCONTROLLER_ARDrone3_NewCmdElementGPSSettingsStateGPSUpdateStateChanged
 .text.ARCONTROLLER_FEATURE_ARDrone3_GPSSettingsStateGPSUpdateStateChangedCallback
                0x000819d8      0x42c /home/ncs/CAPSTONE/out/arsdk-native/build/libARController/obj/gen/Sources/ARCONTROLLER_Feature.c.o
                0x000819d8                ARCONTROLLER_FEATURE_ARDrone3_GPSSettingsStateGPSUpdateStateChangedCallback
 .text.ARCONTROLLER_ARDrone3_NewCmdElementGPSSettingsStateHomeTypeChanged
                0x00081e04      0x428 /home/ncs/CAPSTONE/out/arsdk-native/build/libARController/obj/gen/Sources/ARCONTROLLER_Feature.c.o
                0x00081e04                ARCONTROLLER_ARDrone3_NewCmdElementGPSSettingsStateHomeTypeChanged
 .text.ARCONTROLLER_FEATURE_ARDrone3_GPSSettingsStateHomeTypeChangedCallback
                0x0008222c      0x42c /home/ncs/CAPSTONE/out/arsdk-native/build/libARController/obj/gen/Sources/ARCONTROLLER_Feature.c.o
                0x0008222c                ARCONTROLLER_FEATURE_ARDrone3_GPSSettingsStateHomeTypeChangedCallback
 .text.ARCONTROLLER_ARDrone3_NewCmdElementGPSSettingsStateReturnHomeDelayChanged
                0x00082658      0x428 /home/ncs/CAPSTONE/out/arsdk-native/build/libARController/obj/gen/Sources/ARCONTROLLER_Feature.c.o
                0x00082658                ARCONTROLLER_ARDrone3_NewCmdElementGPSSettingsStateReturnHomeDelayChanged
 .text.ARCONTROLLER_FEATURE_ARDrone3_GPSSettingsStateReturnHomeDelayChangedCallback
                0x00082a80      0x42c /home/ncs/CAPSTONE/out/arsdk-native/build/libARController/obj/gen/Sources/ARCONTROLLER_Feature.c.o
                0x00082a80                ARCONTROLLER_FEATURE_ARDrone3_GPSSettingsStateReturnHomeDelayChangedCallback
 .text.ARCONTROLLER_ARDrone3_NewCmdElementCameraStateOrientation
                0x00082eac      0x7c8 /home/ncs/CAPSTONE/out/arsdk-native/build/libARController/obj/gen/Sources/ARCONTROLLER_Feature.c.o
                0x00082eac                ARCONTROLLER_ARDrone3_NewCmdElementCameraStateOrientation
 .text.ARCONTROLLER_FEATURE_ARDrone3_CameraStateOrientationCallback
                0x00083674      0x438 /home/ncs/CAPSTONE/out/arsdk-native/build/libARController/obj/gen/Sources/ARCONTROLLER_Feature.c.o
                0x00083674                ARCONTROLLER_FEATURE_ARDrone3_CameraStateOrientationCallback
 .text.ARCONTROLLER_ARDrone3_NewCmdElementCameraStateDefaultCameraOrientation
                0x00083aac      0x7c8 /home/ncs/CAPSTONE/out/arsdk-native/build/libARController/obj/gen/Sources/ARCONTROLLER_Feature.c.o
                0x00083aac                ARCONTROLLER_ARDrone3_NewCmdElementCameraStateDefaultCameraOrientation
 .text.ARCONTROLLER_FEATURE_ARDrone3_CameraStateDefaultCameraOrientationCallback
                0x00084274      0x438 /home/ncs/CAPSTONE/out/arsdk-native/build/libARController/obj/gen/Sources/ARCONTROLLER_Feature.c.o
                0x00084274                ARCONTROLLER_FEATURE_ARDrone3_CameraStateDefaultCameraOrientationCallback
 .text.ARCONTROLLER_ARDrone3_NewCmdElementAntiflickeringStateElectricFrequencyChanged
                0x000846ac      0x428 /home/ncs/CAPSTONE/out/arsdk-native/build/libARController/obj/gen/Sources/ARCONTROLLER_Feature.c.o
                0x000846ac                ARCONTROLLER_ARDrone3_NewCmdElementAntiflickeringStateElectricFrequencyChanged
 .text.ARCONTROLLER_FEATURE_ARDrone3_AntiflickeringStateElectricFrequencyChangedCallback
                0x00084ad4      0x42c /home/ncs/CAPSTONE/out/arsdk-native/build/libARController/obj/gen/Sources/ARCONTROLLER_Feature.c.o
                0x00084ad4                ARCONTROLLER_FEATURE_ARDrone3_AntiflickeringStateElectricFrequencyChangedCallback
 .text.ARCONTROLLER_ARDrone3_NewCmdElementAntiflickeringStateModeChanged
                0x00084f00      0x428 /home/ncs/CAPSTONE/out/arsdk-native/build/libARController/obj/gen/Sources/ARCONTROLLER_Feature.c.o
                0x00084f00                ARCONTROLLER_ARDrone3_NewCmdElementAntiflickeringStateModeChanged
 .text.ARCONTROLLER_FEATURE_ARDrone3_AntiflickeringStateModeChangedCallback
                0x00085328      0x42c /home/ncs/CAPSTONE/out/arsdk-native/build/libARController/obj/gen/Sources/ARCONTROLLER_Feature.c.o
                0x00085328                ARCONTROLLER_FEATURE_ARDrone3_AntiflickeringStateModeChangedCallback
 .text.ARCONTROLLER_ARDrone3_NewCmdElementGPSStateNumberOfSatelliteChanged
                0x00085754      0x428 /home/ncs/CAPSTONE/out/arsdk-native/build/libARController/obj/gen/Sources/ARCONTROLLER_Feature.c.o
                0x00085754                ARCONTROLLER_ARDrone3_NewCmdElementGPSStateNumberOfSatelliteChanged
 .text.ARCONTROLLER_FEATURE_ARDrone3_GPSStateNumberOfSatelliteChangedCallback
                0x00085b7c      0x42c /home/ncs/CAPSTONE/out/arsdk-native/build/libARController/obj/gen/Sources/ARCONTROLLER_Feature.c.o
                0x00085b7c                ARCONTROLLER_FEATURE_ARDrone3_GPSStateNumberOfSatelliteChangedCallback
 .text.ARCONTROLLER_ARDrone3_NewCmdElementGPSStateHomeTypeAvailabilityChanged
                0x00085fa8      0x804 /home/ncs/CAPSTONE/out/arsdk-native/build/libARController/obj/gen/Sources/ARCONTROLLER_Feature.c.o
                0x00085fa8                ARCONTROLLER_ARDrone3_NewCmdElementGPSStateHomeTypeAvailabilityChanged
 .text.ARCONTROLLER_FEATURE_ARDrone3_GPSStateHomeTypeAvailabilityChangedCallback
                0x000867ac      0x438 /home/ncs/CAPSTONE/out/arsdk-native/build/libARController/obj/gen/Sources/ARCONTROLLER_Feature.c.o
                0x000867ac                ARCONTROLLER_FEATURE_ARDrone3_GPSStateHomeTypeAvailabilityChangedCallback
 .text.ARCONTROLLER_ARDrone3_NewCmdElementGPSStateHomeTypeChosenChanged
                0x00086be4      0x428 /home/ncs/CAPSTONE/out/arsdk-native/build/libARController/obj/gen/Sources/ARCONTROLLER_Feature.c.o
                0x00086be4                ARCONTROLLER_ARDrone3_NewCmdElementGPSStateHomeTypeChosenChanged
 .text.ARCONTROLLER_FEATURE_ARDrone3_GPSStateHomeTypeChosenChangedCallback
                0x0008700c      0x42c /home/ncs/CAPSTONE/out/arsdk-native/build/libARController/obj/gen/Sources/ARCONTROLLER_Feature.c.o
                0x0008700c                ARCONTROLLER_FEATURE_ARDrone3_GPSStateHomeTypeChosenChangedCallback
 .text.ARCONTROLLER_ARDrone3_NewCmdElementPROStateFeatures
                0x00087438      0x428 /home/ncs/CAPSTONE/out/arsdk-native/build/libARController/obj/gen/Sources/ARCONTROLLER_Feature.c.o
                0x00087438                ARCONTROLLER_ARDrone3_NewCmdElementPROStateFeatures
 .text.ARCONTROLLER_FEATURE_ARDrone3_PROStateFeaturesCallback
                0x00087860      0x43c /home/ncs/CAPSTONE/out/arsdk-native/build/libARController/obj/gen/Sources/ARCONTROLLER_Feature.c.o
                0x00087860                ARCONTROLLER_FEATURE_ARDrone3_PROStateFeaturesCallback
 .text.ARCONTROLLER_FEATURE_ARDrone3_SetNetworkController
                0x00087c9c       0x14 /home/ncs/CAPSTONE/out/arsdk-native/build/libARController/obj/gen/Sources/ARCONTROLLER_Feature.c.o
                0x00087c9c                ARCONTROLLER_FEATURE_ARDrone3_SetNetworkController
 .text.ARCONTROLLER_ARDrone3_GetCommandElements
                0x00087cb0      0x100 /home/ncs/CAPSTONE/out/arsdk-native/build/libARController/obj/gen/Sources/ARCONTROLLER_Feature.c.o
                0x00087cb0                ARCONTROLLER_ARDrone3_GetCommandElements
 .text.ARCONTROLLER_FEATURE_Common_Delete
                0x00087db0       0x4a /home/ncs/CAPSTONE/out/arsdk-native/build/libARController/obj/gen/Sources/ARCONTROLLER_Feature.c.o
                0x00087db0                ARCONTROLLER_FEATURE_Common_Delete
 *fill*         0x00087dfa        0x2 
 .text.ARCONTROLLER_FEATURE_Common_New
                0x00087dfc      0x188 /home/ncs/CAPSTONE/out/arsdk-native/build/libARController/obj/gen/Sources/ARCONTROLLER_Feature.c.o
                0x00087dfc                ARCONTROLLER_FEATURE_Common_New
 .text.ARCONTROLLER_FEATURE_Common_GetDictionary
                0x00087f84       0x18 /home/ncs/CAPSTONE/out/arsdk-native/build/libARController/obj/gen/Sources/ARCONTROLLER_Feature.c.o
                0x00087f84                ARCONTROLLER_FEATURE_Common_GetDictionary
 .text.ARCONTROLLER_FEATURE_Common_AddCallback
                0x00087f9c       0x12 /home/ncs/CAPSTONE/out/arsdk-native/build/libARController/obj/gen/Sources/ARCONTROLLER_Feature.c.o
                0x00087f9c                ARCONTROLLER_FEATURE_Common_AddCallback
 .text.ARCONTROLLER_FEATURE_Common_RemoveCallback
                0x00087fae       0x12 /home/ncs/CAPSTONE/out/arsdk-native/build/libARController/obj/gen/Sources/ARCONTROLLER_Feature.c.o
                0x00087fae                ARCONTROLLER_FEATURE_Common_RemoveCallback
 .text.ARCONTROLLER_FEATURE_Common_RegisterARCommands
                0x00087fc0      0x520 /home/ncs/CAPSTONE/out/arsdk-native/build/libARController/obj/gen/Sources/ARCONTROLLER_Feature.c.o
                0x00087fc0                ARCONTROLLER_FEATURE_Common_RegisterARCommands
 .text.ARCONTROLLER_FEATURE_Common_UnregisterARCommands
                0x000884e0      0x2fc /home/ncs/CAPSTONE/out/arsdk-native/build/libARController/obj/gen/Sources/ARCONTROLLER_Feature.c.o
                0x000884e0                ARCONTROLLER_FEATURE_Common_UnregisterARCommands
 .text.ARCONTROLLER_Common_NewCmdElementNetworkEventDisconnection
                0x000887dc      0x424 /home/ncs/CAPSTONE/out/arsdk-native/build/libARController/obj/gen/Sources/ARCONTROLLER_Feature.c.o
                0x000887dc                ARCONTROLLER_Common_NewCmdElementNetworkEventDisconnection
 .text.ARCONTROLLER_FEATURE_Common_NetworkEventDisconnectionCallback
                0x00088c00      0x3f8 /home/ncs/CAPSTONE/out/arsdk-native/build/libARController/obj/gen/Sources/ARCONTROLLER_Feature.c.o
                0x00088c00                ARCONTROLLER_FEATURE_Common_NetworkEventDisconnectionCallback
 .text.ARCONTROLLER_Common_NewCmdElementSettingsStateProductNameChanged
                0x00088ff8      0x458 /home/ncs/CAPSTONE/out/arsdk-native/build/libARController/obj/gen/Sources/ARCONTROLLER_Feature.c.o
                0x00088ff8                ARCONTROLLER_Common_NewCmdElementSettingsStateProductNameChanged
 .text.ARCONTROLLER_FEATURE_Common_SettingsStateProductNameChangedCallback
                0x00089450      0x3f8 /home/ncs/CAPSTONE/out/arsdk-native/build/libARController/obj/gen/Sources/ARCONTROLLER_Feature.c.o
                0x00089450                ARCONTROLLER_FEATURE_Common_SettingsStateProductNameChangedCallback
 .text.ARCONTROLLER_Common_NewCmdElementSettingsStateProductVersionChanged
                0x00089848      0x830 /home/ncs/CAPSTONE/out/arsdk-native/build/libARController/obj/gen/Sources/ARCONTROLLER_Feature.c.o
                0x00089848                ARCONTROLLER_Common_NewCmdElementSettingsStateProductVersionChanged
 .text.ARCONTROLLER_FEATURE_Common_SettingsStateProductVersionChangedCallback
                0x0008a078      0x404 /home/ncs/CAPSTONE/out/arsdk-native/build/libARController/obj/gen/Sources/ARCONTROLLER_Feature.c.o
                0x0008a078                ARCONTROLLER_FEATURE_Common_SettingsStateProductVersionChangedCallback
 .text.ARCONTROLLER_Common_NewCmdElementSettingsStateProductSerialHighChanged
                0x0008a47c      0x458 /home/ncs/CAPSTONE/out/arsdk-native/build/libARController/obj/gen/Sources/ARCONTROLLER_Feature.c.o
                0x0008a47c                ARCONTROLLER_Common_NewCmdElementSettingsStateProductSerialHighChanged
 .text.ARCONTROLLER_FEATURE_Common_SettingsStateProductSerialHighChangedCallback
                0x0008a8d4      0x3f8 /home/ncs/CAPSTONE/out/arsdk-native/build/libARController/obj/gen/Sources/ARCONTROLLER_Feature.c.o
                0x0008a8d4                ARCONTROLLER_FEATURE_Common_SettingsStateProductSerialHighChangedCallback
 .text.ARCONTROLLER_Common_NewCmdElementSettingsStateProductSerialLowChanged
                0x0008accc      0x458 /home/ncs/CAPSTONE/out/arsdk-native/build/libARController/obj/gen/Sources/ARCONTROLLER_Feature.c.o
                0x0008accc                ARCONTROLLER_Common_NewCmdElementSettingsStateProductSerialLowChanged
 .text.ARCONTROLLER_FEATURE_Common_SettingsStateProductSerialLowChangedCallback
                0x0008b124      0x3f8 /home/ncs/CAPSTONE/out/arsdk-native/build/libARController/obj/gen/Sources/ARCONTROLLER_Feature.c.o
                0x0008b124                ARCONTROLLER_FEATURE_Common_SettingsStateProductSerialLowChangedCallback
 .text.ARCONTROLLER_Common_NewCmdElementSettingsStateCountryChanged
                0x0008b51c      0x458 /home/ncs/CAPSTONE/out/arsdk-native/build/libARController/obj/gen/Sources/ARCONTROLLER_Feature.c.o
                0x0008b51c                ARCONTROLLER_Common_NewCmdElementSettingsStateCountryChanged
 .text.ARCONTROLLER_FEATURE_Common_SettingsStateCountryChangedCallback
                0x0008b974      0x3f8 /home/ncs/CAPSTONE/out/arsdk-native/build/libARController/obj/gen/Sources/ARCONTROLLER_Feature.c.o
                0x0008b974                ARCONTROLLER_FEATURE_Common_SettingsStateCountryChangedCallback
 .text.ARCONTROLLER_Common_NewCmdElementSettingsStateAutoCountryChanged
                0x0008bd6c      0x424 /home/ncs/CAPSTONE/out/arsdk-native/build/libARController/obj/gen/Sources/ARCONTROLLER_Feature.c.o
                0x0008bd6c                ARCONTROLLER_Common_NewCmdElementSettingsStateAutoCountryChanged
 .text.ARCONTROLLER_FEATURE_Common_SettingsStateAutoCountryChangedCallback
                0x0008c190      0x3f8 /home/ncs/CAPSTONE/out/arsdk-native/build/libARController/obj/gen/Sources/ARCONTROLLER_Feature.c.o
                0x0008c190                ARCONTROLLER_FEATURE_Common_SettingsStateAutoCountryChangedCallback
 .text.ARCONTROLLER_Common_NewCmdElementCommonStateBatteryStateChanged
                0x0008c588      0x424 /home/ncs/CAPSTONE/out/arsdk-native/build/libARController/obj/gen/Sources/ARCONTROLLER_Feature.c.o
                0x0008c588                ARCONTROLLER_Common_NewCmdElementCommonStateBatteryStateChanged
 .text.ARCONTROLLER_FEATURE_Common_CommonStateBatteryStateChangedCallback
                0x0008c9ac      0x3f8 /home/ncs/CAPSTONE/out/arsdk-native/build/libARController/obj/gen/Sources/ARCONTROLLER_Feature.c.o
                0x0008c9ac                ARCONTROLLER_FEATURE_Common_CommonStateBatteryStateChangedCallback
 .text.ARCONTROLLER_Common_NewCmdElementCommonStateMassStorageStateListChanged
                0x0008cda4      0x83c /home/ncs/CAPSTONE/out/arsdk-native/build/libARController/obj/gen/Sources/ARCONTROLLER_Feature.c.o
                0x0008cda4                ARCONTROLLER_Common_NewCmdElementCommonStateMassStorageStateListChanged
 .text.ARCONTROLLER_FEATURE_Common_CommonStateMassStorageStateListChangedCallback
                0x0008d5e0      0x404 /home/ncs/CAPSTONE/out/arsdk-native/build/libARController/obj/gen/Sources/ARCONTROLLER_Feature.c.o
                0x0008d5e0                ARCONTROLLER_FEATURE_Common_CommonStateMassStorageStateListChangedCallback
 .text.ARCONTROLLER_Common_NewCmdElementCommonStateMassStorageInfoStateListChanged
                0x0008d9e4     0x16e8 /home/ncs/CAPSTONE/out/arsdk-native/build/libARController/obj/gen/Sources/ARCONTROLLER_Feature.c.o
                0x0008d9e4                ARCONTROLLER_Common_NewCmdElementCommonStateMassStorageInfoStateListChanged
 .text.ARCONTROLLER_FEATURE_Common_CommonStateMassStorageInfoStateListChangedCallback
                0x0008f0cc      0x414 /home/ncs/CAPSTONE/out/arsdk-native/build/libARController/obj/gen/Sources/ARCONTROLLER_Feature.c.o
                0x0008f0cc                ARCONTROLLER_FEATURE_Common_CommonStateMassStorageInfoStateListChangedCallback
 .text.ARCONTROLLER_Common_NewCmdElementCommonStateCurrentDateChanged
                0x0008f4e0      0x458 /home/ncs/CAPSTONE/out/arsdk-native/build/libARController/obj/gen/Sources/ARCONTROLLER_Feature.c.o
                0x0008f4e0                ARCONTROLLER_Common_NewCmdElementCommonStateCurrentDateChanged
 .text.ARCONTROLLER_FEATURE_Common_CommonStateCurrentDateChangedCallback
                0x0008f938      0x3f8 /home/ncs/CAPSTONE/out/arsdk-native/build/libARController/obj/gen/Sources/ARCONTROLLER_Feature.c.o
                0x0008f938                ARCONTROLLER_FEATURE_Common_CommonStateCurrentDateChangedCallback
 .text.ARCONTROLLER_Common_NewCmdElementCommonStateCurrentTimeChanged
                0x0008fd30      0x458 /home/ncs/CAPSTONE/out/arsdk-native/build/libARController/obj/gen/Sources/ARCONTROLLER_Feature.c.o
                0x0008fd30                ARCONTROLLER_Common_NewCmdElementCommonStateCurrentTimeChanged
 .text.ARCONTROLLER_FEATURE_Common_CommonStateCurrentTimeChangedCallback
                0x00090188      0x3f8 /home/ncs/CAPSTONE/out/arsdk-native/build/libARController/obj/gen/Sources/ARCONTROLLER_Feature.c.o
                0x00090188                ARCONTROLLER_FEATURE_Common_CommonStateCurrentTimeChangedCallback
 .text.ARCONTROLLER_Common_NewCmdElementCommonStateMassStorageInfoRemainingListChanged
                0x00090580      0xbec /home/ncs/CAPSTONE/out/arsdk-native/build/libARController/obj/gen/Sources/ARCONTROLLER_Feature.c.o
                0x00090580                ARCONTROLLER_Common_NewCmdElementCommonStateMassStorageInfoRemainingListChanged
 .text.ARCONTROLLER_FEATURE_Common_CommonStateMassStorageInfoRemainingListChangedCallback
                0x0009116c      0x420 /home/ncs/CAPSTONE/out/arsdk-native/build/libARController/obj/gen/Sources/ARCONTROLLER_Feature.c.o
                0x0009116c                ARCONTROLLER_FEATURE_Common_CommonStateMassStorageInfoRemainingListChangedCallback
 .text.ARCONTROLLER_Common_NewCmdElementCommonStateWifiSignalChanged
                0x0009158c      0x424 /home/ncs/CAPSTONE/out/arsdk-native/build/libARController/obj/gen/Sources/ARCONTROLLER_Feature.c.o
                0x0009158c                ARCONTROLLER_Common_NewCmdElementCommonStateWifiSignalChanged
 .text.ARCONTROLLER_FEATURE_Common_CommonStateWifiSignalChangedCallback
                0x000919b0      0x3f8 /home/ncs/CAPSTONE/out/arsdk-native/build/libARController/obj/gen/Sources/ARCONTROLLER_Feature.c.o
                0x000919b0                ARCONTROLLER_FEATURE_Common_CommonStateWifiSignalChangedCallback
 .text.ARCONTROLLER_Common_NewCmdElementCommonStateSensorsStatesListChanged
                0x00091da8      0x804 /home/ncs/CAPSTONE/out/arsdk-native/build/libARController/obj/gen/Sources/ARCONTROLLER_Feature.c.o
                0x00091da8                ARCONTROLLER_Common_NewCmdElementCommonStateSensorsStatesListChanged
 .text.ARCONTROLLER_FEATURE_Common_CommonStateSensorsStatesListChangedCallback
                0x000925ac      0x404 /home/ncs/CAPSTONE/out/arsdk-native/build/libARController/obj/gen/Sources/ARCONTROLLER_Feature.c.o
                0x000925ac                ARCONTROLLER_FEATURE_Common_CommonStateSensorsStatesListChangedCallback
 .text.ARCONTROLLER_Common_NewCmdElementCommonStateProductModel
                0x000929b0      0x424 /home/ncs/CAPSTONE/out/arsdk-native/build/libARController/obj/gen/Sources/ARCONTROLLER_Feature.c.o
                0x000929b0                ARCONTROLLER_Common_NewCmdElementCommonStateProductModel
 .text.ARCONTROLLER_FEATURE_Common_CommonStateProductModelCallback
                0x00092dd4      0x3f8 /home/ncs/CAPSTONE/out/arsdk-native/build/libARController/obj/gen/Sources/ARCONTROLLER_Feature.c.o
                0x00092dd4                ARCONTROLLER_FEATURE_Common_CommonStateProductModelCallback
 .text.ARCONTROLLER_Common_NewCmdElementCommonStateCountryListKnown
                0x000931cc      0x894 /home/ncs/CAPSTONE/out/arsdk-native/build/libARController/obj/gen/Sources/ARCONTROLLER_Feature.c.o
                0x000931cc                ARCONTROLLER_Common_NewCmdElementCommonStateCountryListKnown
 .text.ARCONTROLLER_FEATURE_Common_CommonStateCountryListKnownCallback
                0x00093a60      0x410 /home/ncs/CAPSTONE/out/arsdk-native/build/libARController/obj/gen/Sources/ARCONTROLLER_Feature.c.o
                0x00093a60                ARCONTROLLER_FEATURE_Common_CommonStateCountryListKnownCallback
 .text.ARCONTROLLER_Common_NewCmdElementCommonStateDeprecatedMassStorageContentChanged
                0x00093e70     0x1338 /home/ncs/CAPSTONE/out/arsdk-native/build/libARController/obj/gen/Sources/ARCONTROLLER_Feature.c.o
                0x00093e70                ARCONTROLLER_Common_NewCmdElementCommonStateDeprecatedMassStorageContentChanged
 .text.ARCONTROLLER_FEATURE_Common_CommonStateDeprecatedMassStorageContentChangedCallback
                0x000951a8      0x40c /home/ncs/CAPSTONE/out/arsdk-native/build/libARController/obj/gen/Sources/ARCONTROLLER_Feature.c.o
                0x000951a8                ARCONTROLLER_FEATURE_Common_CommonStateDeprecatedMassStorageContentChangedCallback
 .text.ARCONTROLLER_Common_NewCmdElementCommonStateMassStorageContent
                0x000955b4     0x16f8 /home/ncs/CAPSTONE/out/arsdk-native/build/libARController/obj/gen/Sources/ARCONTROLLER_Feature.c.o
                0x000955b4                ARCONTROLLER_Common_NewCmdElementCommonStateMassStorageContent
 .text.ARCONTROLLER_FEATURE_Common_CommonStateMassStorageContentCallback
                0x00096cac      0x414 /home/ncs/CAPSTONE/out/arsdk-native/build/libARController/obj/gen/Sources/ARCONTROLLER_Feature.c.o
                0x00096cac                ARCONTROLLER_FEATURE_Common_CommonStateMassStorageContentCallback
 .text.ARCONTROLLER_Common_NewCmdElementCommonStateMassStorageContentForCurrentRun
                0x000970c0      0xf5c /home/ncs/CAPSTONE/out/arsdk-native/build/libARController/obj/gen/Sources/ARCONTROLLER_Feature.c.o
                0x000970c0                ARCONTROLLER_Common_NewCmdElementCommonStateMassStorageContentForCurrentRun
 .text.ARCONTROLLER_FEATURE_Common_CommonStateMassStorageContentForCurrentRunCallback
                0x0009801c      0x408 /home/ncs/CAPSTONE/out/arsdk-native/build/libARController/obj/gen/Sources/ARCONTROLLER_Feature.c.o
                0x0009801c                ARCONTROLLER_FEATURE_Common_CommonStateMassStorageContentForCurrentRunCallback
 .text.ARCONTROLLER_Common_NewCmdElementOverHeatStateOverHeatRegulationChanged
                0x00098424      0x424 /home/ncs/CAPSTONE/out/arsdk-native/build/libARController/obj/gen/Sources/ARCONTROLLER_Feature.c.o
                0x00098424                ARCONTROLLER_Common_NewCmdElementOverHeatStateOverHeatRegulationChanged
 .text.ARCONTROLLER_FEATURE_Common_OverHeatStateOverHeatRegulationChangedCallback
                0x00098848      0x3f8 /home/ncs/CAPSTONE/out/arsdk-native/build/libARController/obj/gen/Sources/ARCONTROLLER_Feature.c.o
                0x00098848                ARCONTROLLER_FEATURE_Common_OverHeatStateOverHeatRegulationChangedCallback
 .text.ARCONTROLLER_Common_NewCmdElementWifiSettingsStateOutdoorSettingsChanged
                0x00098c40      0x424 /home/ncs/CAPSTONE/out/arsdk-native/build/libARController/obj/gen/Sources/ARCONTROLLER_Feature.c.o
                0x00098c40                ARCONTROLLER_Common_NewCmdElementWifiSettingsStateOutdoorSettingsChanged
 .text.ARCONTROLLER_FEATURE_Common_WifiSettingsStateOutdoorSettingsChangedCallback
                0x00099064      0x3f8 /home/ncs/CAPSTONE/out/arsdk-native/build/libARController/obj/gen/Sources/ARCONTROLLER_Feature.c.o
                0x00099064                ARCONTROLLER_FEATURE_Common_WifiSettingsStateOutdoorSettingsChangedCallback
 .text.ARCONTROLLER_Common_NewCmdElementMavlinkStateMavlinkFilePlayingStateChanged
                0x0009945c      0xb98 /home/ncs/CAPSTONE/out/arsdk-native/build/libARController/obj/gen/Sources/ARCONTROLLER_Feature.c.o
                0x0009945c                ARCONTROLLER_Common_NewCmdElementMavlinkStateMavlinkFilePlayingStateChanged
 .text.ARCONTROLLER_FEATURE_Common_MavlinkStateMavlinkFilePlayingStateChangedCallback
                0x00099ff4      0x40c /home/ncs/CAPSTONE/out/arsdk-native/build/libARController/obj/gen/Sources/ARCONTROLLER_Feature.c.o
                0x00099ff4                ARCONTROLLER_FEATURE_Common_MavlinkStateMavlinkFilePlayingStateChangedCallback
 .text.ARCONTROLLER_Common_NewCmdElementMavlinkStateMavlinkPlayErrorStateChanged
                0x0009a400      0x424 /home/ncs/CAPSTONE/out/arsdk-native/build/libARController/obj/gen/Sources/ARCONTROLLER_Feature.c.o
                0x0009a400                ARCONTROLLER_Common_NewCmdElementMavlinkStateMavlinkPlayErrorStateChanged
 .text.ARCONTROLLER_FEATURE_Common_MavlinkStateMavlinkPlayErrorStateChangedCallback
                0x0009a824      0x3f8 /home/ncs/CAPSTONE/out/arsdk-native/build/libARController/obj/gen/Sources/ARCONTROLLER_Feature.c.o
                0x0009a824                ARCONTROLLER_FEATURE_Common_MavlinkStateMavlinkPlayErrorStateChangedCallback
 .text.ARCONTROLLER_Common_NewCmdElementCalibrationStateMagnetoCalibrationStateChanged
                0x0009ac1c      0xf04 /home/ncs/CAPSTONE/out/arsdk-native/build/libARController/obj/gen/Sources/ARCONTROLLER_Feature.c.o
                0x0009ac1c                ARCONTROLLER_Common_NewCmdElementCalibrationStateMagnetoCalibrationStateChanged
 .text.ARCONTROLLER_FEATURE_Common_CalibrationStateMagnetoCalibrationStateChangedCallback
                0x0009bb20      0x408 /home/ncs/CAPSTONE/out/arsdk-native/build/libARController/obj/gen/Sources/ARCONTROLLER_Feature.c.o
                0x0009bb20                ARCONTROLLER_FEATURE_Common_CalibrationStateMagnetoCalibrationStateChangedCallback
 .text.ARCONTROLLER_Common_NewCmdElementCalibrationStateMagnetoCalibrationRequiredState
                0x0009bf28      0x424 /home/ncs/CAPSTONE/out/arsdk-native/build/libARController/obj/gen/Sources/ARCONTROLLER_Feature.c.o
                0x0009bf28                ARCONTROLLER_Common_NewCmdElementCalibrationStateMagnetoCalibrationRequiredState
 .text.ARCONTROLLER_FEATURE_Common_CalibrationStateMagnetoCalibrationRequiredStateCallback
                0x0009c34c      0x3f8 /home/ncs/CAPSTONE/out/arsdk-native/build/libARController/obj/gen/Sources/ARCONTROLLER_Feature.c.o
                0x0009c34c                ARCONTROLLER_FEATURE_Common_CalibrationStateMagnetoCalibrationRequiredStateCallback
 .text.ARCONTROLLER_Common_NewCmdElementCalibrationStateMagnetoCalibrationAxisToCalibrateChanged
                0x0009c744      0x424 /home/ncs/CAPSTONE/out/arsdk-native/build/libARController/obj/gen/Sources/ARCONTROLLER_Feature.c.o
                0x0009c744                ARCONTROLLER_Common_NewCmdElementCalibrationStateMagnetoCalibrationAxisToCalibrateChanged
 .text.ARCONTROLLER_FEATURE_Common_CalibrationStateMagnetoCalibrationAxisToCalibrateChangedCallback
                0x0009cb68      0x3f8 /home/ncs/CAPSTONE/out/arsdk-native/build/libARController/obj/gen/Sources/ARCONTROLLER_Feature.c.o
                0x0009cb68                ARCONTROLLER_FEATURE_Common_CalibrationStateMagnetoCalibrationAxisToCalibrateChangedCallback
 .text.ARCONTROLLER_Common_NewCmdElementCalibrationStateMagnetoCalibrationStartedChanged
                0x0009cf60      0x424 /home/ncs/CAPSTONE/out/arsdk-native/build/libARController/obj/gen/Sources/ARCONTROLLER_Feature.c.o
                0x0009cf60                ARCONTROLLER_Common_NewCmdElementCalibrationStateMagnetoCalibrationStartedChanged
 .text.ARCONTROLLER_FEATURE_Common_CalibrationStateMagnetoCalibrationStartedChangedCallback
                0x0009d384      0x3f8 /home/ncs/CAPSTONE/out/arsdk-native/build/libARController/obj/gen/Sources/ARCONTROLLER_Feature.c.o
                0x0009d384                ARCONTROLLER_FEATURE_Common_CalibrationStateMagnetoCalibrationStartedChangedCallback
 .text.ARCONTROLLER_Common_NewCmdElementCalibrationStatePitotCalibrationStateChanged
                0x0009d77c      0x7c4 /home/ncs/CAPSTONE/out/arsdk-native/build/libARController/obj/gen/Sources/ARCONTROLLER_Feature.c.o
                0x0009d77c                ARCONTROLLER_Common_NewCmdElementCalibrationStatePitotCalibrationStateChanged
 .text.ARCONTROLLER_FEATURE_Common_CalibrationStatePitotCalibrationStateChangedCallback
                0x0009df40      0x404 /home/ncs/CAPSTONE/out/arsdk-native/build/libARController/obj/gen/Sources/ARCONTROLLER_Feature.c.o
                0x0009df40                ARCONTROLLER_FEATURE_Common_CalibrationStatePitotCalibrationStateChangedCallback
 .text.ARCONTROLLER_Common_NewCmdElementCameraSettingsStateCameraSettingsChanged
                0x0009e344     0x12e4 /home/ncs/CAPSTONE/out/arsdk-native/build/libARController/obj/gen/Sources/ARCONTROLLER_Feature.c.o
                0x0009e344                ARCONTROLLER_Common_NewCmdElementCameraSettingsStateCameraSettingsChanged
 .text.ARCONTROLLER_FEATURE_Common_CameraSettingsStateCameraSettingsChangedCallback
                0x0009f628      0x420 /home/ncs/CAPSTONE/out/arsdk-native/build/libARController/obj/gen/Sources/ARCONTROLLER_Feature.c.o
                0x0009f628                ARCONTROLLER_FEATURE_Common_CameraSettingsStateCameraSettingsChangedCallback
 .text.ARCONTROLLER_Common_NewCmdElementFlightPlanStateAvailabilityStateChanged
                0x0009fa48      0x424 /home/ncs/CAPSTONE/out/arsdk-native/build/libARController/obj/gen/Sources/ARCONTROLLER_Feature.c.o
                0x0009fa48                ARCONTROLLER_Common_NewCmdElementFlightPlanStateAvailabilityStateChanged
 .text.ARCONTROLLER_FEATURE_Common_FlightPlanStateAvailabilityStateChangedCallback
                0x0009fe6c      0x3f8 /home/ncs/CAPSTONE/out/arsdk-native/build/libARController/obj/gen/Sources/ARCONTROLLER_Feature.c.o
                0x0009fe6c                ARCONTROLLER_FEATURE_Common_FlightPlanStateAvailabilityStateChangedCallback
 .text.ARCONTROLLER_Common_NewCmdElementFlightPlanStateComponentStateListChanged
                0x000a0264      0x804 /home/ncs/CAPSTONE/out/arsdk-native/build/libARController/obj/gen/Sources/ARCONTROLLER_Feature.c.o
                0x000a0264                ARCONTROLLER_Common_NewCmdElementFlightPlanStateComponentStateListChanged
 .text.ARCONTROLLER_FEATURE_Common_FlightPlanStateComponentStateListChangedCallback
                0x000a0a68      0x404 /home/ncs/CAPSTONE/out/arsdk-native/build/libARController/obj/gen/Sources/ARCONTROLLER_Feature.c.o
                0x000a0a68                ARCONTROLLER_FEATURE_Common_FlightPlanStateComponentStateListChangedCallback
 .text.ARCONTROLLER_Common_NewCmdElementFlightPlanStateLockStateChanged
                0x000a0e6c      0x424 /home/ncs/CAPSTONE/out/arsdk-native/build/libARController/obj/gen/Sources/ARCONTROLLER_Feature.c.o
                0x000a0e6c                ARCONTROLLER_Common_NewCmdElementFlightPlanStateLockStateChanged
 .text.ARCONTROLLER_FEATURE_Common_FlightPlanStateLockStateChangedCallback
                0x000a1290      0x3f8 /home/ncs/CAPSTONE/out/arsdk-native/build/libARController/obj/gen/Sources/ARCONTROLLER_Feature.c.o
                0x000a1290                ARCONTROLLER_FEATURE_Common_FlightPlanStateLockStateChangedCallback
 .text.ARCONTROLLER_Common_NewCmdElementFlightPlanEventSpeedBridleEvent
                0x000a1688       0x78 /home/ncs/CAPSTONE/out/arsdk-native/build/libARController/obj/gen/Sources/ARCONTROLLER_Feature.c.o
                0x000a1688                ARCONTROLLER_Common_NewCmdElementFlightPlanEventSpeedBridleEvent
 .text.ARCONTROLLER_Common_NewCmdElementFlightPlanEventStartingErrorEvent
                0x000a1700        0x4 /home/ncs/CAPSTONE/out/arsdk-native/build/libARController/obj/gen/Sources/ARCONTROLLER_Feature.c.o
                0x000a1700                ARCONTROLLER_Common_NewCmdElementFlightPlanEventStartingErrorEvent
 .text.ARCONTROLLER_FEATURE_Common_FlightPlanEventStartingErrorEventCallback
                0x000a1704      0x3f0 /home/ncs/CAPSTONE/out/arsdk-native/build/libARController/obj/gen/Sources/ARCONTROLLER_Feature.c.o
                0x000a1704                ARCONTROLLER_FEATURE_Common_FlightPlanEventStartingErrorEventCallback
 .text.ARCONTROLLER_Common_NewCmdElementOverHeatStateOverHeatChanged
                0x000a1af4        0x4 /home/ncs/CAPSTONE/out/arsdk-native/build/libARController/obj/gen/Sources/ARCONTROLLER_Feature.c.o
                0x000a1af4                ARCONTROLLER_Common_NewCmdElementOverHeatStateOverHeatChanged
 .text.ARCONTROLLER_FEATURE_Common_OverHeatStateOverHeatChangedCallback
                0x000a1af8      0x3f0 /home/ncs/CAPSTONE/out/arsdk-native/build/libARController/obj/gen/Sources/ARCONTROLLER_Feature.c.o
                0x000a1af8                ARCONTROLLER_FEATURE_Common_OverHeatStateOverHeatChangedCallback
 .text.ARCONTROLLER_Common_NewCmdElementCommonStateAllStatesChanged
                0x000a1ee8        0x4 /home/ncs/CAPSTONE/out/arsdk-native/build/libARController/obj/gen/Sources/ARCONTROLLER_Feature.c.o
                0x000a1ee8                ARCONTROLLER_Common_NewCmdElementCommonStateAllStatesChanged
 .text.ARCONTROLLER_FEATURE_Common_CommonStateAllStatesChangedCallback
                0x000a1eec      0x3f0 /home/ncs/CAPSTONE/out/arsdk-native/build/libARController/obj/gen/Sources/ARCONTROLLER_Feature.c.o
                0x000a1eec                ARCONTROLLER_FEATURE_Common_CommonStateAllStatesChangedCallback
 .text.ARCONTROLLER_Common_NewCmdElementSettingsStateResetChanged
                0x000a22dc        0x4 /home/ncs/CAPSTONE/out/arsdk-native/build/libARController/obj/gen/Sources/ARCONTROLLER_Feature.c.o
                0x000a22dc                ARCONTROLLER_Common_NewCmdElementSettingsStateResetChanged
 .text.ARCONTROLLER_FEATURE_Common_SettingsStateResetChangedCallback
                0x000a22e0      0x3f0 /home/ncs/CAPSTONE/out/arsdk-native/build/libARController/obj/gen/Sources/ARCONTROLLER_Feature.c.o
                0x000a22e0                ARCONTROLLER_FEATURE_Common_SettingsStateResetChangedCallback
 .text.ARCONTROLLER_Common_NewCmdElementSettingsStateAllSettingsChanged
                0x000a26d0        0x4 /home/ncs/CAPSTONE/out/arsdk-native/build/libARController/obj/gen/Sources/ARCONTROLLER_Feature.c.o
                0x000a26d0                ARCONTROLLER_Common_NewCmdElementSettingsStateAllSettingsChanged
 .text.ARCONTROLLER_FEATURE_Common_SettingsStateAllSettingsChangedCallback
                0x000a26d4      0x3f0 /home/ncs/CAPSTONE/out/arsdk-native/build/libARController/obj/gen/Sources/ARCONTROLLER_Feature.c.o
                0x000a26d4                ARCONTROLLER_FEATURE_Common_SettingsStateAllSettingsChangedCallback
 .text.ARCONTROLLER_FEATURE_Common_FlightPlanEventSpeedBridleEventCallback
                0x000a2ac4      0x3f0 /home/ncs/CAPSTONE/out/arsdk-native/build/libARController/obj/gen/Sources/ARCONTROLLER_Feature.c.o
                0x000a2ac4                ARCONTROLLER_FEATURE_Common_FlightPlanEventSpeedBridleEventCallback
 .text.ARCONTROLLER_Common_NewCmdElementARLibsVersionsStateControllerLibARCommandsVersion
                0x000a2eb4      0x458 /home/ncs/CAPSTONE/out/arsdk-native/build/libARController/obj/gen/Sources/ARCONTROLLER_Feature.c.o
                0x000a2eb4                ARCONTROLLER_Common_NewCmdElementARLibsVersionsStateControllerLibARCommandsVersion
 .text.ARCONTROLLER_FEATURE_Common_ARLibsVersionsStateControllerLibARCommandsVersionCallback
                0x000a330c      0x3f8 /home/ncs/CAPSTONE/out/arsdk-native/build/libARController/obj/gen/Sources/ARCONTROLLER_Feature.c.o
                0x000a330c                ARCONTROLLER_FEATURE_Common_ARLibsVersionsStateControllerLibARCommandsVersionCallback
 .text.ARCONTROLLER_Common_NewCmdElementARLibsVersionsStateSkyControllerLibARCommandsVersion
                0x000a3704      0x458 /home/ncs/CAPSTONE/out/arsdk-native/build/libARController/obj/gen/Sources/ARCONTROLLER_Feature.c.o
                0x000a3704                ARCONTROLLER_Common_NewCmdElementARLibsVersionsStateSkyControllerLibARCommandsVersion
 .text.ARCONTROLLER_FEATURE_Common_ARLibsVersionsStateSkyControllerLibARCommandsVersionCallback
                0x000a3b5c      0x3f8 /home/ncs/CAPSTONE/out/arsdk-native/build/libARController/obj/gen/Sources/ARCONTROLLER_Feature.c.o
                0x000a3b5c                ARCONTROLLER_FEATURE_Common_ARLibsVersionsStateSkyControllerLibARCommandsVersionCallback
 .text.ARCONTROLLER_Common_NewCmdElementARLibsVersionsStateDeviceLibARCommandsVersion
                0x000a3f54      0x458 /home/ncs/CAPSTONE/out/arsdk-native/build/libARController/obj/gen/Sources/ARCONTROLLER_Feature.c.o
                0x000a3f54                ARCONTROLLER_Common_NewCmdElementARLibsVersionsStateDeviceLibARCommandsVersion
 .text.ARCONTROLLER_FEATURE_Common_ARLibsVersionsStateDeviceLibARCommandsVersionCallback
                0x000a43ac      0x3f8 /home/ncs/CAPSTONE/out/arsdk-native/build/libARController/obj/gen/Sources/ARCONTROLLER_Feature.c.o
                0x000a43ac                ARCONTROLLER_FEATURE_Common_ARLibsVersionsStateDeviceLibARCommandsVersionCallback
 .text.ARCONTROLLER_Common_NewCmdElementAudioStateAudioStreamingRunning
                0x000a47a4      0x424 /home/ncs/CAPSTONE/out/arsdk-native/build/libARController/obj/gen/Sources/ARCONTROLLER_Feature.c.o
                0x000a47a4                ARCONTROLLER_Common_NewCmdElementAudioStateAudioStreamingRunning
 .text.ARCONTROLLER_FEATURE_Common_AudioStateAudioStreamingRunningCallback
                0x000a4bc8      0x3f8 /home/ncs/CAPSTONE/out/arsdk-native/build/libARController/obj/gen/Sources/ARCONTROLLER_Feature.c.o
                0x000a4bc8                ARCONTROLLER_FEATURE_Common_AudioStateAudioStreamingRunningCallback
 .text.ARCONTROLLER_Common_NewCmdElementHeadlightsStateIntensityChanged
                0x000a4fc0      0x7c0 /home/ncs/CAPSTONE/out/arsdk-native/build/libARController/obj/gen/Sources/ARCONTROLLER_Feature.c.o
                0x000a4fc0                ARCONTROLLER_Common_NewCmdElementHeadlightsStateIntensityChanged
 .text.ARCONTROLLER_FEATURE_Common_HeadlightsStateIntensityChangedCallback
                0x000a5780      0x404 /home/ncs/CAPSTONE/out/arsdk-native/build/libARController/obj/gen/Sources/ARCONTROLLER_Feature.c.o
                0x000a5780                ARCONTROLLER_FEATURE_Common_HeadlightsStateIntensityChangedCallback
 .text.ARCONTROLLER_Common_NewCmdElementAnimationsStateList
                0x000a5b84      0xba8 /home/ncs/CAPSTONE/out/arsdk-native/build/libARController/obj/gen/Sources/ARCONTROLLER_Feature.c.o
                0x000a5b84                ARCONTROLLER_Common_NewCmdElementAnimationsStateList
 .text.ARCONTROLLER_FEATURE_Common_AnimationsStateListCallback
                0x000a672c      0x40c /home/ncs/CAPSTONE/out/arsdk-native/build/libARController/obj/gen/Sources/ARCONTROLLER_Feature.c.o
                0x000a672c                ARCONTROLLER_FEATURE_Common_AnimationsStateListCallback
 .text.ARCONTROLLER_Common_NewCmdElementAccessoryStateSupportedAccessoriesListChanged
                0x000a6b38      0x474 /home/ncs/CAPSTONE/out/arsdk-native/build/libARController/obj/gen/Sources/ARCONTROLLER_Feature.c.o
                0x000a6b38                ARCONTROLLER_Common_NewCmdElementAccessoryStateSupportedAccessoriesListChanged
 .text.ARCONTROLLER_FEATURE_Common_AccessoryStateSupportedAccessoriesListChangedCallback
                0x000a6fac      0x3f8 /home/ncs/CAPSTONE/out/arsdk-native/build/libARController/obj/gen/Sources/ARCONTROLLER_Feature.c.o
                0x000a6fac                ARCONTROLLER_FEATURE_Common_AccessoryStateSupportedAccessoriesListChangedCallback
 .text.ARCONTROLLER_Common_NewCmdElementAccessoryStateAccessoryConfigChanged
                0x000a73a4      0x7c4 /home/ncs/CAPSTONE/out/arsdk-native/build/libARController/obj/gen/Sources/ARCONTROLLER_Feature.c.o
                0x000a73a4                ARCONTROLLER_Common_NewCmdElementAccessoryStateAccessoryConfigChanged
 .text.ARCONTROLLER_FEATURE_Common_AccessoryStateAccessoryConfigChangedCallback
                0x000a7b68      0x404 /home/ncs/CAPSTONE/out/arsdk-native/build/libARController/obj/gen/Sources/ARCONTROLLER_Feature.c.o
                0x000a7b68                ARCONTROLLER_FEATURE_Common_AccessoryStateAccessoryConfigChangedCallback
 .text.ARCONTROLLER_Common_NewCmdElementAccessoryStateAccessoryConfigModificationEnabled
                0x000a7f6c      0x424 /home/ncs/CAPSTONE/out/arsdk-native/build/libARController/obj/gen/Sources/ARCONTROLLER_Feature.c.o
                0x000a7f6c                ARCONTROLLER_Common_NewCmdElementAccessoryStateAccessoryConfigModificationEnabled
 .text.ARCONTROLLER_FEATURE_Common_AccessoryStateAccessoryConfigModificationEnabledCallback
                0x000a8390      0x3f8 /home/ncs/CAPSTONE/out/arsdk-native/build/libARController/obj/gen/Sources/ARCONTROLLER_Feature.c.o
                0x000a8390                ARCONTROLLER_FEATURE_Common_AccessoryStateAccessoryConfigModificationEnabledCallback
 .text.ARCONTROLLER_Common_NewCmdElementChargerStateMaxChargeRateChanged
                0x000a8788      0x424 /home/ncs/CAPSTONE/out/arsdk-native/build/libARController/obj/gen/Sources/ARCONTROLLER_Feature.c.o
                0x000a8788                ARCONTROLLER_Common_NewCmdElementChargerStateMaxChargeRateChanged
 .text.ARCONTROLLER_FEATURE_Common_ChargerStateMaxChargeRateChangedCallback
                0x000a8bac      0x3f8 /home/ncs/CAPSTONE/out/arsdk-native/build/libARController/obj/gen/Sources/ARCONTROLLER_Feature.c.o
                0x000a8bac                ARCONTROLLER_FEATURE_Common_ChargerStateMaxChargeRateChangedCallback
 .text.ARCONTROLLER_Common_NewCmdElementChargerStateCurrentChargeStateChanged
                0x000a8fa4      0x7c4 /home/ncs/CAPSTONE/out/arsdk-native/build/libARController/obj/gen/Sources/ARCONTROLLER_Feature.c.o
                0x000a8fa4                ARCONTROLLER_Common_NewCmdElementChargerStateCurrentChargeStateChanged
 .text.ARCONTROLLER_FEATURE_Common_ChargerStateCurrentChargeStateChangedCallback
                0x000a9768      0x404 /home/ncs/CAPSTONE/out/arsdk-native/build/libARController/obj/gen/Sources/ARCONTROLLER_Feature.c.o
                0x000a9768                ARCONTROLLER_FEATURE_Common_ChargerStateCurrentChargeStateChangedCallback
 .text.ARCONTROLLER_Common_NewCmdElementChargerStateLastChargeRateChanged
                0x000a9b6c      0x424 /home/ncs/CAPSTONE/out/arsdk-native/build/libARController/obj/gen/Sources/ARCONTROLLER_Feature.c.o
                0x000a9b6c                ARCONTROLLER_Common_NewCmdElementChargerStateLastChargeRateChanged
 .text.ARCONTROLLER_FEATURE_Common_ChargerStateLastChargeRateChangedCallback
                0x000a9f90      0x3f8 /home/ncs/CAPSTONE/out/arsdk-native/build/libARController/obj/gen/Sources/ARCONTROLLER_Feature.c.o
                0x000a9f90                ARCONTROLLER_FEATURE_Common_ChargerStateLastChargeRateChangedCallback
 .text.ARCONTROLLER_Common_NewCmdElementChargerStateChargingInfo
                0x000aa388      0xf08 /home/ncs/CAPSTONE/out/arsdk-native/build/libARController/obj/gen/Sources/ARCONTROLLER_Feature.c.o
                0x000aa388                ARCONTROLLER_Common_NewCmdElementChargerStateChargingInfo
 .text.ARCONTROLLER_FEATURE_Common_ChargerStateChargingInfoCallback
                0x000ab290      0x408 /home/ncs/CAPSTONE/out/arsdk-native/build/libARController/obj/gen/Sources/ARCONTROLLER_Feature.c.o
                0x000ab290                ARCONTROLLER_FEATURE_Common_ChargerStateChargingInfoCallback
 .text.ARCONTROLLER_Common_NewCmdElementRunStateRunIdChanged
                0x000ab698      0x458 /home/ncs/CAPSTONE/out/arsdk-native/build/libARController/obj/gen/Sources/ARCONTROLLER_Feature.c.o
                0x000ab698                ARCONTROLLER_Common_NewCmdElementRunStateRunIdChanged
 .text.ARCONTROLLER_FEATURE_Common_RunStateRunIdChangedCallback
                0x000abaf0      0x3f8 /home/ncs/CAPSTONE/out/arsdk-native/build/libARController/obj/gen/Sources/ARCONTROLLER_Feature.c.o
                0x000abaf0                ARCONTROLLER_FEATURE_Common_RunStateRunIdChangedCallback
 .text.ARCONTROLLER_FEATURE_Common_SetNetworkController
                0x000abee8       0x12 /home/ncs/CAPSTONE/out/arsdk-native/build/libARController/obj/gen/Sources/ARCONTROLLER_Feature.c.o
                0x000abee8                ARCONTROLLER_FEATURE_Common_SetNetworkController
 *fill*         0x000abefa        0x2 
 .text.ARCONTROLLER_Common_GetCommandElements
                0x000abefc       0xfc /home/ncs/CAPSTONE/out/arsdk-native/build/libARController/obj/gen/Sources/ARCONTROLLER_Feature.c.o
                0x000abefc                ARCONTROLLER_Common_GetCommandElements
 .text.ARCONTROLLER_FEATURE_ControllerInfo_Delete
                0x000abff8       0x4a /home/ncs/CAPSTONE/out/arsdk-native/build/libARController/obj/gen/Sources/ARCONTROLLER_Feature.c.o
                0x000abff8                ARCONTROLLER_FEATURE_ControllerInfo_Delete
 *fill*         0x000ac042        0x2 
 .text.ARCONTROLLER_FEATURE_ControllerInfo_New
                0x000ac044       0x8c /home/ncs/CAPSTONE/out/arsdk-native/build/libARController/obj/gen/Sources/ARCONTROLLER_Feature.c.o
                0x000ac044                ARCONTROLLER_FEATURE_ControllerInfo_New
 .text.ARCONTROLLER_FEATURE_ControllerInfo_GetDictionary
                0x000ac0d0       0x18 /home/ncs/CAPSTONE/out/arsdk-native/build/libARController/obj/gen/Sources/ARCONTROLLER_Feature.c.o
                0x000ac0d0                ARCONTROLLER_FEATURE_ControllerInfo_GetDictionary
 .text.ARCONTROLLER_FEATURE_ControllerInfo_AddCallback
                0x000ac0e8       0x12 /home/ncs/CAPSTONE/out/arsdk-native/build/libARController/obj/gen/Sources/ARCONTROLLER_Feature.c.o
                0x000ac0e8                ARCONTROLLER_FEATURE_ControllerInfo_AddCallback
 .text.ARCONTROLLER_FEATURE_ControllerInfo_RemoveCallback
                0x000ac0fa       0x12 /home/ncs/CAPSTONE/out/arsdk-native/build/libARController/obj/gen/Sources/ARCONTROLLER_Feature.c.o
                0x000ac0fa                ARCONTROLLER_FEATURE_ControllerInfo_RemoveCallback
 .text.ARCONTROLLER_FEATURE_ControllerInfo_UnregisterARCommands
                0x000ac10c       0x1e /home/ncs/CAPSTONE/out/arsdk-native/build/libARController/obj/gen/Sources/ARCONTROLLER_Feature.c.o
                0x000ac10c                ARCONTROLLER_FEATURE_ControllerInfo_UnregisterARCommands
 .text.ARCONTROLLER_FEATURE_ControllerInfo_RegisterARCommands
                0x000ac12a        0x4 /home/ncs/CAPSTONE/out/arsdk-native/build/libARController/obj/gen/Sources/ARCONTROLLER_Feature.c.o
                0x000ac12a                ARCONTROLLER_FEATURE_ControllerInfo_RegisterARCommands
 .text.ARCONTROLLER_FEATURE_ControllerInfo_SetNetworkController
                0x000ac12e       0x12 /home/ncs/CAPSTONE/out/arsdk-native/build/libARController/obj/gen/Sources/ARCONTROLLER_Feature.c.o
                0x000ac12e                ARCONTROLLER_FEATURE_ControllerInfo_SetNetworkController
 .text.ARCONTROLLER_ControllerInfo_GetCommandElements
                0x000ac140       0xfc /home/ncs/CAPSTONE/out/arsdk-native/build/libARController/obj/gen/Sources/ARCONTROLLER_Feature.c.o
                0x000ac140                ARCONTROLLER_ControllerInfo_GetCommandElements
 .text.ARCONTROLLER_FEATURE_Debug_Delete
                0x000ac23c       0x4a /home/ncs/CAPSTONE/out/arsdk-native/build/libARController/obj/gen/Sources/ARCONTROLLER_Feature.c.o
                0x000ac23c                ARCONTROLLER_FEATURE_Debug_Delete
 *fill*         0x000ac286        0x2 
 .text.ARCONTROLLER_FEATURE_Debug_New
                0x000ac288       0x8c /home/ncs/CAPSTONE/out/arsdk-native/build/libARController/obj/gen/Sources/ARCONTROLLER_Feature.c.o
                0x000ac288                ARCONTROLLER_FEATURE_Debug_New
 .text.ARCONTROLLER_FEATURE_Debug_GetDictionary
                0x000ac314       0x18 /home/ncs/CAPSTONE/out/arsdk-native/build/libARController/obj/gen/Sources/ARCONTROLLER_Feature.c.o
                0x000ac314                ARCONTROLLER_FEATURE_Debug_GetDictionary
 .text.ARCONTROLLER_FEATURE_Debug_AddCallback
                0x000ac32c       0x12 /home/ncs/CAPSTONE/out/arsdk-native/build/libARController/obj/gen/Sources/ARCONTROLLER_Feature.c.o
                0x000ac32c                ARCONTROLLER_FEATURE_Debug_AddCallback
 .text.ARCONTROLLER_FEATURE_Debug_RemoveCallback
                0x000ac33e       0x12 /home/ncs/CAPSTONE/out/arsdk-native/build/libARController/obj/gen/Sources/ARCONTROLLER_Feature.c.o
                0x000ac33e                ARCONTROLLER_FEATURE_Debug_RemoveCallback
 .text.ARCONTROLLER_FEATURE_Debug_RegisterARCommands
                0x000ac350       0x50 /home/ncs/CAPSTONE/out/arsdk-native/build/libARController/obj/gen/Sources/ARCONTROLLER_Feature.c.o
                0x000ac350                ARCONTROLLER_FEATURE_Debug_RegisterARCommands
 .text.ARCONTROLLER_FEATURE_Debug_UnregisterARCommands
                0x000ac3a0       0x32 /home/ncs/CAPSTONE/out/arsdk-native/build/libARController/obj/gen/Sources/ARCONTROLLER_Feature.c.o
                0x000ac3a0                ARCONTROLLER_FEATURE_Debug_UnregisterARCommands
 *fill*         0x000ac3d2        0x2 
 .text.ARCONTROLLER_Debug_NewCmdElementSettingsInfo
                0x000ac3d4     0x22fc /home/ncs/CAPSTONE/out/arsdk-native/build/libARController/obj/gen/Sources/ARCONTROLLER_Feature.c.o
                0x000ac3d4                ARCONTROLLER_Debug_NewCmdElementSettingsInfo
 .text.ARCONTROLLER_FEATURE_Debug_SettingsInfoCallback
                0x000ae6d0      0x438 /home/ncs/CAPSTONE/out/arsdk-native/build/libARController/obj/gen/Sources/ARCONTROLLER_Feature.c.o
                0x000ae6d0                ARCONTROLLER_FEATURE_Debug_SettingsInfoCallback
 .text.ARCONTROLLER_Debug_NewCmdElementSettingsList
                0x000aeb08      0x800 /home/ncs/CAPSTONE/out/arsdk-native/build/libARController/obj/gen/Sources/ARCONTROLLER_Feature.c.o
                0x000aeb08                ARCONTROLLER_Debug_NewCmdElementSettingsList
 .text.ARCONTROLLER_FEATURE_Debug_SettingsListCallback
                0x000af308      0x404 /home/ncs/CAPSTONE/out/arsdk-native/build/libARController/obj/gen/Sources/ARCONTROLLER_Feature.c.o
                0x000af308                ARCONTROLLER_FEATURE_Debug_SettingsListCallback
 .text.ARCONTROLLER_FEATURE_Debug_SetNetworkController
                0x000af70c       0x12 /home/ncs/CAPSTONE/out/arsdk-native/build/libARController/obj/gen/Sources/ARCONTROLLER_Feature.c.o
                0x000af70c                ARCONTROLLER_FEATURE_Debug_SetNetworkController
 *fill*         0x000af71e        0x2 
 .text.ARCONTROLLER_Debug_GetCommandElements
                0x000af720       0xfc /home/ncs/CAPSTONE/out/arsdk-native/build/libARController/obj/gen/Sources/ARCONTROLLER_Feature.c.o
                0x000af720                ARCONTROLLER_Debug_GetCommandElements
 .text.ARCONTROLLER_FEATURE_DroneManager_Delete
                0x000af81c       0x4a /home/ncs/CAPSTONE/out/arsdk-native/build/libARController/obj/gen/Sources/ARCONTROLLER_Feature.c.o
                0x000af81c                ARCONTROLLER_FEATURE_DroneManager_Delete
 *fill*         0x000af866        0x2 
 .text.ARCONTROLLER_FEATURE_DroneManager_New
                0x000af868       0x94 /home/ncs/CAPSTONE/out/arsdk-native/build/libARController/obj/gen/Sources/ARCONTROLLER_Feature.c.o
                0x000af868                ARCONTROLLER_FEATURE_DroneManager_New
 .text.ARCONTROLLER_FEATURE_DroneManager_GetDictionary
                0x000af8fc       0x18 /home/ncs/CAPSTONE/out/arsdk-native/build/libARController/obj/gen/Sources/ARCONTROLLER_Feature.c.o
                0x000af8fc                ARCONTROLLER_FEATURE_DroneManager_GetDictionary
 .text.ARCONTROLLER_FEATURE_DroneManager_AddCallback
                0x000af914       0x12 /home/ncs/CAPSTONE/out/arsdk-native/build/libARController/obj/gen/Sources/ARCONTROLLER_Feature.c.o
                0x000af914                ARCONTROLLER_FEATURE_DroneManager_AddCallback
 .text.ARCONTROLLER_FEATURE_DroneManager_RemoveCallback
                0x000af926       0x12 /home/ncs/CAPSTONE/out/arsdk-native/build/libARController/obj/gen/Sources/ARCONTROLLER_Feature.c.o
                0x000af926                ARCONTROLLER_FEATURE_DroneManager_RemoveCallback
 .text.ARCONTROLLER_FEATURE_DroneManager_RegisterARCommands
                0x000af938       0x80 /home/ncs/CAPSTONE/out/arsdk-native/build/libARController/obj/gen/Sources/ARCONTROLLER_Feature.c.o
                0x000af938                ARCONTROLLER_FEATURE_DroneManager_RegisterARCommands
 .text.ARCONTROLLER_FEATURE_DroneManager_UnregisterARCommands
                0x000af9b8       0x4e /home/ncs/CAPSTONE/out/arsdk-native/build/libARController/obj/gen/Sources/ARCONTROLLER_Feature.c.o
                0x000af9b8                ARCONTROLLER_FEATURE_DroneManager_UnregisterARCommands
 *fill*         0x000afa06        0x2 
 .text.ARCONTROLLER_DroneManager_NewCmdElementDroneListItem
                0x000afa08     0x2224 /home/ncs/CAPSTONE/out/arsdk-native/build/libARController/obj/gen/Sources/ARCONTROLLER_Feature.c.o
                0x000afa08                ARCONTROLLER_DroneManager_NewCmdElementDroneListItem
 .text.ARCONTROLLER_FEATURE_DroneManager_DroneListItemCallback
                0x000b1c2c      0x828 /home/ncs/CAPSTONE/out/arsdk-native/build/libARController/obj/gen/Sources/ARCONTROLLER_Feature.c.o
                0x000b1c2c                ARCONTROLLER_FEATURE_DroneManager_DroneListItemCallback
 .text.ARCONTROLLER_DroneManager_NewCmdElementConnectionState
                0x000b2454      0xf74 /home/ncs/CAPSTONE/out/arsdk-native/build/libARController/obj/gen/Sources/ARCONTROLLER_Feature.c.o
                0x000b2454                ARCONTROLLER_DroneManager_NewCmdElementConnectionState
 .text.ARCONTROLLER_FEATURE_DroneManager_ConnectionStateCallback
                0x000b33c8      0x408 /home/ncs/CAPSTONE/out/arsdk-native/build/libARController/obj/gen/Sources/ARCONTROLLER_Feature.c.o
                0x000b33c8                ARCONTROLLER_FEATURE_DroneManager_ConnectionStateCallback
 .text.ARCONTROLLER_DroneManager_NewCmdElementAuthenticationFailed
                0x000b37d0      0xc04 /home/ncs/CAPSTONE/out/arsdk-native/build/libARController/obj/gen/Sources/ARCONTROLLER_Feature.c.o
                0x000b37d0                ARCONTROLLER_DroneManager_NewCmdElementAuthenticationFailed
 .text.ARCONTROLLER_FEATURE_DroneManager_AuthenticationFailedCallback
                0x000b43d4      0x40c /home/ncs/CAPSTONE/out/arsdk-native/build/libARController/obj/gen/Sources/ARCONTROLLER_Feature.c.o
                0x000b43d4                ARCONTROLLER_FEATURE_DroneManager_AuthenticationFailedCallback
 .text.ARCONTROLLER_DroneManager_NewCmdElementConnectionRefused
                0x000b47e0      0xc04 /home/ncs/CAPSTONE/out/arsdk-native/build/libARController/obj/gen/Sources/ARCONTROLLER_Feature.c.o
                0x000b47e0                ARCONTROLLER_DroneManager_NewCmdElementConnectionRefused
 .text.ARCONTROLLER_FEATURE_DroneManager_ConnectionRefusedCallback
                0x000b53e4      0x40c /home/ncs/CAPSTONE/out/arsdk-native/build/libARController/obj/gen/Sources/ARCONTROLLER_Feature.c.o
                0x000b53e4                ARCONTROLLER_FEATURE_DroneManager_ConnectionRefusedCallback
 .text.ARCONTROLLER_FEATURE_DroneManager_SetNetworkController
                0x000b57f0       0x12 /home/ncs/CAPSTONE/out/arsdk-native/build/libARController/obj/gen/Sources/ARCONTROLLER_Feature.c.o
                0x000b57f0                ARCONTROLLER_FEATURE_DroneManager_SetNetworkController
 *fill*         0x000b5802        0x2 
 .text.ARCONTROLLER_DroneManager_GetCommandElements
                0x000b5804       0xfc /home/ncs/CAPSTONE/out/arsdk-native/build/libARController/obj/gen/Sources/ARCONTROLLER_Feature.c.o
                0x000b5804                ARCONTROLLER_DroneManager_GetCommandElements
 .text.ARCONTROLLER_FEATURE_JumpingSumo_Delete
                0x000b5900       0x5e /home/ncs/CAPSTONE/out/arsdk-native/build/libARController/obj/gen/Sources/ARCONTROLLER_Feature.c.o
                0x000b5900                ARCONTROLLER_FEATURE_JumpingSumo_Delete
 *fill*         0x000b595e        0x2 
 .text.ARCONTROLLER_FEATURE_JumpingSumo_New
                0x000b5960      0x1ac /home/ncs/CAPSTONE/out/arsdk-native/build/libARController/obj/gen/Sources/ARCONTROLLER_Feature.c.o
                0x000b5960                ARCONTROLLER_FEATURE_JumpingSumo_New
 .text.ARCONTROLLER_FEATURE_JumpingSumo_GetDictionary
                0x000b5b0c       0x18 /home/ncs/CAPSTONE/out/arsdk-native/build/libARController/obj/gen/Sources/ARCONTROLLER_Feature.c.o
                0x000b5b0c                ARCONTROLLER_FEATURE_JumpingSumo_GetDictionary
 .text.ARCONTROLLER_FEATURE_JumpingSumo_AddCallback
                0x000b5b24       0x12 /home/ncs/CAPSTONE/out/arsdk-native/build/libARController/obj/gen/Sources/ARCONTROLLER_Feature.c.o
                0x000b5b24                ARCONTROLLER_FEATURE_JumpingSumo_AddCallback
 .text.ARCONTROLLER_FEATURE_JumpingSumo_RemoveCallback
                0x000b5b36       0x12 /home/ncs/CAPSTONE/out/arsdk-native/build/libARController/obj/gen/Sources/ARCONTROLLER_Feature.c.o
                0x000b5b36                ARCONTROLLER_FEATURE_JumpingSumo_RemoveCallback
 .text.ARCONTROLLER_FEATURE_JumpingSumo_RegisterARCommands
                0x000b5b48      0x2d8 /home/ncs/CAPSTONE/out/arsdk-native/build/libARController/obj/gen/Sources/ARCONTROLLER_Feature.c.o
                0x000b5b48                ARCONTROLLER_FEATURE_JumpingSumo_RegisterARCommands
 .text.ARCONTROLLER_FEATURE_JumpingSumo_UnregisterARCommands
                0x000b5e20      0x1ac /home/ncs/CAPSTONE/out/arsdk-native/build/libARController/obj/gen/Sources/ARCONTROLLER_Feature.c.o
                0x000b5e20                ARCONTROLLER_FEATURE_JumpingSumo_UnregisterARCommands
 .text.ARCONTROLLER_JumpingSumo_SendPilotingPCMDStruct
                0x000b5fcc       0xe4 /home/ncs/CAPSTONE/out/arsdk-native/build/libARController/obj/gen/Sources/ARCONTROLLER_Feature.c.o
                0x000b5fcc                ARCONTROLLER_JumpingSumo_SendPilotingPCMDStruct
 .text.ARCONTROLLER_JumpingSumo_NewCmdElementPilotingStatePostureChanged
                0x000b60b0      0x424 /home/ncs/CAPSTONE/out/arsdk-native/build/libARController/obj/gen/Sources/ARCONTROLLER_Feature.c.o
                0x000b60b0                ARCONTROLLER_JumpingSumo_NewCmdElementPilotingStatePostureChanged
 .text.ARCONTROLLER_FEATURE_JumpingSumo_PilotingStatePostureChangedCallback
                0x000b64d4      0x3f8 /home/ncs/CAPSTONE/out/arsdk-native/build/libARController/obj/gen/Sources/ARCONTROLLER_Feature.c.o
                0x000b64d4                ARCONTROLLER_FEATURE_JumpingSumo_PilotingStatePostureChangedCallback
 .text.ARCONTROLLER_JumpingSumo_NewCmdElementPilotingStateAlertStateChanged
                0x000b68cc      0x424 /home/ncs/CAPSTONE/out/arsdk-native/build/libARController/obj/gen/Sources/ARCONTROLLER_Feature.c.o
                0x000b68cc                ARCONTROLLER_JumpingSumo_NewCmdElementPilotingStateAlertStateChanged
 .text.ARCONTROLLER_FEATURE_JumpingSumo_PilotingStateAlertStateChangedCallback
                0x000b6cf0      0x3f8 /home/ncs/CAPSTONE/out/arsdk-native/build/libARController/obj/gen/Sources/ARCONTROLLER_Feature.c.o
                0x000b6cf0                ARCONTROLLER_FEATURE_JumpingSumo_PilotingStateAlertStateChangedCallback
 .text.ARCONTROLLER_JumpingSumo_NewCmdElementPilotingStateSpeedChanged
                0x000b70e8      0x7c8 /home/ncs/CAPSTONE/out/arsdk-native/build/libARController/obj/gen/Sources/ARCONTROLLER_Feature.c.o
                0x000b70e8                ARCONTROLLER_JumpingSumo_NewCmdElementPilotingStateSpeedChanged
 .text.ARCONTROLLER_FEATURE_JumpingSumo_PilotingStateSpeedChangedCallback
                0x000b78b0      0x404 /home/ncs/CAPSTONE/out/arsdk-native/build/libARController/obj/gen/Sources/ARCONTROLLER_Feature.c.o
                0x000b78b0                ARCONTROLLER_FEATURE_JumpingSumo_PilotingStateSpeedChangedCallback
 .text.ARCONTROLLER_JumpingSumo_NewCmdElementAnimationsStateJumpLoadChanged
                0x000b7cb4      0x424 /home/ncs/CAPSTONE/out/arsdk-native/build/libARController/obj/gen/Sources/ARCONTROLLER_Feature.c.o
                0x000b7cb4                ARCONTROLLER_JumpingSumo_NewCmdElementAnimationsStateJumpLoadChanged
 .text.ARCONTROLLER_FEATURE_JumpingSumo_AnimationsStateJumpLoadChangedCallback
                0x000b80d8      0x3f8 /home/ncs/CAPSTONE/out/arsdk-native/build/libARController/obj/gen/Sources/ARCONTROLLER_Feature.c.o
                0x000b80d8                ARCONTROLLER_FEATURE_JumpingSumo_AnimationsStateJumpLoadChangedCallback
 .text.ARCONTROLLER_JumpingSumo_NewCmdElementAnimationsStateJumpTypeChanged
                0x000b84d0      0x424 /home/ncs/CAPSTONE/out/arsdk-native/build/libARController/obj/gen/Sources/ARCONTROLLER_Feature.c.o
                0x000b84d0                ARCONTROLLER_JumpingSumo_NewCmdElementAnimationsStateJumpTypeChanged
 .text.ARCONTROLLER_FEATURE_JumpingSumo_AnimationsStateJumpTypeChangedCallback
                0x000b88f4      0x3f8 /home/ncs/CAPSTONE/out/arsdk-native/build/libARController/obj/gen/Sources/ARCONTROLLER_Feature.c.o
                0x000b88f4                ARCONTROLLER_FEATURE_JumpingSumo_AnimationsStateJumpTypeChangedCallback
 .text.ARCONTROLLER_JumpingSumo_NewCmdElementAnimationsStateJumpMotorProblemChanged
                0x000b8cec      0x424 /home/ncs/CAPSTONE/out/arsdk-native/build/libARController/obj/gen/Sources/ARCONTROLLER_Feature.c.o
                0x000b8cec                ARCONTROLLER_JumpingSumo_NewCmdElementAnimationsStateJumpMotorProblemChanged
 .text.ARCONTROLLER_FEATURE_JumpingSumo_AnimationsStateJumpMotorProblemChangedCallback
                0x000b9110      0x3f8 /home/ncs/CAPSTONE/out/arsdk-native/build/libARController/obj/gen/Sources/ARCONTROLLER_Feature.c.o
                0x000b9110                ARCONTROLLER_FEATURE_JumpingSumo_AnimationsStateJumpMotorProblemChangedCallback
 .text.ARCONTROLLER_JumpingSumo_NewCmdElementSettingsStateProductGPSVersionChanged
                0x000b9508      0x830 /home/ncs/CAPSTONE/out/arsdk-native/build/libARController/obj/gen/Sources/ARCONTROLLER_Feature.c.o
                0x000b9508                ARCONTROLLER_JumpingSumo_NewCmdElementSettingsStateProductGPSVersionChanged
 .text.ARCONTROLLER_FEATURE_JumpingSumo_SettingsStateProductGPSVersionChangedCallback
                0x000b9d38      0x404 /home/ncs/CAPSTONE/out/arsdk-native/build/libARController/obj/gen/Sources/ARCONTROLLER_Feature.c.o
                0x000b9d38                ARCONTROLLER_FEATURE_JumpingSumo_SettingsStateProductGPSVersionChangedCallback
 .text.ARCONTROLLER_JumpingSumo_NewCmdElementMediaRecordStatePictureStateChanged
                0x000ba13c      0x7c0 /home/ncs/CAPSTONE/out/arsdk-native/build/libARController/obj/gen/Sources/ARCONTROLLER_Feature.c.o
                0x000ba13c                ARCONTROLLER_JumpingSumo_NewCmdElementMediaRecordStatePictureStateChanged
 .text.ARCONTROLLER_FEATURE_JumpingSumo_MediaRecordStatePictureStateChangedCallback
                0x000ba8fc      0x404 /home/ncs/CAPSTONE/out/arsdk-native/build/libARController/obj/gen/Sources/ARCONTROLLER_Feature.c.o
                0x000ba8fc                ARCONTROLLER_FEATURE_JumpingSumo_MediaRecordStatePictureStateChangedCallback
 .text.ARCONTROLLER_JumpingSumo_NewCmdElementMediaRecordStateVideoStateChanged
                0x000bad00      0x7c4 /home/ncs/CAPSTONE/out/arsdk-native/build/libARController/obj/gen/Sources/ARCONTROLLER_Feature.c.o
                0x000bad00                ARCONTROLLER_JumpingSumo_NewCmdElementMediaRecordStateVideoStateChanged
 .text.ARCONTROLLER_FEATURE_JumpingSumo_MediaRecordStateVideoStateChangedCallback
                0x000bb4c4      0x404 /home/ncs/CAPSTONE/out/arsdk-native/build/libARController/obj/gen/Sources/ARCONTROLLER_Feature.c.o
                0x000bb4c4                ARCONTROLLER_FEATURE_JumpingSumo_MediaRecordStateVideoStateChangedCallback
 .text.ARCONTROLLER_JumpingSumo_NewCmdElementMediaRecordStatePictureStateChangedV2
                0x000bb8c8      0x7c4 /home/ncs/CAPSTONE/out/arsdk-native/build/libARController/obj/gen/Sources/ARCONTROLLER_Feature.c.o
                0x000bb8c8                ARCONTROLLER_JumpingSumo_NewCmdElementMediaRecordStatePictureStateChangedV2
 .text.ARCONTROLLER_FEATURE_JumpingSumo_MediaRecordStatePictureStateChangedV2Callback
                0x000bc08c      0x404 /home/ncs/CAPSTONE/out/arsdk-native/build/libARController/obj/gen/Sources/ARCONTROLLER_Feature.c.o
                0x000bc08c                ARCONTROLLER_FEATURE_JumpingSumo_MediaRecordStatePictureStateChangedV2Callback
 .text.ARCONTROLLER_JumpingSumo_NewCmdElementMediaRecordStateVideoStateChangedV2
                0x000bc490      0x7c4 /home/ncs/CAPSTONE/out/arsdk-native/build/libARController/obj/gen/Sources/ARCONTROLLER_Feature.c.o
                0x000bc490                ARCONTROLLER_JumpingSumo_NewCmdElementMediaRecordStateVideoStateChangedV2
 .text.ARCONTROLLER_FEATURE_JumpingSumo_MediaRecordStateVideoStateChangedV2Callback
                0x000bcc54      0x404 /home/ncs/CAPSTONE/out/arsdk-native/build/libARController/obj/gen/Sources/ARCONTROLLER_Feature.c.o
                0x000bcc54                ARCONTROLLER_FEATURE_JumpingSumo_MediaRecordStateVideoStateChangedV2Callback
 .text.ARCONTROLLER_JumpingSumo_NewCmdElementMediaRecordEventPictureEventChanged
                0x000bd058      0x7c4 /home/ncs/CAPSTONE/out/arsdk-native/build/libARController/obj/gen/Sources/ARCONTROLLER_Feature.c.o
                0x000bd058                ARCONTROLLER_JumpingSumo_NewCmdElementMediaRecordEventPictureEventChanged
 .text.ARCONTROLLER_FEATURE_JumpingSumo_MediaRecordEventPictureEventChangedCallback
                0x000bd81c      0x404 /home/ncs/CAPSTONE/out/arsdk-native/build/libARController/obj/gen/Sources/ARCONTROLLER_Feature.c.o
                0x000bd81c                ARCONTROLLER_FEATURE_JumpingSumo_MediaRecordEventPictureEventChangedCallback
 .text.ARCONTROLLER_JumpingSumo_NewCmdElementMediaRecordEventVideoEventChanged
                0x000bdc20      0x7c4 /home/ncs/CAPSTONE/out/arsdk-native/build/libARController/obj/gen/Sources/ARCONTROLLER_Feature.c.o
                0x000bdc20                ARCONTROLLER_JumpingSumo_NewCmdElementMediaRecordEventVideoEventChanged
 .text.ARCONTROLLER_FEATURE_JumpingSumo_MediaRecordEventVideoEventChangedCallback
                0x000be3e4      0x404 /home/ncs/CAPSTONE/out/arsdk-native/build/libARController/obj/gen/Sources/ARCONTROLLER_Feature.c.o
                0x000be3e4                ARCONTROLLER_FEATURE_JumpingSumo_MediaRecordEventVideoEventChangedCallback
 .text.ARCONTROLLER_JumpingSumo_NewCmdElementNetworkSettingsStateWifiSelectionChanged
                0x000be7e8      0xb60 /home/ncs/CAPSTONE/out/arsdk-native/build/libARController/obj/gen/Sources/ARCONTROLLER_Feature.c.o
                0x000be7e8                ARCONTROLLER_JumpingSumo_NewCmdElementNetworkSettingsStateWifiSelectionChanged
 .text.ARCONTROLLER_FEATURE_JumpingSumo_NetworkSettingsStateWifiSelectionChangedCallback
                0x000bf348      0x40c /home/ncs/CAPSTONE/out/arsdk-native/build/libARController/obj/gen/Sources/ARCONTROLLER_Feature.c.o
                0x000bf348                ARCONTROLLER_FEATURE_JumpingSumo_NetworkSettingsStateWifiSelectionChangedCallback
 .text.ARCONTROLLER_JumpingSumo_NewCmdElementNetworkStateWifiScanListChanged
                0x000bf754      0xf3c /home/ncs/CAPSTONE/out/arsdk-native/build/libARController/obj/gen/Sources/ARCONTROLLER_Feature.c.o
                0x000bf754                ARCONTROLLER_JumpingSumo_NewCmdElementNetworkStateWifiScanListChanged
 .text.ARCONTROLLER_FEATURE_JumpingSumo_NetworkStateWifiScanListChangedCallback
                0x000c0690      0x408 /home/ncs/CAPSTONE/out/arsdk-native/build/libARController/obj/gen/Sources/ARCONTROLLER_Feature.c.o
                0x000c0690                ARCONTROLLER_FEATURE_JumpingSumo_NetworkStateWifiScanListChangedCallback
 .text.ARCONTROLLER_JumpingSumo_NewCmdElementNetworkStateWifiAuthChannelListChanged
                0x000c0a98      0xbe8 /home/ncs/CAPSTONE/out/arsdk-native/build/libARController/obj/gen/Sources/ARCONTROLLER_Feature.c.o
                0x000c0a98                ARCONTROLLER_JumpingSumo_NewCmdElementNetworkStateWifiAuthChannelListChanged
 .text.ARCONTROLLER_FEATURE_JumpingSumo_NetworkStateWifiAuthChannelListChangedCallback
                0x000c1680      0x420 /home/ncs/CAPSTONE/out/arsdk-native/build/libARController/obj/gen/Sources/ARCONTROLLER_Feature.c.o
                0x000c1680                ARCONTROLLER_FEATURE_JumpingSumo_NetworkStateWifiAuthChannelListChangedCallback
 .text.ARCONTROLLER_JumpingSumo_NewCmdElementNetworkStateLinkQualityChanged
                0x000c1aa0      0x424 /home/ncs/CAPSTONE/out/arsdk-native/build/libARController/obj/gen/Sources/ARCONTROLLER_Feature.c.o
                0x000c1aa0                ARCONTROLLER_JumpingSumo_NewCmdElementNetworkStateLinkQualityChanged
 .text.ARCONTROLLER_FEATURE_JumpingSumo_NetworkStateLinkQualityChangedCallback
                0x000c1ec4      0x3f8 /home/ncs/CAPSTONE/out/arsdk-native/build/libARController/obj/gen/Sources/ARCONTROLLER_Feature.c.o
                0x000c1ec4                ARCONTROLLER_FEATURE_JumpingSumo_NetworkStateLinkQualityChangedCallback
 .text.ARCONTROLLER_JumpingSumo_NewCmdElementAudioSettingsStateMasterVolumeChanged
                0x000c22bc      0x424 /home/ncs/CAPSTONE/out/arsdk-native/build/libARController/obj/gen/Sources/ARCONTROLLER_Feature.c.o
                0x000c22bc                ARCONTROLLER_JumpingSumo_NewCmdElementAudioSettingsStateMasterVolumeChanged
 .text.ARCONTROLLER_FEATURE_JumpingSumo_AudioSettingsStateMasterVolumeChangedCallback
                0x000c26e0      0x3f8 /home/ncs/CAPSTONE/out/arsdk-native/build/libARController/obj/gen/Sources/ARCONTROLLER_Feature.c.o
                0x000c26e0                ARCONTROLLER_FEATURE_JumpingSumo_AudioSettingsStateMasterVolumeChangedCallback
 .text.ARCONTROLLER_JumpingSumo_NewCmdElementAudioSettingsStateThemeChanged
                0x000c2ad8      0x424 /home/ncs/CAPSTONE/out/arsdk-native/build/libARController/obj/gen/Sources/ARCONTROLLER_Feature.c.o
                0x000c2ad8                ARCONTROLLER_JumpingSumo_NewCmdElementAudioSettingsStateThemeChanged
 .text.ARCONTROLLER_FEATURE_JumpingSumo_AudioSettingsStateThemeChangedCallback
                0x000c2efc      0x3f8 /home/ncs/CAPSTONE/out/arsdk-native/build/libARController/obj/gen/Sources/ARCONTROLLER_Feature.c.o
                0x000c2efc                ARCONTROLLER_FEATURE_JumpingSumo_AudioSettingsStateThemeChangedCallback
 .text.ARCONTROLLER_JumpingSumo_NewCmdElementRoadPlanStateScriptMetadataListChanged
                0x000c32f4     0x1374 /home/ncs/CAPSTONE/out/arsdk-native/build/libARController/obj/gen/Sources/ARCONTROLLER_Feature.c.o
                0x000c32f4                ARCONTROLLER_JumpingSumo_NewCmdElementRoadPlanStateScriptMetadataListChanged
 .text.ARCONTROLLER_FEATURE_JumpingSumo_RoadPlanStateScriptMetadataListChangedCallback
                0x000c4668      0x410 /home/ncs/CAPSTONE/out/arsdk-native/build/libARController/obj/gen/Sources/ARCONTROLLER_Feature.c.o
                0x000c4668                ARCONTROLLER_FEATURE_JumpingSumo_RoadPlanStateScriptMetadataListChangedCallback
 .text.ARCONTROLLER_JumpingSumo_NewCmdElementRoadPlanStateAllScriptsMetadataChanged
                0x000c4a78       0x78 /home/ncs/CAPSTONE/out/arsdk-native/build/libARController/obj/gen/Sources/ARCONTROLLER_Feature.c.o
                0x000c4a78                ARCONTROLLER_JumpingSumo_NewCmdElementRoadPlanStateAllScriptsMetadataChanged
 .text.ARCONTROLLER_JumpingSumo_NewCmdElementNetworkStateAllWifiAuthChannelChanged
                0x000c4af0        0x4 /home/ncs/CAPSTONE/out/arsdk-native/build/libARController/obj/gen/Sources/ARCONTROLLER_Feature.c.o
                0x000c4af0                ARCONTROLLER_JumpingSumo_NewCmdElementNetworkStateAllWifiAuthChannelChanged
 .text.ARCONTROLLER_FEATURE_JumpingSumo_NetworkStateAllWifiAuthChannelChangedCallback
                0x000c4af4      0x3f0 /home/ncs/CAPSTONE/out/arsdk-native/build/libARController/obj/gen/Sources/ARCONTROLLER_Feature.c.o
                0x000c4af4                ARCONTROLLER_FEATURE_JumpingSumo_NetworkStateAllWifiAuthChannelChangedCallback
 .text.ARCONTROLLER_JumpingSumo_NewCmdElementNetworkStateAllWifiScanChanged
                0x000c4ee4        0x4 /home/ncs/CAPSTONE/out/arsdk-native/build/libARController/obj/gen/Sources/ARCONTROLLER_Feature.c.o
                0x000c4ee4                ARCONTROLLER_JumpingSumo_NewCmdElementNetworkStateAllWifiScanChanged
 .text.ARCONTROLLER_FEATURE_JumpingSumo_NetworkStateAllWifiScanChangedCallback
                0x000c4ee8      0x3f0 /home/ncs/CAPSTONE/out/arsdk-native/build/libARController/obj/gen/Sources/ARCONTROLLER_Feature.c.o
                0x000c4ee8                ARCONTROLLER_FEATURE_JumpingSumo_NetworkStateAllWifiScanChangedCallback
 .text.ARCONTROLLER_FEATURE_JumpingSumo_RoadPlanStateAllScriptsMetadataChangedCallback
                0x000c52d8      0x3f0 /home/ncs/CAPSTONE/out/arsdk-native/build/libARController/obj/gen/Sources/ARCONTROLLER_Feature.c.o
                0x000c52d8                ARCONTROLLER_FEATURE_JumpingSumo_RoadPlanStateAllScriptsMetadataChangedCallback
 .text.ARCONTROLLER_JumpingSumo_NewCmdElementRoadPlanStateScriptUploadChanged
                0x000c56c8      0x424 /home/ncs/CAPSTONE/out/arsdk-native/build/libARController/obj/gen/Sources/ARCONTROLLER_Feature.c.o
                0x000c56c8                ARCONTROLLER_JumpingSumo_NewCmdElementRoadPlanStateScriptUploadChanged
 .text.ARCONTROLLER_FEATURE_JumpingSumo_RoadPlanStateScriptUploadChangedCallback
                0x000c5aec      0x3f8 /home/ncs/CAPSTONE/out/arsdk-native/build/libARController/obj/gen/Sources/ARCONTROLLER_Feature.c.o
                0x000c5aec                ARCONTROLLER_FEATURE_JumpingSumo_RoadPlanStateScriptUploadChangedCallback
 .text.ARCONTROLLER_JumpingSumo_NewCmdElementRoadPlanStateScriptDeleteChanged
                0x000c5ee4      0x424 /home/ncs/CAPSTONE/out/arsdk-native/build/libARController/obj/gen/Sources/ARCONTROLLER_Feature.c.o
                0x000c5ee4                ARCONTROLLER_JumpingSumo_NewCmdElementRoadPlanStateScriptDeleteChanged
 .text.ARCONTROLLER_FEATURE_JumpingSumo_RoadPlanStateScriptDeleteChangedCallback
                0x000c6308      0x3f8 /home/ncs/CAPSTONE/out/arsdk-native/build/libARController/obj/gen/Sources/ARCONTROLLER_Feature.c.o
                0x000c6308                ARCONTROLLER_FEATURE_JumpingSumo_RoadPlanStateScriptDeleteChangedCallback
 .text.ARCONTROLLER_JumpingSumo_NewCmdElementRoadPlanStatePlayScriptChanged
                0x000c6700      0x424 /home/ncs/CAPSTONE/out/arsdk-native/build/libARController/obj/gen/Sources/ARCONTROLLER_Feature.c.o
                0x000c6700                ARCONTROLLER_JumpingSumo_NewCmdElementRoadPlanStatePlayScriptChanged
 .text.ARCONTROLLER_FEATURE_JumpingSumo_RoadPlanStatePlayScriptChangedCallback
                0x000c6b24      0x3f8 /home/ncs/CAPSTONE/out/arsdk-native/build/libARController/obj/gen/Sources/ARCONTROLLER_Feature.c.o
                0x000c6b24                ARCONTROLLER_FEATURE_JumpingSumo_RoadPlanStatePlayScriptChangedCallback
 .text.ARCONTROLLER_JumpingSumo_NewCmdElementSpeedSettingsStateOutdoorChanged
                0x000c6f1c      0x424 /home/ncs/CAPSTONE/out/arsdk-native/build/libARController/obj/gen/Sources/ARCONTROLLER_Feature.c.o
                0x000c6f1c                ARCONTROLLER_JumpingSumo_NewCmdElementSpeedSettingsStateOutdoorChanged
 .text.ARCONTROLLER_FEATURE_JumpingSumo_SpeedSettingsStateOutdoorChangedCallback
                0x000c7340      0x3f8 /home/ncs/CAPSTONE/out/arsdk-native/build/libARController/obj/gen/Sources/ARCONTROLLER_Feature.c.o
                0x000c7340                ARCONTROLLER_FEATURE_JumpingSumo_SpeedSettingsStateOutdoorChangedCallback
 .text.ARCONTROLLER_JumpingSumo_NewCmdElementMediaStreamingStateVideoEnableChanged
                0x000c7738      0x424 /home/ncs/CAPSTONE/out/arsdk-native/build/libARController/obj/gen/Sources/ARCONTROLLER_Feature.c.o
                0x000c7738                ARCONTROLLER_JumpingSumo_NewCmdElementMediaStreamingStateVideoEnableChanged
 .text.ARCONTROLLER_FEATURE_JumpingSumo_MediaStreamingStateVideoEnableChangedCallback
                0x000c7b5c      0x3f8 /home/ncs/CAPSTONE/out/arsdk-native/build/libARController/obj/gen/Sources/ARCONTROLLER_Feature.c.o
                0x000c7b5c                ARCONTROLLER_FEATURE_JumpingSumo_MediaStreamingStateVideoEnableChangedCallback
 .text.ARCONTROLLER_JumpingSumo_NewCmdElementVideoSettingsStateAutorecordChanged
                0x000c7f54      0x424 /home/ncs/CAPSTONE/out/arsdk-native/build/libARController/obj/gen/Sources/ARCONTROLLER_Feature.c.o
                0x000c7f54                ARCONTROLLER_JumpingSumo_NewCmdElementVideoSettingsStateAutorecordChanged
 .text.ARCONTROLLER_FEATURE_JumpingSumo_VideoSettingsStateAutorecordChangedCallback
                0x000c8378      0x3f8 /home/ncs/CAPSTONE/out/arsdk-native/build/libARController/obj/gen/Sources/ARCONTROLLER_Feature.c.o
                0x000c8378                ARCONTROLLER_FEATURE_JumpingSumo_VideoSettingsStateAutorecordChangedCallback
 .text.ARCONTROLLER_FEATURE_JumpingSumo_SetNetworkController
                0x000c8770       0x12 /home/ncs/CAPSTONE/out/arsdk-native/build/libARController/obj/gen/Sources/ARCONTROLLER_Feature.c.o
                0x000c8770                ARCONTROLLER_FEATURE_JumpingSumo_SetNetworkController
 *fill*         0x000c8782        0x2 
 .text.ARCONTROLLER_JumpingSumo_GetCommandElements
                0x000c8784       0xfc /home/ncs/CAPSTONE/out/arsdk-native/build/libARController/obj/gen/Sources/ARCONTROLLER_Feature.c.o
                0x000c8784                ARCONTROLLER_JumpingSumo_GetCommandElements
 .text.ARCONTROLLER_FEATURE_Mapper_Delete
                0x000c8880       0x4a /home/ncs/CAPSTONE/out/arsdk-native/build/libARController/obj/gen/Sources/ARCONTROLLER_Feature.c.o
                0x000c8880                ARCONTROLLER_FEATURE_Mapper_Delete
 *fill*         0x000c88ca        0x2 
 .text.ARCONTROLLER_FEATURE_Mapper_New
                0x000c88cc       0xb4 /home/ncs/CAPSTONE/out/arsdk-native/build/libARController/obj/gen/Sources/ARCONTROLLER_Feature.c.o
                0x000c88cc                ARCONTROLLER_FEATURE_Mapper_New
 .text.ARCONTROLLER_FEATURE_Mapper_GetDictionary
                0x000c8980       0x18 /home/ncs/CAPSTONE/out/arsdk-native/build/libARController/obj/gen/Sources/ARCONTROLLER_Feature.c.o
                0x000c8980                ARCONTROLLER_FEATURE_Mapper_GetDictionary
 .text.ARCONTROLLER_FEATURE_Mapper_AddCallback
                0x000c8998       0x12 /home/ncs/CAPSTONE/out/arsdk-native/build/libARController/obj/gen/Sources/ARCONTROLLER_Feature.c.o
                0x000c8998                ARCONTROLLER_FEATURE_Mapper_AddCallback
 .text.ARCONTROLLER_FEATURE_Mapper_RemoveCallback
                0x000c89aa       0x12 /home/ncs/CAPSTONE/out/arsdk-native/build/libARController/obj/gen/Sources/ARCONTROLLER_Feature.c.o
                0x000c89aa                ARCONTROLLER_FEATURE_Mapper_RemoveCallback
 .text.ARCONTROLLER_FEATURE_Mapper_RegisterARCommands
                0x000c89bc       0xf8 /home/ncs/CAPSTONE/out/arsdk-native/build/libARController/obj/gen/Sources/ARCONTROLLER_Feature.c.o
                0x000c89bc                ARCONTROLLER_FEATURE_Mapper_RegisterARCommands
 .text.ARCONTROLLER_FEATURE_Mapper_UnregisterARCommands
                0x000c8ab4       0x94 /home/ncs/CAPSTONE/out/arsdk-native/build/libARController/obj/gen/Sources/ARCONTROLLER_Feature.c.o
                0x000c8ab4                ARCONTROLLER_FEATURE_Mapper_UnregisterARCommands
 .text.ARCONTROLLER_Mapper_NewCmdElementGrabState
                0x000c8b48      0xb60 /home/ncs/CAPSTONE/out/arsdk-native/build/libARController/obj/gen/Sources/ARCONTROLLER_Feature.c.o
                0x000c8b48                ARCONTROLLER_Mapper_NewCmdElementGrabState
 .text.ARCONTROLLER_FEATURE_Mapper_GrabStateCallback
                0x000c96a8      0x40c /home/ncs/CAPSTONE/out/arsdk-native/build/libARController/obj/gen/Sources/ARCONTROLLER_Feature.c.o
                0x000c96a8                ARCONTROLLER_FEATURE_Mapper_GrabStateCallback
 .text.ARCONTROLLER_Mapper_NewCmdElementGrabButtonEvent
                0x000c9ab4      0x7c4 /home/ncs/CAPSTONE/out/arsdk-native/build/libARController/obj/gen/Sources/ARCONTROLLER_Feature.c.o
                0x000c9ab4                ARCONTROLLER_Mapper_NewCmdElementGrabButtonEvent
 .text.ARCONTROLLER_FEATURE_Mapper_GrabButtonEventCallback
                0x000ca278      0x404 /home/ncs/CAPSTONE/out/arsdk-native/build/libARController/obj/gen/Sources/ARCONTROLLER_Feature.c.o
                0x000ca278                ARCONTROLLER_FEATURE_Mapper_GrabButtonEventCallback
 .text.ARCONTROLLER_Mapper_NewCmdElementGrabAxisEvent
                0x000ca67c      0x7c8 /home/ncs/CAPSTONE/out/arsdk-native/build/libARController/obj/gen/Sources/ARCONTROLLER_Feature.c.o
                0x000ca67c                ARCONTROLLER_Mapper_NewCmdElementGrabAxisEvent
 .text.ARCONTROLLER_FEATURE_Mapper_GrabAxisEventCallback
                0x000cae44      0x404 /home/ncs/CAPSTONE/out/arsdk-native/build/libARController/obj/gen/Sources/ARCONTROLLER_Feature.c.o
                0x000cae44                ARCONTROLLER_FEATURE_Mapper_GrabAxisEventCallback
 .text.ARCONTROLLER_Mapper_NewCmdElementButtonMappingItem
                0x000cb248      0xf58 /home/ncs/CAPSTONE/out/arsdk-native/build/libARController/obj/gen/Sources/ARCONTROLLER_Feature.c.o
                0x000cb248                ARCONTROLLER_Mapper_NewCmdElementButtonMappingItem
 .text.ARCONTROLLER_FEATURE_Mapper_ButtonMappingItemCallback
                0x000cc1a0      0x85c /home/ncs/CAPSTONE/out/arsdk-native/build/libARController/obj/gen/Sources/ARCONTROLLER_Feature.c.o
                0x000cc1a0                ARCONTROLLER_FEATURE_Mapper_ButtonMappingItemCallback
 .text.ARCONTROLLER_Mapper_NewCmdElementAxisMappingItem
                0x000cc9fc     0x133c /home/ncs/CAPSTONE/out/arsdk-native/build/libARController/obj/gen/Sources/ARCONTROLLER_Feature.c.o
                0x000cc9fc                ARCONTROLLER_Mapper_NewCmdElementAxisMappingItem
 .text.ARCONTROLLER_FEATURE_Mapper_AxisMappingItemCallback
                0x000cdd38      0x864 /home/ncs/CAPSTONE/out/arsdk-native/build/libARController/obj/gen/Sources/ARCONTROLLER_Feature.c.o
                0x000cdd38                ARCONTROLLER_FEATURE_Mapper_AxisMappingItemCallback
 .text.ARCONTROLLER_Mapper_NewCmdElementApplicationAxisEvent
                0x000ce59c      0x7c8 /home/ncs/CAPSTONE/out/arsdk-native/build/libARController/obj/gen/Sources/ARCONTROLLER_Feature.c.o
                0x000ce59c                ARCONTROLLER_Mapper_NewCmdElementApplicationAxisEvent
 .text.ARCONTROLLER_FEATURE_Mapper_ApplicationAxisEventCallback
                0x000ced64      0x404 /home/ncs/CAPSTONE/out/arsdk-native/build/libARController/obj/gen/Sources/ARCONTROLLER_Feature.c.o
                0x000ced64                ARCONTROLLER_FEATURE_Mapper_ApplicationAxisEventCallback
 .text.ARCONTROLLER_Mapper_NewCmdElementApplicationButtonEvent
                0x000cf168      0x424 /home/ncs/CAPSTONE/out/arsdk-native/build/libARController/obj/gen/Sources/ARCONTROLLER_Feature.c.o
                0x000cf168                ARCONTROLLER_Mapper_NewCmdElementApplicationButtonEvent
 .text.ARCONTROLLER_FEATURE_Mapper_ApplicationButtonEventCallback
                0x000cf58c      0x3f8 /home/ncs/CAPSTONE/out/arsdk-native/build/libARController/obj/gen/Sources/ARCONTROLLER_Feature.c.o
                0x000cf58c                ARCONTROLLER_FEATURE_Mapper_ApplicationButtonEventCallback
 .text.ARCONTROLLER_Mapper_NewCmdElementExpoMapItem
                0x000cf984      0xf60 /home/ncs/CAPSTONE/out/arsdk-native/build/libARController/obj/gen/Sources/ARCONTROLLER_Feature.c.o
                0x000cf984                ARCONTROLLER_Mapper_NewCmdElementExpoMapItem
 .text.ARCONTROLLER_FEATURE_Mapper_ExpoMapItemCallback
                0x000d08e4      0x85c /home/ncs/CAPSTONE/out/arsdk-native/build/libARController/obj/gen/Sources/ARCONTROLLER_Feature.c.o
                0x000d08e4                ARCONTROLLER_FEATURE_Mapper_ExpoMapItemCallback
 .text.ARCONTROLLER_Mapper_NewCmdElementInvertedMapItem
                0x000d1140      0xf60 /home/ncs/CAPSTONE/out/arsdk-native/build/libARController/obj/gen/Sources/ARCONTROLLER_Feature.c.o
                0x000d1140                ARCONTROLLER_Mapper_NewCmdElementInvertedMapItem
 .text.ARCONTROLLER_FEATURE_Mapper_InvertedMapItemCallback
                0x000d20a0      0x85c /home/ncs/CAPSTONE/out/arsdk-native/build/libARController/obj/gen/Sources/ARCONTROLLER_Feature.c.o
                0x000d20a0                ARCONTROLLER_FEATURE_Mapper_InvertedMapItemCallback
 .text.ARCONTROLLER_FEATURE_Mapper_SetNetworkController
                0x000d28fc       0x12 /home/ncs/CAPSTONE/out/arsdk-native/build/libARController/obj/gen/Sources/ARCONTROLLER_Feature.c.o
                0x000d28fc                ARCONTROLLER_FEATURE_Mapper_SetNetworkController
 *fill*         0x000d290e        0x2 
 .text.ARCONTROLLER_Mapper_GetCommandElements
                0x000d2910       0xfc /home/ncs/CAPSTONE/out/arsdk-native/build/libARController/obj/gen/Sources/ARCONTROLLER_Feature.c.o
                0x000d2910                ARCONTROLLER_Mapper_GetCommandElements
 .text.ARCONTROLLER_FEATURE_MiniDrone_Delete
                0x000d2a0c       0x6c /home/ncs/CAPSTONE/out/arsdk-native/build/libARController/obj/gen/Sources/ARCONTROLLER_Feature.c.o
                0x000d2a0c                ARCONTROLLER_FEATURE_MiniDrone_Delete
 .text.ARCONTROLLER_FEATURE_MiniDrone_New
                0x000d2a78      0x208 /home/ncs/CAPSTONE/out/arsdk-native/build/libARController/obj/gen/Sources/ARCONTROLLER_Feature.c.o
                0x000d2a78                ARCONTROLLER_FEATURE_MiniDrone_New
 .text.ARCONTROLLER_FEATURE_MiniDrone_GetDictionary
                0x000d2c80       0x1a /home/ncs/CAPSTONE/out/arsdk-native/build/libARController/obj/gen/Sources/ARCONTROLLER_Feature.c.o
                0x000d2c80                ARCONTROLLER_FEATURE_MiniDrone_GetDictionary
 .text.ARCONTROLLER_FEATURE_MiniDrone_AddCallback
                0x000d2c9a       0x14 /home/ncs/CAPSTONE/out/arsdk-native/build/libARController/obj/gen/Sources/ARCONTROLLER_Feature.c.o
                0x000d2c9a                ARCONTROLLER_FEATURE_MiniDrone_AddCallback
 .text.ARCONTROLLER_FEATURE_MiniDrone_RemoveCallback
                0x000d2cae       0x14 /home/ncs/CAPSTONE/out/arsdk-native/build/libARController/obj/gen/Sources/ARCONTROLLER_Feature.c.o
                0x000d2cae                ARCONTROLLER_FEATURE_MiniDrone_RemoveCallback
 *fill*         0x000d2cc2        0x2 
 .text.ARCONTROLLER_FEATURE_MiniDrone_RegisterARCommands
                0x000d2cc4      0x2ac /home/ncs/CAPSTONE/out/arsdk-native/build/libARController/obj/gen/Sources/ARCONTROLLER_Feature.c.o
                0x000d2cc4                ARCONTROLLER_FEATURE_MiniDrone_RegisterARCommands
 .text.ARCONTROLLER_FEATURE_MiniDrone_UnregisterARCommands
                0x000d2f70      0x1a6 /home/ncs/CAPSTONE/out/arsdk-native/build/libARController/obj/gen/Sources/ARCONTROLLER_Feature.c.o
                0x000d2f70                ARCONTROLLER_FEATURE_MiniDrone_UnregisterARCommands
 *fill*         0x000d3116        0x2 
 .text.ARCONTROLLER_MiniDrone_SendPilotingPCMDStruct
                0x000d3118       0xf8 /home/ncs/CAPSTONE/out/arsdk-native/build/libARController/obj/gen/Sources/ARCONTROLLER_Feature.c.o
                0x000d3118                ARCONTROLLER_MiniDrone_SendPilotingPCMDStruct
 .text.ARCONTROLLER_MiniDrone_NewCmdElementPilotingStateFlatTrimChanged
                0x000d3210       0x7c /home/ncs/CAPSTONE/out/arsdk-native/build/libARController/obj/gen/Sources/ARCONTROLLER_Feature.c.o
                0x000d3210                ARCONTROLLER_MiniDrone_NewCmdElementPilotingStateFlatTrimChanged
 .text.ARCONTROLLER_FEATURE_MiniDrone_PilotingStateFlatTrimChangedCallback
                0x000d328c      0x424 /home/ncs/CAPSTONE/out/arsdk-native/build/libARController/obj/gen/Sources/ARCONTROLLER_Feature.c.o
                0x000d328c                ARCONTROLLER_FEATURE_MiniDrone_PilotingStateFlatTrimChangedCallback
 .text.ARCONTROLLER_MiniDrone_NewCmdElementPilotingStateFlyingStateChanged
                0x000d36b0      0x428 /home/ncs/CAPSTONE/out/arsdk-native/build/libARController/obj/gen/Sources/ARCONTROLLER_Feature.c.o
                0x000d36b0                ARCONTROLLER_MiniDrone_NewCmdElementPilotingStateFlyingStateChanged
 .text.ARCONTROLLER_FEATURE_MiniDrone_PilotingStateFlyingStateChangedCallback
                0x000d3ad8      0x42c /home/ncs/CAPSTONE/out/arsdk-native/build/libARController/obj/gen/Sources/ARCONTROLLER_Feature.c.o
                0x000d3ad8                ARCONTROLLER_FEATURE_MiniDrone_PilotingStateFlyingStateChangedCallback
 .text.ARCONTROLLER_MiniDrone_NewCmdElementPilotingStateAlertStateChanged
                0x000d3f04      0x428 /home/ncs/CAPSTONE/out/arsdk-native/build/libARController/obj/gen/Sources/ARCONTROLLER_Feature.c.o
                0x000d3f04                ARCONTROLLER_MiniDrone_NewCmdElementPilotingStateAlertStateChanged
 .text.ARCONTROLLER_FEATURE_MiniDrone_PilotingStateAlertStateChangedCallback
                0x000d432c      0x434 /home/ncs/CAPSTONE/out/arsdk-native/build/libARController/obj/gen/Sources/ARCONTROLLER_Feature.c.o
                0x000d432c                ARCONTROLLER_FEATURE_MiniDrone_PilotingStateAlertStateChangedCallback
 .text.ARCONTROLLER_MiniDrone_NewCmdElementPilotingStateAutoTakeOffModeChanged
                0x000d4760      0x428 /home/ncs/CAPSTONE/out/arsdk-native/build/libARController/obj/gen/Sources/ARCONTROLLER_Feature.c.o
                0x000d4760                ARCONTROLLER_MiniDrone_NewCmdElementPilotingStateAutoTakeOffModeChanged
 .text.ARCONTROLLER_FEATURE_MiniDrone_PilotingStateAutoTakeOffModeChangedCallback
                0x000d4b88      0x42c /home/ncs/CAPSTONE/out/arsdk-native/build/libARController/obj/gen/Sources/ARCONTROLLER_Feature.c.o
                0x000d4b88                ARCONTROLLER_FEATURE_MiniDrone_PilotingStateAutoTakeOffModeChangedCallback
 .text.ARCONTROLLER_MiniDrone_NewCmdElementPilotingStateFlyingModeChanged
                0x000d4fb4      0x428 /home/ncs/CAPSTONE/out/arsdk-native/build/libARController/obj/gen/Sources/ARCONTROLLER_Feature.c.o
                0x000d4fb4                ARCONTROLLER_MiniDrone_NewCmdElementPilotingStateFlyingModeChanged
 .text.ARCONTROLLER_FEATURE_MiniDrone_PilotingStateFlyingModeChangedCallback
                0x000d53dc      0x42c /home/ncs/CAPSTONE/out/arsdk-native/build/libARController/obj/gen/Sources/ARCONTROLLER_Feature.c.o
                0x000d53dc                ARCONTROLLER_FEATURE_MiniDrone_PilotingStateFlyingModeChangedCallback
 .text.ARCONTROLLER_MiniDrone_NewCmdElementPilotingStatePlaneGearBoxChanged
                0x000d5808      0x428 /home/ncs/CAPSTONE/out/arsdk-native/build/libARController/obj/gen/Sources/ARCONTROLLER_Feature.c.o
                0x000d5808                ARCONTROLLER_MiniDrone_NewCmdElementPilotingStatePlaneGearBoxChanged
 .text.ARCONTROLLER_FEATURE_MiniDrone_PilotingStatePlaneGearBoxChangedCallback
                0x000d5c30      0x42c /home/ncs/CAPSTONE/out/arsdk-native/build/libARController/obj/gen/Sources/ARCONTROLLER_Feature.c.o
                0x000d5c30                ARCONTROLLER_FEATURE_MiniDrone_PilotingStatePlaneGearBoxChangedCallback
 .text.ARCONTROLLER_MiniDrone_NewCmdElementMediaRecordStatePictureStateChanged
                0x000d605c      0x7c4 /home/ncs/CAPSTONE/out/arsdk-native/build/libARController/obj/gen/Sources/ARCONTROLLER_Feature.c.o
                0x000d605c                ARCONTROLLER_MiniDrone_NewCmdElementMediaRecordStatePictureStateChanged
 .text.ARCONTROLLER_FEATURE_MiniDrone_MediaRecordStatePictureStateChangedCallback
                0x000d6820      0x438 /home/ncs/CAPSTONE/out/arsdk-native/build/libARController/obj/gen/Sources/ARCONTROLLER_Feature.c.o
                0x000d6820                ARCONTROLLER_FEATURE_MiniDrone_MediaRecordStatePictureStateChangedCallback
 .text.ARCONTROLLER_MiniDrone_NewCmdElementMediaRecordStatePictureStateChangedV2
                0x000d6c58      0x7c4 /home/ncs/CAPSTONE/out/arsdk-native/build/libARController/obj/gen/Sources/ARCONTROLLER_Feature.c.o
                0x000d6c58                ARCONTROLLER_MiniDrone_NewCmdElementMediaRecordStatePictureStateChangedV2
 .text.ARCONTROLLER_FEATURE_MiniDrone_MediaRecordStatePictureStateChangedV2Callback
                0x000d741c      0x438 /home/ncs/CAPSTONE/out/arsdk-native/build/libARController/obj/gen/Sources/ARCONTROLLER_Feature.c.o
                0x000d741c                ARCONTROLLER_FEATURE_MiniDrone_MediaRecordStatePictureStateChangedV2Callback
 .text.ARCONTROLLER_MiniDrone_NewCmdElementMediaRecordEventPictureEventChanged
                0x000d7854      0x7c4 /home/ncs/CAPSTONE/out/arsdk-native/build/libARController/obj/gen/Sources/ARCONTROLLER_Feature.c.o
                0x000d7854                ARCONTROLLER_MiniDrone_NewCmdElementMediaRecordEventPictureEventChanged
 .text.ARCONTROLLER_FEATURE_MiniDrone_MediaRecordEventPictureEventChangedCallback
                0x000d8018      0x438 /home/ncs/CAPSTONE/out/arsdk-native/build/libARController/obj/gen/Sources/ARCONTROLLER_Feature.c.o
                0x000d8018                ARCONTROLLER_FEATURE_MiniDrone_MediaRecordEventPictureEventChangedCallback
 .text.ARCONTROLLER_MiniDrone_NewCmdElementPilotingSettingsStateMaxAltitudeChanged
                0x000d8450      0xb78 /home/ncs/CAPSTONE/out/arsdk-native/build/libARController/obj/gen/Sources/ARCONTROLLER_Feature.c.o
                0x000d8450                ARCONTROLLER_MiniDrone_NewCmdElementPilotingSettingsStateMaxAltitudeChanged
 .text.ARCONTROLLER_FEATURE_MiniDrone_PilotingSettingsStateMaxAltitudeChangedCallback
                0x000d8fc8      0x444 /home/ncs/CAPSTONE/out/arsdk-native/build/libARController/obj/gen/Sources/ARCONTROLLER_Feature.c.o
                0x000d8fc8                ARCONTROLLER_FEATURE_MiniDrone_PilotingSettingsStateMaxAltitudeChangedCallback
 .text.ARCONTROLLER_MiniDrone_NewCmdElementPilotingSettingsStateMaxTiltChanged
                0x000d940c      0xb78 /home/ncs/CAPSTONE/out/arsdk-native/build/libARController/obj/gen/Sources/ARCONTROLLER_Feature.c.o
                0x000d940c                ARCONTROLLER_MiniDrone_NewCmdElementPilotingSettingsStateMaxTiltChanged
 .text.ARCONTROLLER_FEATURE_MiniDrone_PilotingSettingsStateMaxTiltChangedCallback
                0x000d9f84      0x444 /home/ncs/CAPSTONE/out/arsdk-native/build/libARController/obj/gen/Sources/ARCONTROLLER_Feature.c.o
                0x000d9f84                ARCONTROLLER_FEATURE_MiniDrone_PilotingSettingsStateMaxTiltChangedCallback
 .text.ARCONTROLLER_MiniDrone_NewCmdElementPilotingSettingsStatePlaneModePitchChanged
                0x000da3c8      0xb78 /home/ncs/CAPSTONE/out/arsdk-native/build/libARController/obj/gen/Sources/ARCONTROLLER_Feature.c.o
                0x000da3c8                ARCONTROLLER_MiniDrone_NewCmdElementPilotingSettingsStatePlaneModePitchChanged
 .text.ARCONTROLLER_FEATURE_MiniDrone_PilotingSettingsStatePlaneModePitchChangedCallback
                0x000daf40      0x444 /home/ncs/CAPSTONE/out/arsdk-native/build/libARController/obj/gen/Sources/ARCONTROLLER_Feature.c.o
                0x000daf40                ARCONTROLLER_FEATURE_MiniDrone_PilotingSettingsStatePlaneModePitchChangedCallback
 .text.ARCONTROLLER_MiniDrone_NewCmdElementSpeedSettingsStateMaxVerticalSpeedChanged
                0x000db384      0xb78 /home/ncs/CAPSTONE/out/arsdk-native/build/libARController/obj/gen/Sources/ARCONTROLLER_Feature.c.o
                0x000db384                ARCONTROLLER_MiniDrone_NewCmdElementSpeedSettingsStateMaxVerticalSpeedChanged
 .text.ARCONTROLLER_FEATURE_MiniDrone_SpeedSettingsStateMaxVerticalSpeedChangedCallback
                0x000dbefc      0x444 /home/ncs/CAPSTONE/out/arsdk-native/build/libARController/obj/gen/Sources/ARCONTROLLER_Feature.c.o
                0x000dbefc                ARCONTROLLER_FEATURE_MiniDrone_SpeedSettingsStateMaxVerticalSpeedChangedCallback
 .text.ARCONTROLLER_MiniDrone_NewCmdElementSpeedSettingsStateMaxRotationSpeedChanged
                0x000dc340      0xb78 /home/ncs/CAPSTONE/out/arsdk-native/build/libARController/obj/gen/Sources/ARCONTROLLER_Feature.c.o
                0x000dc340                ARCONTROLLER_MiniDrone_NewCmdElementSpeedSettingsStateMaxRotationSpeedChanged
 .text.ARCONTROLLER_FEATURE_MiniDrone_SpeedSettingsStateMaxRotationSpeedChangedCallback
                0x000dceb8      0x444 /home/ncs/CAPSTONE/out/arsdk-native/build/libARController/obj/gen/Sources/ARCONTROLLER_Feature.c.o
                0x000dceb8                ARCONTROLLER_FEATURE_MiniDrone_SpeedSettingsStateMaxRotationSpeedChangedCallback
 .text.ARCONTROLLER_MiniDrone_NewCmdElementSpeedSettingsStateWheelsChanged
                0x000dd2fc      0x428 /home/ncs/CAPSTONE/out/arsdk-native/build/libARController/obj/gen/Sources/ARCONTROLLER_Feature.c.o
                0x000dd2fc                ARCONTROLLER_MiniDrone_NewCmdElementSpeedSettingsStateWheelsChanged
 .text.ARCONTROLLER_FEATURE_MiniDrone_SpeedSettingsStateWheelsChangedCallback
                0x000dd724      0x42c /home/ncs/CAPSTONE/out/arsdk-native/build/libARController/obj/gen/Sources/ARCONTROLLER_Feature.c.o
                0x000dd724                ARCONTROLLER_FEATURE_MiniDrone_SpeedSettingsStateWheelsChangedCallback
 .text.ARCONTROLLER_MiniDrone_NewCmdElementSpeedSettingsStateMaxHorizontalSpeedChanged
                0x000ddb50      0xb78 /home/ncs/CAPSTONE/out/arsdk-native/build/libARController/obj/gen/Sources/ARCONTROLLER_Feature.c.o
                0x000ddb50                ARCONTROLLER_MiniDrone_NewCmdElementSpeedSettingsStateMaxHorizontalSpeedChanged
 .text.ARCONTROLLER_FEATURE_MiniDrone_SpeedSettingsStateMaxHorizontalSpeedChangedCallback
                0x000de6c8      0x444 /home/ncs/CAPSTONE/out/arsdk-native/build/libARController/obj/gen/Sources/ARCONTROLLER_Feature.c.o
                0x000de6c8                ARCONTROLLER_FEATURE_MiniDrone_SpeedSettingsStateMaxHorizontalSpeedChangedCallback
 .text.ARCONTROLLER_MiniDrone_NewCmdElementSpeedSettingsStateMaxPlaneModeRotationSpeedChanged
                0x000deb0c      0xb78 /home/ncs/CAPSTONE/out/arsdk-native/build/libARController/obj/gen/Sources/ARCONTROLLER_Feature.c.o
                0x000deb0c                ARCONTROLLER_MiniDrone_NewCmdElementSpeedSettingsStateMaxPlaneModeRotationSpeedChanged
 .text.ARCONTROLLER_FEATURE_MiniDrone_SpeedSettingsStateMaxPlaneModeRotationSpeedChangedCallback
                0x000df684      0x444 /home/ncs/CAPSTONE/out/arsdk-native/build/libARController/obj/gen/Sources/ARCONTROLLER_Feature.c.o
                0x000df684                ARCONTROLLER_FEATURE_MiniDrone_SpeedSettingsStateMaxPlaneModeRotationSpeedChangedCallback
 .text.ARCONTROLLER_MiniDrone_NewCmdElementSettingsStateProductMotorsVersionChanged
                0x000dfac8      0xfa4 /home/ncs/CAPSTONE/out/arsdk-native/build/libARController/obj/gen/Sources/ARCONTROLLER_Feature.c.o
                0x000dfac8                ARCONTROLLER_MiniDrone_NewCmdElementSettingsStateProductMotorsVersionChanged
 .text.ARCONTROLLER_FEATURE_MiniDrone_SettingsStateProductMotorsVersionChangedCallback
                0x000e0a6c      0x43c /home/ncs/CAPSTONE/out/arsdk-native/build/libARController/obj/gen/Sources/ARCONTROLLER_Feature.c.o
                0x000e0a6c                ARCONTROLLER_FEATURE_MiniDrone_SettingsStateProductMotorsVersionChangedCallback
 .text.ARCONTROLLER_MiniDrone_NewCmdElementSettingsStateProductInertialVersionChanged
                0x000e0ea8      0x834 /home/ncs/CAPSTONE/out/arsdk-native/build/libARController/obj/gen/Sources/ARCONTROLLER_Feature.c.o
                0x000e0ea8                ARCONTROLLER_MiniDrone_NewCmdElementSettingsStateProductInertialVersionChanged
 .text.ARCONTROLLER_FEATURE_MiniDrone_SettingsStateProductInertialVersionChangedCallback
                0x000e16dc      0x438 /home/ncs/CAPSTONE/out/arsdk-native/build/libARController/obj/gen/Sources/ARCONTROLLER_Feature.c.o
                0x000e16dc                ARCONTROLLER_FEATURE_MiniDrone_SettingsStateProductInertialVersionChangedCallback
 .text.ARCONTROLLER_MiniDrone_NewCmdElementSettingsStateCutOutModeChanged
                0x000e1b14      0x428 /home/ncs/CAPSTONE/out/arsdk-native/build/libARController/obj/gen/Sources/ARCONTROLLER_Feature.c.o
                0x000e1b14                ARCONTROLLER_MiniDrone_NewCmdElementSettingsStateCutOutModeChanged
 .text.ARCONTROLLER_FEATURE_MiniDrone_SettingsStateCutOutModeChangedCallback
                0x000e1f3c      0x42c /home/ncs/CAPSTONE/out/arsdk-native/build/libARController/obj/gen/Sources/ARCONTROLLER_Feature.c.o
                0x000e1f3c                ARCONTROLLER_FEATURE_MiniDrone_SettingsStateCutOutModeChangedCallback
 .text.ARCONTROLLER_MiniDrone_NewCmdElementFloodControlStateFloodControlChanged
                0x000e2368      0x428 /home/ncs/CAPSTONE/out/arsdk-native/build/libARController/obj/gen/Sources/ARCONTROLLER_Feature.c.o
                0x000e2368                ARCONTROLLER_MiniDrone_NewCmdElementFloodControlStateFloodControlChanged
 .text.ARCONTROLLER_FEATURE_MiniDrone_FloodControlStateFloodControlChangedCallback
                0x000e2790      0x42c /home/ncs/CAPSTONE/out/arsdk-native/build/libARController/obj/gen/Sources/ARCONTROLLER_Feature.c.o
                0x000e2790                ARCONTROLLER_FEATURE_MiniDrone_FloodControlStateFloodControlChangedCallback
 .text.ARCONTROLLER_MiniDrone_NewCmdElementUsbAccessoryStateLightState
                0x000e2bbc      0xba8 /home/ncs/CAPSTONE/out/arsdk-native/build/libARController/obj/gen/Sources/ARCONTROLLER_Feature.c.o
                0x000e2bbc                ARCONTROLLER_MiniDrone_NewCmdElementUsbAccessoryStateLightState
 .text.ARCONTROLLER_FEATURE_MiniDrone_UsbAccessoryStateLightStateCallback
                0x000e3764      0x898 /home/ncs/CAPSTONE/out/arsdk-native/build/libARController/obj/gen/Sources/ARCONTROLLER_Feature.c.o
                0x000e3764                ARCONTROLLER_FEATURE_MiniDrone_UsbAccessoryStateLightStateCallback
 .text.ARCONTROLLER_MiniDrone_NewCmdElementUsbAccessoryStateClawState
                0x000e3ffc      0x800 /home/ncs/CAPSTONE/out/arsdk-native/build/libARController/obj/gen/Sources/ARCONTROLLER_Feature.c.o
                0x000e3ffc                ARCONTROLLER_MiniDrone_NewCmdElementUsbAccessoryStateClawState
 .text.ARCONTROLLER_FEATURE_MiniDrone_UsbAccessoryStateClawStateCallback
                0x000e47fc      0x88c /home/ncs/CAPSTONE/out/arsdk-native/build/libARController/obj/gen/Sources/ARCONTROLLER_Feature.c.o
                0x000e47fc                ARCONTROLLER_FEATURE_MiniDrone_UsbAccessoryStateClawStateCallback
 .text.ARCONTROLLER_MiniDrone_NewCmdElementUsbAccessoryStateGunState
                0x000e5088      0x800 /home/ncs/CAPSTONE/out/arsdk-native/build/libARController/obj/gen/Sources/ARCONTROLLER_Feature.c.o
                0x000e5088                ARCONTROLLER_MiniDrone_NewCmdElementUsbAccessoryStateGunState
 .text.ARCONTROLLER_FEATURE_MiniDrone_UsbAccessoryStateGunStateCallback
                0x000e5888      0x88c /home/ncs/CAPSTONE/out/arsdk-native/build/libARController/obj/gen/Sources/ARCONTROLLER_Feature.c.o
                0x000e5888                ARCONTROLLER_FEATURE_MiniDrone_UsbAccessoryStateGunStateCallback
 .text.ARCONTROLLER_MiniDrone_NewCmdElementNavigationDataStateDronePosition
                0x000e6114     0x12e0 /home/ncs/CAPSTONE/out/arsdk-native/build/libARController/obj/gen/Sources/ARCONTROLLER_Feature.c.o
                0x000e6114                ARCONTROLLER_MiniDrone_NewCmdElementNavigationDataStateDronePosition
 .text.ARCONTROLLER_FEATURE_MiniDrone_NavigationDataStateDronePositionCallback
                0x000e73f4      0x458 /home/ncs/CAPSTONE/out/arsdk-native/build/libARController/obj/gen/Sources/ARCONTROLLER_Feature.c.o
                0x000e73f4                ARCONTROLLER_FEATURE_MiniDrone_NavigationDataStateDronePositionCallback
 .text.ARCONTROLLER_FEATURE_MiniDrone_SetNetworkController
                0x000e784c       0x14 /home/ncs/CAPSTONE/out/arsdk-native/build/libARController/obj/gen/Sources/ARCONTROLLER_Feature.c.o
                0x000e784c                ARCONTROLLER_FEATURE_MiniDrone_SetNetworkController
 .text.ARCONTROLLER_MiniDrone_GetCommandElements
                0x000e7860      0x100 /home/ncs/CAPSTONE/out/arsdk-native/build/libARController/obj/gen/Sources/ARCONTROLLER_Feature.c.o
                0x000e7860                ARCONTROLLER_MiniDrone_GetCommandElements
 .text.ARCONTROLLER_FEATURE_Powerup_Delete
                0x000e7960       0x5e /home/ncs/CAPSTONE/out/arsdk-native/build/libARController/obj/gen/Sources/ARCONTROLLER_Feature.c.o
                0x000e7960                ARCONTROLLER_FEATURE_Powerup_Delete
 *fill*         0x000e79be        0x2 
 .text.ARCONTROLLER_FEATURE_Powerup_New
                0x000e79c0      0x13c /home/ncs/CAPSTONE/out/arsdk-native/build/libARController/obj/gen/Sources/ARCONTROLLER_Feature.c.o
                0x000e79c0                ARCONTROLLER_FEATURE_Powerup_New
 .text.ARCONTROLLER_FEATURE_Powerup_GetDictionary
                0x000e7afc       0x18 /home/ncs/CAPSTONE/out/arsdk-native/build/libARController/obj/gen/Sources/ARCONTROLLER_Feature.c.o
                0x000e7afc                ARCONTROLLER_FEATURE_Powerup_GetDictionary
 .text.ARCONTROLLER_FEATURE_Powerup_AddCallback
                0x000e7b14       0x12 /home/ncs/CAPSTONE/out/arsdk-native/build/libARController/obj/gen/Sources/ARCONTROLLER_Feature.c.o
                0x000e7b14                ARCONTROLLER_FEATURE_Powerup_AddCallback
 .text.ARCONTROLLER_FEATURE_Powerup_RemoveCallback
                0x000e7b26       0x12 /home/ncs/CAPSTONE/out/arsdk-native/build/libARController/obj/gen/Sources/ARCONTROLLER_Feature.c.o
                0x000e7b26                ARCONTROLLER_FEATURE_Powerup_RemoveCallback
 .text.ARCONTROLLER_FEATURE_Powerup_RegisterARCommands
                0x000e7b38      0x200 /home/ncs/CAPSTONE/out/arsdk-native/build/libARController/obj/gen/Sources/ARCONTROLLER_Feature.c.o
                0x000e7b38                ARCONTROLLER_FEATURE_Powerup_RegisterARCommands
 .text.ARCONTROLLER_FEATURE_Powerup_UnregisterARCommands
                0x000e7d38      0x12e /home/ncs/CAPSTONE/out/arsdk-native/build/libARController/obj/gen/Sources/ARCONTROLLER_Feature.c.o
                0x000e7d38                ARCONTROLLER_FEATURE_Powerup_UnregisterARCommands
 *fill*         0x000e7e66        0x2 
 .text.ARCONTROLLER_Powerup_SendPilotingPCMDStruct
                0x000e7e68       0xe4 /home/ncs/CAPSTONE/out/arsdk-native/build/libARController/obj/gen/Sources/ARCONTROLLER_Feature.c.o
                0x000e7e68                ARCONTROLLER_Powerup_SendPilotingPCMDStruct
 .text.ARCONTROLLER_Powerup_NewCmdElementPilotingStateAlertStateChanged
                0x000e7f4c      0x424 /home/ncs/CAPSTONE/out/arsdk-native/build/libARController/obj/gen/Sources/ARCONTROLLER_Feature.c.o
                0x000e7f4c                ARCONTROLLER_Powerup_NewCmdElementPilotingStateAlertStateChanged
 .text.ARCONTROLLER_FEATURE_Powerup_PilotingStateAlertStateChangedCallback
                0x000e8370      0x3f8 /home/ncs/CAPSTONE/out/arsdk-native/build/libARController/obj/gen/Sources/ARCONTROLLER_Feature.c.o
                0x000e8370                ARCONTROLLER_FEATURE_Powerup_PilotingStateAlertStateChangedCallback
 .text.ARCONTROLLER_Powerup_NewCmdElementPilotingStateFlyingStateChanged
                0x000e8768      0x424 /home/ncs/CAPSTONE/out/arsdk-native/build/libARController/obj/gen/Sources/ARCONTROLLER_Feature.c.o
                0x000e8768                ARCONTROLLER_Powerup_NewCmdElementPilotingStateFlyingStateChanged
 .text.ARCONTROLLER_FEATURE_Powerup_PilotingStateFlyingStateChangedCallback
                0x000e8b8c      0x3f8 /home/ncs/CAPSTONE/out/arsdk-native/build/libARController/obj/gen/Sources/ARCONTROLLER_Feature.c.o
                0x000e8b8c                ARCONTROLLER_FEATURE_Powerup_PilotingStateFlyingStateChangedCallback
 .text.ARCONTROLLER_Powerup_NewCmdElementPilotingStateMotorModeChanged
                0x000e8f84      0x424 /home/ncs/CAPSTONE/out/arsdk-native/build/libARController/obj/gen/Sources/ARCONTROLLER_Feature.c.o
                0x000e8f84                ARCONTROLLER_Powerup_NewCmdElementPilotingStateMotorModeChanged
 .text.ARCONTROLLER_FEATURE_Powerup_PilotingStateMotorModeChangedCallback
                0x000e93a8      0x3f8 /home/ncs/CAPSTONE/out/arsdk-native/build/libARController/obj/gen/Sources/ARCONTROLLER_Feature.c.o
                0x000e93a8                ARCONTROLLER_FEATURE_Powerup_PilotingStateMotorModeChangedCallback
 .text.ARCONTROLLER_Powerup_NewCmdElementPilotingStateAttitudeChanged
                0x000e97a0      0xb78 /home/ncs/CAPSTONE/out/arsdk-native/build/libARController/obj/gen/Sources/ARCONTROLLER_Feature.c.o
                0x000e97a0                ARCONTROLLER_Powerup_NewCmdElementPilotingStateAttitudeChanged
 .text.ARCONTROLLER_FEATURE_Powerup_PilotingStateAttitudeChangedCallback
                0x000ea318      0x410 /home/ncs/CAPSTONE/out/arsdk-native/build/libARController/obj/gen/Sources/ARCONTROLLER_Feature.c.o
                0x000ea318                ARCONTROLLER_FEATURE_Powerup_PilotingStateAttitudeChangedCallback
 .text.ARCONTROLLER_Powerup_NewCmdElementPilotingStateAltitudeChanged
                0x000ea728      0x42c /home/ncs/CAPSTONE/out/arsdk-native/build/libARController/obj/gen/Sources/ARCONTROLLER_Feature.c.o
                0x000ea728                ARCONTROLLER_Powerup_NewCmdElementPilotingStateAltitudeChanged
 .text.ARCONTROLLER_FEATURE_Powerup_PilotingStateAltitudeChangedCallback
                0x000eab54      0x400 /home/ncs/CAPSTONE/out/arsdk-native/build/libARController/obj/gen/Sources/ARCONTROLLER_Feature.c.o
                0x000eab54                ARCONTROLLER_FEATURE_Powerup_PilotingStateAltitudeChangedCallback
 .text.ARCONTROLLER_Powerup_NewCmdElementPilotingSettingsStateSettingChanged
                0x000eaf54      0xf54 /home/ncs/CAPSTONE/out/arsdk-native/build/libARController/obj/gen/Sources/ARCONTROLLER_Feature.c.o
                0x000eaf54                ARCONTROLLER_Powerup_NewCmdElementPilotingSettingsStateSettingChanged
 .text.ARCONTROLLER_FEATURE_Powerup_PilotingSettingsStateSettingChangedCallback
                0x000ebea8      0x86c /home/ncs/CAPSTONE/out/arsdk-native/build/libARController/obj/gen/Sources/ARCONTROLLER_Feature.c.o
                0x000ebea8                ARCONTROLLER_FEATURE_Powerup_PilotingSettingsStateSettingChangedCallback
 .text.ARCONTROLLER_Powerup_NewCmdElementMediaRecordStatePictureStateChangedV2
                0x000ec714      0x7c4 /home/ncs/CAPSTONE/out/arsdk-native/build/libARController/obj/gen/Sources/ARCONTROLLER_Feature.c.o
                0x000ec714                ARCONTROLLER_Powerup_NewCmdElementMediaRecordStatePictureStateChangedV2
 .text.ARCONTROLLER_FEATURE_Powerup_MediaRecordStatePictureStateChangedV2Callback
                0x000eced8      0x404 /home/ncs/CAPSTONE/out/arsdk-native/build/libARController/obj/gen/Sources/ARCONTROLLER_Feature.c.o
                0x000eced8                ARCONTROLLER_FEATURE_Powerup_MediaRecordStatePictureStateChangedV2Callback
 .text.ARCONTROLLER_Powerup_NewCmdElementMediaRecordStateVideoStateChangedV2
                0x000ed2dc      0x7c4 /home/ncs/CAPSTONE/out/arsdk-native/build/libARController/obj/gen/Sources/ARCONTROLLER_Feature.c.o
                0x000ed2dc                ARCONTROLLER_Powerup_NewCmdElementMediaRecordStateVideoStateChangedV2
 .text.ARCONTROLLER_FEATURE_Powerup_MediaRecordStateVideoStateChangedV2Callback
                0x000edaa0      0x404 /home/ncs/CAPSTONE/out/arsdk-native/build/libARController/obj/gen/Sources/ARCONTROLLER_Feature.c.o
                0x000edaa0                ARCONTROLLER_FEATURE_Powerup_MediaRecordStateVideoStateChangedV2Callback
 .text.ARCONTROLLER_Powerup_NewCmdElementMediaRecordEventPictureEventChanged
                0x000edea4      0x7c4 /home/ncs/CAPSTONE/out/arsdk-native/build/libARController/obj/gen/Sources/ARCONTROLLER_Feature.c.o
                0x000edea4                ARCONTROLLER_Powerup_NewCmdElementMediaRecordEventPictureEventChanged
 .text.ARCONTROLLER_FEATURE_Powerup_MediaRecordEventPictureEventChangedCallback
                0x000ee668      0x404 /home/ncs/CAPSTONE/out/arsdk-native/build/libARController/obj/gen/Sources/ARCONTROLLER_Feature.c.o
                0x000ee668                ARCONTROLLER_FEATURE_Powerup_MediaRecordEventPictureEventChangedCallback
 .text.ARCONTROLLER_Powerup_NewCmdElementMediaRecordEventVideoEventChanged
                0x000eea6c      0x7c4 /home/ncs/CAPSTONE/out/arsdk-native/build/libARController/obj/gen/Sources/ARCONTROLLER_Feature.c.o
                0x000eea6c                ARCONTROLLER_Powerup_NewCmdElementMediaRecordEventVideoEventChanged
 .text.ARCONTROLLER_FEATURE_Powerup_MediaRecordEventVideoEventChangedCallback
                0x000ef230      0x404 /home/ncs/CAPSTONE/out/arsdk-native/build/libARController/obj/gen/Sources/ARCONTROLLER_Feature.c.o
                0x000ef230                ARCONTROLLER_FEATURE_Powerup_MediaRecordEventVideoEventChangedCallback
 .text.ARCONTROLLER_Powerup_NewCmdElementNetworkSettingsStateWifiSelectionChanged
                0x000ef634      0xb60 /home/ncs/CAPSTONE/out/arsdk-native/build/libARController/obj/gen/Sources/ARCONTROLLER_Feature.c.o
                0x000ef634                ARCONTROLLER_Powerup_NewCmdElementNetworkSettingsStateWifiSelectionChanged
 .text.ARCONTROLLER_FEATURE_Powerup_NetworkSettingsStateWifiSelectionChangedCallback
                0x000f0194      0x40c /home/ncs/CAPSTONE/out/arsdk-native/build/libARController/obj/gen/Sources/ARCONTROLLER_Feature.c.o
                0x000f0194                ARCONTROLLER_FEATURE_Powerup_NetworkSettingsStateWifiSelectionChangedCallback
 .text.ARCONTROLLER_Powerup_NewCmdElementNetworkStateWifiScanListChanged
                0x000f05a0      0xf3c /home/ncs/CAPSTONE/out/arsdk-native/build/libARController/obj/gen/Sources/ARCONTROLLER_Feature.c.o
                0x000f05a0                ARCONTROLLER_Powerup_NewCmdElementNetworkStateWifiScanListChanged
 .text.ARCONTROLLER_FEATURE_Powerup_NetworkStateWifiScanListChangedCallback
                0x000f14dc      0x408 /home/ncs/CAPSTONE/out/arsdk-native/build/libARController/obj/gen/Sources/ARCONTROLLER_Feature.c.o
                0x000f14dc                ARCONTROLLER_FEATURE_Powerup_NetworkStateWifiScanListChangedCallback
 .text.ARCONTROLLER_Powerup_NewCmdElementNetworkStateWifiAuthChannelListChanged
                0x000f18e4      0xbe8 /home/ncs/CAPSTONE/out/arsdk-native/build/libARController/obj/gen/Sources/ARCONTROLLER_Feature.c.o
                0x000f18e4                ARCONTROLLER_Powerup_NewCmdElementNetworkStateWifiAuthChannelListChanged
 .text.ARCONTROLLER_FEATURE_Powerup_NetworkStateWifiAuthChannelListChangedCallback
                0x000f24cc      0x420 /home/ncs/CAPSTONE/out/arsdk-native/build/libARController/obj/gen/Sources/ARCONTROLLER_Feature.c.o
                0x000f24cc                ARCONTROLLER_FEATURE_Powerup_NetworkStateWifiAuthChannelListChangedCallback
 .text.ARCONTROLLER_Powerup_NewCmdElementNetworkStateAllWifiAuthChannelChanged
                0x000f28ec       0x78 /home/ncs/CAPSTONE/out/arsdk-native/build/libARController/obj/gen/Sources/ARCONTROLLER_Feature.c.o
                0x000f28ec                ARCONTROLLER_Powerup_NewCmdElementNetworkStateAllWifiAuthChannelChanged
 .text.ARCONTROLLER_Powerup_NewCmdElementNetworkStateAllWifiScanChanged
                0x000f2964        0x4 /home/ncs/CAPSTONE/out/arsdk-native/build/libARController/obj/gen/Sources/ARCONTROLLER_Feature.c.o
                0x000f2964                ARCONTROLLER_Powerup_NewCmdElementNetworkStateAllWifiScanChanged
 .text.ARCONTROLLER_FEATURE_Powerup_NetworkStateAllWifiScanChangedCallback
                0x000f2968      0x3f0 /home/ncs/CAPSTONE/out/arsdk-native/build/libARController/obj/gen/Sources/ARCONTROLLER_Feature.c.o
                0x000f2968                ARCONTROLLER_FEATURE_Powerup_NetworkStateAllWifiScanChangedCallback
 .text.ARCONTROLLER_FEATURE_Powerup_NetworkStateAllWifiAuthChannelChangedCallback
                0x000f2d58      0x3f0 /home/ncs/CAPSTONE/out/arsdk-native/build/libARController/obj/gen/Sources/ARCONTROLLER_Feature.c.o
                0x000f2d58                ARCONTROLLER_FEATURE_Powerup_NetworkStateAllWifiAuthChannelChangedCallback
 .text.ARCONTROLLER_Powerup_NewCmdElementNetworkStateLinkQualityChanged
                0x000f3148      0x424 /home/ncs/CAPSTONE/out/arsdk-native/build/libARController/obj/gen/Sources/ARCONTROLLER_Feature.c.o
                0x000f3148                ARCONTROLLER_Powerup_NewCmdElementNetworkStateLinkQualityChanged
 .text.ARCONTROLLER_FEATURE_Powerup_NetworkStateLinkQualityChangedCallback
                0x000f356c      0x3f8 /home/ncs/CAPSTONE/out/arsdk-native/build/libARController/obj/gen/Sources/ARCONTROLLER_Feature.c.o
                0x000f356c                ARCONTROLLER_FEATURE_Powerup_NetworkStateLinkQualityChangedCallback
 .text.ARCONTROLLER_Powerup_NewCmdElementMediaStreamingStateVideoEnableChanged
                0x000f3964      0x424 /home/ncs/CAPSTONE/out/arsdk-native/build/libARController/obj/gen/Sources/ARCONTROLLER_Feature.c.o
                0x000f3964                ARCONTROLLER_Powerup_NewCmdElementMediaStreamingStateVideoEnableChanged
 .text.ARCONTROLLER_FEATURE_Powerup_MediaStreamingStateVideoEnableChangedCallback
                0x000f3d88      0x3f8 /home/ncs/CAPSTONE/out/arsdk-native/build/libARController/obj/gen/Sources/ARCONTROLLER_Feature.c.o
                0x000f3d88                ARCONTROLLER_FEATURE_Powerup_MediaStreamingStateVideoEnableChangedCallback
 .text.ARCONTROLLER_Powerup_NewCmdElementVideoSettingsStateAutorecordChanged
                0x000f4180      0x424 /home/ncs/CAPSTONE/out/arsdk-native/build/libARController/obj/gen/Sources/ARCONTROLLER_Feature.c.o
                0x000f4180                ARCONTROLLER_Powerup_NewCmdElementVideoSettingsStateAutorecordChanged
 .text.ARCONTROLLER_FEATURE_Powerup_VideoSettingsStateAutorecordChangedCallback
                0x000f45a4      0x3f8 /home/ncs/CAPSTONE/out/arsdk-native/build/libARController/obj/gen/Sources/ARCONTROLLER_Feature.c.o
                0x000f45a4                ARCONTROLLER_FEATURE_Powerup_VideoSettingsStateAutorecordChangedCallback
 .text.ARCONTROLLER_Powerup_NewCmdElementVideoSettingsStateVideoModeChanged
                0x000f499c      0x424 /home/ncs/CAPSTONE/out/arsdk-native/build/libARController/obj/gen/Sources/ARCONTROLLER_Feature.c.o
                0x000f499c                ARCONTROLLER_Powerup_NewCmdElementVideoSettingsStateVideoModeChanged
 .text.ARCONTROLLER_FEATURE_Powerup_VideoSettingsStateVideoModeChangedCallback
                0x000f4dc0      0x3f8 /home/ncs/CAPSTONE/out/arsdk-native/build/libARController/obj/gen/Sources/ARCONTROLLER_Feature.c.o
                0x000f4dc0                ARCONTROLLER_FEATURE_Powerup_VideoSettingsStateVideoModeChangedCallback
 .text.ARCONTROLLER_Powerup_NewCmdElementSoundsStateBuzzChanged
                0x000f51b8      0x424 /home/ncs/CAPSTONE/out/arsdk-native/build/libARController/obj/gen/Sources/ARCONTROLLER_Feature.c.o
                0x000f51b8                ARCONTROLLER_Powerup_NewCmdElementSoundsStateBuzzChanged
 .text.ARCONTROLLER_FEATURE_Powerup_SoundsStateBuzzChangedCallback
                0x000f55dc      0x3f8 /home/ncs/CAPSTONE/out/arsdk-native/build/libARController/obj/gen/Sources/ARCONTROLLER_Feature.c.o
                0x000f55dc                ARCONTROLLER_FEATURE_Powerup_SoundsStateBuzzChangedCallback
 .text.ARCONTROLLER_FEATURE_Powerup_SetNetworkController
                0x000f59d4       0x12 /home/ncs/CAPSTONE/out/arsdk-native/build/libARController/obj/gen/Sources/ARCONTROLLER_Feature.c.o
                0x000f59d4                ARCONTROLLER_FEATURE_Powerup_SetNetworkController
 *fill*         0x000f59e6        0x2 
 .text.ARCONTROLLER_Powerup_GetCommandElements
                0x000f59e8       0xfc /home/ncs/CAPSTONE/out/arsdk-native/build/libARController/obj/gen/Sources/ARCONTROLLER_Feature.c.o
                0x000f59e8                ARCONTROLLER_Powerup_GetCommandElements
 .text.ARCONTROLLER_FEATURE_Pro_Delete
                0x000f5ae4       0x4a /home/ncs/CAPSTONE/out/arsdk-native/build/libARController/obj/gen/Sources/ARCONTROLLER_Feature.c.o
                0x000f5ae4                ARCONTROLLER_FEATURE_Pro_Delete
 *fill*         0x000f5b2e        0x2 
 .text.ARCONTROLLER_FEATURE_Pro_New
                0x000f5b30       0x94 /home/ncs/CAPSTONE/out/arsdk-native/build/libARController/obj/gen/Sources/ARCONTROLLER_Feature.c.o
                0x000f5b30                ARCONTROLLER_FEATURE_Pro_New
 .text.ARCONTROLLER_FEATURE_Pro_GetDictionary
                0x000f5bc4       0x18 /home/ncs/CAPSTONE/out/arsdk-native/build/libARController/obj/gen/Sources/ARCONTROLLER_Feature.c.o
                0x000f5bc4                ARCONTROLLER_FEATURE_Pro_GetDictionary
 .text.ARCONTROLLER_FEATURE_Pro_AddCallback
                0x000f5bdc       0x12 /home/ncs/CAPSTONE/out/arsdk-native/build/libARController/obj/gen/Sources/ARCONTROLLER_Feature.c.o
                0x000f5bdc                ARCONTROLLER_FEATURE_Pro_AddCallback
 .text.ARCONTROLLER_FEATURE_Pro_RemoveCallback
                0x000f5bee       0x12 /home/ncs/CAPSTONE/out/arsdk-native/build/libARController/obj/gen/Sources/ARCONTROLLER_Feature.c.o
                0x000f5bee                ARCONTROLLER_FEATURE_Pro_RemoveCallback
 .text.ARCONTROLLER_FEATURE_Pro_RegisterARCommands
                0x000f5c00       0x68 /home/ncs/CAPSTONE/out/arsdk-native/build/libARController/obj/gen/Sources/ARCONTROLLER_Feature.c.o
                0x000f5c00                ARCONTROLLER_FEATURE_Pro_RegisterARCommands
 .text.ARCONTROLLER_FEATURE_Pro_UnregisterARCommands
                0x000f5c68       0x40 /home/ncs/CAPSTONE/out/arsdk-native/build/libARController/obj/gen/Sources/ARCONTROLLER_Feature.c.o
                0x000f5c68                ARCONTROLLER_FEATURE_Pro_UnregisterARCommands
 .text.ARCONTROLLER_Pro_NewCmdElementProStateSupportedFeatures
                0x000f5ca8      0x7c8 /home/ncs/CAPSTONE/out/arsdk-native/build/libARController/obj/gen/Sources/ARCONTROLLER_Feature.c.o
                0x000f5ca8                ARCONTROLLER_Pro_NewCmdElementProStateSupportedFeatures
 .text.ARCONTROLLER_FEATURE_Pro_ProStateSupportedFeaturesCallback
                0x000f6470      0x40c /home/ncs/CAPSTONE/out/arsdk-native/build/libARController/obj/gen/Sources/ARCONTROLLER_Feature.c.o
                0x000f6470                ARCONTROLLER_FEATURE_Pro_ProStateSupportedFeaturesCallback
 .text.ARCONTROLLER_Pro_NewCmdElementProStateFeaturesActivated
                0x000f687c      0x424 /home/ncs/CAPSTONE/out/arsdk-native/build/libARController/obj/gen/Sources/ARCONTROLLER_Feature.c.o
                0x000f687c                ARCONTROLLER_Pro_NewCmdElementProStateFeaturesActivated
 .text.ARCONTROLLER_FEATURE_Pro_ProStateFeaturesActivatedCallback
                0x000f6ca0      0x408 /home/ncs/CAPSTONE/out/arsdk-native/build/libARController/obj/gen/Sources/ARCONTROLLER_Feature.c.o
                0x000f6ca0                ARCONTROLLER_FEATURE_Pro_ProStateFeaturesActivatedCallback
 .text.ARCONTROLLER_Pro_NewCmdElementProEventChallengeEvent
                0x000f70a8      0x458 /home/ncs/CAPSTONE/out/arsdk-native/build/libARController/obj/gen/Sources/ARCONTROLLER_Feature.c.o
                0x000f70a8                ARCONTROLLER_Pro_NewCmdElementProEventChallengeEvent
 .text.ARCONTROLLER_FEATURE_Pro_ProEventChallengeEventCallback
                0x000f7500      0x3f8 /home/ncs/CAPSTONE/out/arsdk-native/build/libARController/obj/gen/Sources/ARCONTROLLER_Feature.c.o
                0x000f7500                ARCONTROLLER_FEATURE_Pro_ProEventChallengeEventCallback
 .text.ARCONTROLLER_FEATURE_Pro_SetNetworkController
                0x000f78f8       0x12 /home/ncs/CAPSTONE/out/arsdk-native/build/libARController/obj/gen/Sources/ARCONTROLLER_Feature.c.o
                0x000f78f8                ARCONTROLLER_FEATURE_Pro_SetNetworkController
 *fill*         0x000f790a        0x2 
 .text.ARCONTROLLER_Pro_GetCommandElements
                0x000f790c       0xfc /home/ncs/CAPSTONE/out/arsdk-native/build/libARController/obj/gen/Sources/ARCONTROLLER_Feature.c.o
                0x000f790c                ARCONTROLLER_Pro_GetCommandElements
 .text.ARCONTROLLER_FEATURE_Rc_Delete
                0x000f7a08       0x4a /home/ncs/CAPSTONE/out/arsdk-native/build/libARController/obj/gen/Sources/ARCONTROLLER_Feature.c.o
                0x000f7a08                ARCONTROLLER_FEATURE_Rc_Delete
 *fill*         0x000f7a52        0x2 
 .text.ARCONTROLLER_FEATURE_Rc_New
                0x000f7a54       0xa8 /home/ncs/CAPSTONE/out/arsdk-native/build/libARController/obj/gen/Sources/ARCONTROLLER_Feature.c.o
                0x000f7a54                ARCONTROLLER_FEATURE_Rc_New
 .text.ARCONTROLLER_FEATURE_Rc_GetDictionary
                0x000f7afc       0x18 /home/ncs/CAPSTONE/out/arsdk-native/build/libARController/obj/gen/Sources/ARCONTROLLER_Feature.c.o
                0x000f7afc                ARCONTROLLER_FEATURE_Rc_GetDictionary
 .text.ARCONTROLLER_FEATURE_Rc_AddCallback
                0x000f7b14       0x12 /home/ncs/CAPSTONE/out/arsdk-native/build/libARController/obj/gen/Sources/ARCONTROLLER_Feature.c.o
                0x000f7b14                ARCONTROLLER_FEATURE_Rc_AddCallback
 .text.ARCONTROLLER_FEATURE_Rc_RemoveCallback
                0x000f7b26       0x12 /home/ncs/CAPSTONE/out/arsdk-native/build/libARController/obj/gen/Sources/ARCONTROLLER_Feature.c.o
                0x000f7b26                ARCONTROLLER_FEATURE_Rc_RemoveCallback
 .text.ARCONTROLLER_FEATURE_Rc_RegisterARCommands
                0x000f7b38       0x98 /home/ncs/CAPSTONE/out/arsdk-native/build/libARController/obj/gen/Sources/ARCONTROLLER_Feature.c.o
                0x000f7b38                ARCONTROLLER_FEATURE_Rc_RegisterARCommands
 .text.ARCONTROLLER_FEATURE_Rc_UnregisterARCommands
                0x000f7bd0       0x5c /home/ncs/CAPSTONE/out/arsdk-native/build/libARController/obj/gen/Sources/ARCONTROLLER_Feature.c.o
                0x000f7bd0                ARCONTROLLER_FEATURE_Rc_UnregisterARCommands
 .text.ARCONTROLLER_Rc_NewCmdElementReceiverState
                0x000f7c2c      0x800 /home/ncs/CAPSTONE/out/arsdk-native/build/libARController/obj/gen/Sources/ARCONTROLLER_Feature.c.o
                0x000f7c2c                ARCONTROLLER_Rc_NewCmdElementReceiverState
 .text.ARCONTROLLER_FEATURE_Rc_ReceiverStateCallback
                0x000f842c      0x404 /home/ncs/CAPSTONE/out/arsdk-native/build/libARController/obj/gen/Sources/ARCONTROLLER_Feature.c.o
                0x000f842c                ARCONTROLLER_FEATURE_Rc_ReceiverStateCallback
 .text.ARCONTROLLER_Rc_NewCmdElementChannelsMonitorState
                0x000f8830      0x424 /home/ncs/CAPSTONE/out/arsdk-native/build/libARController/obj/gen/Sources/ARCONTROLLER_Feature.c.o
                0x000f8830                ARCONTROLLER_Rc_NewCmdElementChannelsMonitorState
 .text.ARCONTROLLER_FEATURE_Rc_ChannelsMonitorStateCallback
                0x000f8c54      0x3f8 /home/ncs/CAPSTONE/out/arsdk-native/build/libARController/obj/gen/Sources/ARCONTROLLER_Feature.c.o
                0x000f8c54                ARCONTROLLER_FEATURE_Rc_ChannelsMonitorStateCallback
 .text.ARCONTROLLER_Rc_NewCmdElementChannelValue
                0x000f904c      0xba8 /home/ncs/CAPSTONE/out/arsdk-native/build/libARController/obj/gen/Sources/ARCONTROLLER_Feature.c.o
                0x000f904c                ARCONTROLLER_Rc_NewCmdElementChannelValue
 .text.ARCONTROLLER_FEATURE_Rc_ChannelValueCallback
                0x000f9bf4      0x854 /home/ncs/CAPSTONE/out/arsdk-native/build/libARController/obj/gen/Sources/ARCONTROLLER_Feature.c.o
                0x000f9bf4                ARCONTROLLER_FEATURE_Rc_ChannelValueCallback
 .text.ARCONTROLLER_Rc_NewCmdElementCalibrationState
                0x000fa448     0x1a24 /home/ncs/CAPSTONE/out/arsdk-native/build/libARController/obj/gen/Sources/ARCONTROLLER_Feature.c.o
                0x000fa448                ARCONTROLLER_Rc_NewCmdElementCalibrationState
 .text.ARCONTROLLER_FEATURE_Rc_CalibrationStateCallback
                0x000fbe6c      0x414 /home/ncs/CAPSTONE/out/arsdk-native/build/libARController/obj/gen/Sources/ARCONTROLLER_Feature.c.o
                0x000fbe6c                ARCONTROLLER_FEATURE_Rc_CalibrationStateCallback
 .text.ARCONTROLLER_Rc_NewCmdElementReceiverQuality
                0x000fc280      0x424 /home/ncs/CAPSTONE/out/arsdk-native/build/libARController/obj/gen/Sources/ARCONTROLLER_Feature.c.o
                0x000fc280                ARCONTROLLER_Rc_NewCmdElementReceiverQuality
 .text.ARCONTROLLER_FEATURE_Rc_ReceiverQualityCallback
                0x000fc6a4      0x3f8 /home/ncs/CAPSTONE/out/arsdk-native/build/libARController/obj/gen/Sources/ARCONTROLLER_Feature.c.o
                0x000fc6a4                ARCONTROLLER_FEATURE_Rc_ReceiverQualityCallback
 .text.ARCONTROLLER_FEATURE_Rc_SetNetworkController
                0x000fca9c       0x12 /home/ncs/CAPSTONE/out/arsdk-native/build/libARController/obj/gen/Sources/ARCONTROLLER_Feature.c.o
                0x000fca9c                ARCONTROLLER_FEATURE_Rc_SetNetworkController
 *fill*         0x000fcaae        0x2 
 .text.ARCONTROLLER_Rc_GetCommandElements
                0x000fcab0       0xfc /home/ncs/CAPSTONE/out/arsdk-native/build/libARController/obj/gen/Sources/ARCONTROLLER_Feature.c.o
                0x000fcab0                ARCONTROLLER_Rc_GetCommandElements
 .text.ARCONTROLLER_FEATURE_SkyController_Delete
                0x000fcbac       0x4a /home/ncs/CAPSTONE/out/arsdk-native/build/libARController/obj/gen/Sources/ARCONTROLLER_Feature.c.o
                0x000fcbac                ARCONTROLLER_FEATURE_SkyController_Delete
 *fill*         0x000fcbf6        0x2 
 .text.ARCONTROLLER_FEATURE_SkyController_New
                0x000fcbf8      0x1b0 /home/ncs/CAPSTONE/out/arsdk-native/build/libARController/obj/gen/Sources/ARCONTROLLER_Feature.c.o
                0x000fcbf8                ARCONTROLLER_FEATURE_SkyController_New
 .text.ARCONTROLLER_FEATURE_SkyController_GetDictionary
                0x000fcda8       0x18 /home/ncs/CAPSTONE/out/arsdk-native/build/libARController/obj/gen/Sources/ARCONTROLLER_Feature.c.o
                0x000fcda8                ARCONTROLLER_FEATURE_SkyController_GetDictionary
 .text.ARCONTROLLER_FEATURE_SkyController_AddCallback
                0x000fcdc0       0x12 /home/ncs/CAPSTONE/out/arsdk-native/build/libARController/obj/gen/Sources/ARCONTROLLER_Feature.c.o
                0x000fcdc0                ARCONTROLLER_FEATURE_SkyController_AddCallback
 .text.ARCONTROLLER_FEATURE_SkyController_RemoveCallback
                0x000fcdd2       0x12 /home/ncs/CAPSTONE/out/arsdk-native/build/libARController/obj/gen/Sources/ARCONTROLLER_Feature.c.o
                0x000fcdd2                ARCONTROLLER_FEATURE_SkyController_RemoveCallback
 .text.ARCONTROLLER_FEATURE_SkyController_RegisterARCommands
                0x000fcde4      0x3c8 /home/ncs/CAPSTONE/out/arsdk-native/build/libARController/obj/gen/Sources/ARCONTROLLER_Feature.c.o
                0x000fcde4                ARCONTROLLER_FEATURE_SkyController_RegisterARCommands
 .text.ARCONTROLLER_FEATURE_SkyController_UnregisterARCommands
                0x000fd1ac      0x238 /home/ncs/CAPSTONE/out/arsdk-native/build/libARController/obj/gen/Sources/ARCONTROLLER_Feature.c.o
                0x000fd1ac                ARCONTROLLER_FEATURE_SkyController_UnregisterARCommands
 .text.ARCONTROLLER_SkyController_NewCmdElementWifiStateWifiList
                0x000fd3e4     0x1700 /home/ncs/CAPSTONE/out/arsdk-native/build/libARController/obj/gen/Sources/ARCONTROLLER_Feature.c.o
                0x000fd3e4                ARCONTROLLER_SkyController_NewCmdElementWifiStateWifiList
 .text.ARCONTROLLER_FEATURE_SkyController_WifiStateWifiListCallback
                0x000feae4      0x410 /home/ncs/CAPSTONE/out/arsdk-native/build/libARController/obj/gen/Sources/ARCONTROLLER_Feature.c.o
                0x000feae4                ARCONTROLLER_FEATURE_SkyController_WifiStateWifiListCallback
 .text.ARCONTROLLER_SkyController_NewCmdElementWifiStateConnexionChanged
                0x000feef4      0x800 /home/ncs/CAPSTONE/out/arsdk-native/build/libARController/obj/gen/Sources/ARCONTROLLER_Feature.c.o
                0x000feef4                ARCONTROLLER_SkyController_NewCmdElementWifiStateConnexionChanged
 .text.ARCONTROLLER_FEATURE_SkyController_WifiStateConnexionChangedCallback
                0x000ff6f4      0x404 /home/ncs/CAPSTONE/out/arsdk-native/build/libARController/obj/gen/Sources/ARCONTROLLER_Feature.c.o
                0x000ff6f4                ARCONTROLLER_FEATURE_SkyController_WifiStateConnexionChangedCallback
 .text.ARCONTROLLER_SkyController_NewCmdElementWifiStateWifiAuthChannelListChanged
                0x000ffaf8      0xbe8 /home/ncs/CAPSTONE/out/arsdk-native/build/libARController/obj/gen/Sources/ARCONTROLLER_Feature.c.o
                0x000ffaf8                ARCONTROLLER_SkyController_NewCmdElementWifiStateWifiAuthChannelListChanged
 .text.ARCONTROLLER_FEATURE_SkyController_WifiStateWifiAuthChannelListChangedCallback
                0x001006e0      0x420 /home/ncs/CAPSTONE/out/arsdk-native/build/libARController/obj/gen/Sources/ARCONTROLLER_Feature.c.o
                0x001006e0                ARCONTROLLER_FEATURE_SkyController_WifiStateWifiAuthChannelListChangedCallback
 .text.ARCONTROLLER_SkyController_NewCmdElementWifiStateWifiSignalChanged
                0x00100b00      0x424 /home/ncs/CAPSTONE/out/arsdk-native/build/libARController/obj/gen/Sources/ARCONTROLLER_Feature.c.o
                0x00100b00                ARCONTROLLER_SkyController_NewCmdElementWifiStateWifiSignalChanged
 .text.ARCONTROLLER_FEATURE_SkyController_WifiStateWifiSignalChangedCallback
                0x00100f24      0x3f8 /home/ncs/CAPSTONE/out/arsdk-native/build/libARController/obj/gen/Sources/ARCONTROLLER_Feature.c.o
                0x00100f24                ARCONTROLLER_FEATURE_SkyController_WifiStateWifiSignalChangedCallback
 .text.ARCONTROLLER_SkyController_NewCmdElementDeviceStateDeviceList
                0x0010131c      0x4d8 /home/ncs/CAPSTONE/out/arsdk-native/build/libARController/obj/gen/Sources/ARCONTROLLER_Feature.c.o
                0x0010131c                ARCONTROLLER_SkyController_NewCmdElementDeviceStateDeviceList
 .text.ARCONTROLLER_FEATURE_SkyController_DeviceStateDeviceListCallback
                0x001017f4      0x400 /home/ncs/CAPSTONE/out/arsdk-native/build/libARController/obj/gen/Sources/ARCONTROLLER_Feature.c.o
                0x001017f4                ARCONTROLLER_FEATURE_SkyController_DeviceStateDeviceListCallback
 .text.ARCONTROLLER_SkyController_NewCmdElementDeviceStateConnexionChanged
                0x00101bf4      0xb9c /home/ncs/CAPSTONE/out/arsdk-native/build/libARController/obj/gen/Sources/ARCONTROLLER_Feature.c.o
                0x00101bf4                ARCONTROLLER_SkyController_NewCmdElementDeviceStateConnexionChanged
 .text.ARCONTROLLER_FEATURE_SkyController_DeviceStateConnexionChangedCallback
                0x00102790      0x40c /home/ncs/CAPSTONE/out/arsdk-native/build/libARController/obj/gen/Sources/ARCONTROLLER_Feature.c.o
                0x00102790                ARCONTROLLER_FEATURE_SkyController_DeviceStateConnexionChangedCallback
 .text.ARCONTROLLER_SkyController_NewCmdElementSettingsStateProductSerialChanged
                0x00102b9c      0x458 /home/ncs/CAPSTONE/out/arsdk-native/build/libARController/obj/gen/Sources/ARCONTROLLER_Feature.c.o
                0x00102b9c                ARCONTROLLER_SkyController_NewCmdElementSettingsStateProductSerialChanged
 .text.ARCONTROLLER_FEATURE_SkyController_SettingsStateProductSerialChangedCallback
                0x00102ff4      0x3f8 /home/ncs/CAPSTONE/out/arsdk-native/build/libARController/obj/gen/Sources/ARCONTROLLER_Feature.c.o
                0x00102ff4                ARCONTROLLER_FEATURE_SkyController_SettingsStateProductSerialChangedCallback
 .text.ARCONTROLLER_SkyController_NewCmdElementSettingsStateProductVariantChanged
                0x001033ec      0x424 /home/ncs/CAPSTONE/out/arsdk-native/build/libARController/obj/gen/Sources/ARCONTROLLER_Feature.c.o
                0x001033ec                ARCONTROLLER_SkyController_NewCmdElementSettingsStateProductVariantChanged
 .text.ARCONTROLLER_FEATURE_SkyController_SettingsStateProductVariantChangedCallback
                0x00103810      0x3f8 /home/ncs/CAPSTONE/out/arsdk-native/build/libARController/obj/gen/Sources/ARCONTROLLER_Feature.c.o
                0x00103810                ARCONTROLLER_FEATURE_SkyController_SettingsStateProductVariantChangedCallback
 .text.ARCONTROLLER_SkyController_NewCmdElementSettingsStateProductVersionChanged
                0x00103c08      0x830 /home/ncs/CAPSTONE/out/arsdk-native/build/libARController/obj/gen/Sources/ARCONTROLLER_Feature.c.o
                0x00103c08                ARCONTROLLER_SkyController_NewCmdElementSettingsStateProductVersionChanged
 .text.ARCONTROLLER_FEATURE_SkyController_SettingsStateProductVersionChangedCallback
                0x00104438      0x404 /home/ncs/CAPSTONE/out/arsdk-native/build/libARController/obj/gen/Sources/ARCONTROLLER_Feature.c.o
                0x00104438                ARCONTROLLER_FEATURE_SkyController_SettingsStateProductVersionChangedCallback
 .text.ARCONTROLLER_SkyController_NewCmdElementSkyControllerStateBatteryChanged
                0x0010483c      0x424 /home/ncs/CAPSTONE/out/arsdk-native/build/libARController/obj/gen/Sources/ARCONTROLLER_Feature.c.o
                0x0010483c                ARCONTROLLER_SkyController_NewCmdElementSkyControllerStateBatteryChanged
 .text.ARCONTROLLER_FEATURE_SkyController_SkyControllerStateBatteryChangedCallback
                0x00104c60      0x3fc /home/ncs/CAPSTONE/out/arsdk-native/build/libARController/obj/gen/Sources/ARCONTROLLER_Feature.c.o
                0x00104c60                ARCONTROLLER_FEATURE_SkyController_SkyControllerStateBatteryChangedCallback
 .text.ARCONTROLLER_SkyController_NewCmdElementSkyControllerStateGpsFixChanged
                0x0010505c      0x424 /home/ncs/CAPSTONE/out/arsdk-native/build/libARController/obj/gen/Sources/ARCONTROLLER_Feature.c.o
                0x0010505c                ARCONTROLLER_SkyController_NewCmdElementSkyControllerStateGpsFixChanged
 .text.ARCONTROLLER_FEATURE_SkyController_SkyControllerStateGpsFixChangedCallback
                0x00105480      0x3fc /home/ncs/CAPSTONE/out/arsdk-native/build/libARController/obj/gen/Sources/ARCONTROLLER_Feature.c.o
                0x00105480                ARCONTROLLER_FEATURE_SkyController_SkyControllerStateGpsFixChangedCallback
 .text.ARCONTROLLER_SkyController_NewCmdElementSkyControllerStateGpsPositionChanged
                0x0010587c      0xf20 /home/ncs/CAPSTONE/out/arsdk-native/build/libARController/obj/gen/Sources/ARCONTROLLER_Feature.c.o
                0x0010587c                ARCONTROLLER_SkyController_NewCmdElementSkyControllerStateGpsPositionChanged
 .text.ARCONTROLLER_FEATURE_SkyController_SkyControllerStateGpsPositionChangedCallback
                0x0010679c      0x41c /home/ncs/CAPSTONE/out/arsdk-native/build/libARController/obj/gen/Sources/ARCONTROLLER_Feature.c.o
                0x0010679c                ARCONTROLLER_FEATURE_SkyController_SkyControllerStateGpsPositionChangedCallback
 .text.ARCONTROLLER_SkyController_NewCmdElementSkyControllerStateBatteryState
                0x00106bb8      0x424 /home/ncs/CAPSTONE/out/arsdk-native/build/libARController/obj/gen/Sources/ARCONTROLLER_Feature.c.o
                0x00106bb8                ARCONTROLLER_SkyController_NewCmdElementSkyControllerStateBatteryState
 .text.ARCONTROLLER_FEATURE_SkyController_SkyControllerStateBatteryStateCallback
                0x00106fdc      0x3fc /home/ncs/CAPSTONE/out/arsdk-native/build/libARController/obj/gen/Sources/ARCONTROLLER_Feature.c.o
                0x00106fdc                ARCONTROLLER_FEATURE_SkyController_SkyControllerStateBatteryStateCallback
 .text.ARCONTROLLER_SkyController_NewCmdElementSkyControllerStateAttitudeChanged
                0x001073d8      0xf20 /home/ncs/CAPSTONE/out/arsdk-native/build/libARController/obj/gen/Sources/ARCONTROLLER_Feature.c.o
                0x001073d8                ARCONTROLLER_SkyController_NewCmdElementSkyControllerStateAttitudeChanged
 .text.ARCONTROLLER_FEATURE_SkyController_SkyControllerStateAttitudeChangedCallback
                0x001082f8      0x41c /home/ncs/CAPSTONE/out/arsdk-native/build/libARController/obj/gen/Sources/ARCONTROLLER_Feature.c.o
                0x001082f8                ARCONTROLLER_FEATURE_SkyController_SkyControllerStateAttitudeChangedCallback
 .text.ARCONTROLLER_SkyController_NewCmdElementAccessPointSettingsStateAccessPointSSIDChanged
                0x00108714      0x458 /home/ncs/CAPSTONE/out/arsdk-native/build/libARController/obj/gen/Sources/ARCONTROLLER_Feature.c.o
                0x00108714                ARCONTROLLER_SkyController_NewCmdElementAccessPointSettingsStateAccessPointSSIDChanged
 .text.ARCONTROLLER_FEATURE_SkyController_AccessPointSettingsStateAccessPointSSIDChangedCallback
                0x00108b6c      0x3fc /home/ncs/CAPSTONE/out/arsdk-native/build/libARController/obj/gen/Sources/ARCONTROLLER_Feature.c.o
                0x00108b6c                ARCONTROLLER_FEATURE_SkyController_AccessPointSettingsStateAccessPointSSIDChangedCallback
 .text.ARCONTROLLER_SkyController_NewCmdElementAccessPointSettingsStateAccessPointChannelChanged
                0x00108f68      0x424 /home/ncs/CAPSTONE/out/arsdk-native/build/libARController/obj/gen/Sources/ARCONTROLLER_Feature.c.o
                0x00108f68                ARCONTROLLER_SkyController_NewCmdElementAccessPointSettingsStateAccessPointChannelChanged
 .text.ARCONTROLLER_FEATURE_SkyController_AccessPointSettingsStateAccessPointChannelChangedCallback
                0x0010938c      0x3fc /home/ncs/CAPSTONE/out/arsdk-native/build/libARController/obj/gen/Sources/ARCONTROLLER_Feature.c.o
                0x0010938c                ARCONTROLLER_FEATURE_SkyController_AccessPointSettingsStateAccessPointChannelChangedCallback
 .text.ARCONTROLLER_SkyController_NewCmdElementAccessPointSettingsStateWifiSelectionChanged
                0x00109788      0xb60 /home/ncs/CAPSTONE/out/arsdk-native/build/libARController/obj/gen/Sources/ARCONTROLLER_Feature.c.o
                0x00109788                ARCONTROLLER_SkyController_NewCmdElementAccessPointSettingsStateWifiSelectionChanged
 .text.ARCONTROLLER_FEATURE_SkyController_AccessPointSettingsStateWifiSelectionChangedCallback
                0x0010a2e8      0x410 /home/ncs/CAPSTONE/out/arsdk-native/build/libARController/obj/gen/Sources/ARCONTROLLER_Feature.c.o
                0x0010a2e8                ARCONTROLLER_FEATURE_SkyController_AccessPointSettingsStateWifiSelectionChangedCallback
 .text.ARCONTROLLER_SkyController_NewCmdElementGamepadInfosStateGamepadControl
                0x0010a6f8      0xc38 /home/ncs/CAPSTONE/out/arsdk-native/build/libARController/obj/gen/Sources/ARCONTROLLER_Feature.c.o
                0x0010a6f8                ARCONTROLLER_SkyController_NewCmdElementGamepadInfosStateGamepadControl
 .text.ARCONTROLLER_FEATURE_SkyController_GamepadInfosStateGamepadControlCallback
                0x0010b330      0x424 /home/ncs/CAPSTONE/out/arsdk-native/build/libARController/obj/gen/Sources/ARCONTROLLER_Feature.c.o
                0x0010b330                ARCONTROLLER_FEATURE_SkyController_GamepadInfosStateGamepadControlCallback
 .text.ARCONTROLLER_SkyController_NewCmdElementButtonMappingsStateCurrentButtonMappings
                0x0010b754      0x848 /home/ncs/CAPSTONE/out/arsdk-native/build/libARController/obj/gen/Sources/ARCONTROLLER_Feature.c.o
                0x0010b754                ARCONTROLLER_SkyController_NewCmdElementButtonMappingsStateCurrentButtonMappings
 .text.ARCONTROLLER_FEATURE_SkyController_ButtonMappingsStateCurrentButtonMappingsCallback
                0x0010bf9c      0x408 /home/ncs/CAPSTONE/out/arsdk-native/build/libARController/obj/gen/Sources/ARCONTROLLER_Feature.c.o
                0x0010bf9c                ARCONTROLLER_FEATURE_SkyController_ButtonMappingsStateCurrentButtonMappingsCallback
 .text.ARCONTROLLER_SkyController_NewCmdElementButtonMappingsStateAvailableButtonMappings
                0x0010c3a4      0x81c /home/ncs/CAPSTONE/out/arsdk-native/build/libARController/obj/gen/Sources/ARCONTROLLER_Feature.c.o
                0x0010c3a4                ARCONTROLLER_SkyController_NewCmdElementButtonMappingsStateAvailableButtonMappings
 .text.ARCONTROLLER_FEATURE_SkyController_ButtonMappingsStateAvailableButtonMappingsCallback
                0x0010cbc0      0x408 /home/ncs/CAPSTONE/out/arsdk-native/build/libARController/obj/gen/Sources/ARCONTROLLER_Feature.c.o
                0x0010cbc0                ARCONTROLLER_FEATURE_SkyController_ButtonMappingsStateAvailableButtonMappingsCallback
 .text.ARCONTROLLER_SkyController_NewCmdElementAxisMappingsStateCurrentAxisMappings
                0x0010cfc8      0x848 /home/ncs/CAPSTONE/out/arsdk-native/build/libARController/obj/gen/Sources/ARCONTROLLER_Feature.c.o
                0x0010cfc8                ARCONTROLLER_SkyController_NewCmdElementAxisMappingsStateCurrentAxisMappings
 .text.ARCONTROLLER_FEATURE_SkyController_AxisMappingsStateCurrentAxisMappingsCallback
                0x0010d810      0x408 /home/ncs/CAPSTONE/out/arsdk-native/build/libARController/obj/gen/Sources/ARCONTROLLER_Feature.c.o
                0x0010d810                ARCONTROLLER_FEATURE_SkyController_AxisMappingsStateCurrentAxisMappingsCallback
 .text.ARCONTROLLER_SkyController_NewCmdElementAxisMappingsStateAvailableAxisMappings
                0x0010dc18      0x81c /home/ncs/CAPSTONE/out/arsdk-native/build/libARController/obj/gen/Sources/ARCONTROLLER_Feature.c.o
                0x0010dc18                ARCONTROLLER_SkyController_NewCmdElementAxisMappingsStateAvailableAxisMappings
 .text.ARCONTROLLER_FEATURE_SkyController_AxisMappingsStateAvailableAxisMappingsCallback
                0x0010e434      0x408 /home/ncs/CAPSTONE/out/arsdk-native/build/libARController/obj/gen/Sources/ARCONTROLLER_Feature.c.o
                0x0010e434                ARCONTROLLER_FEATURE_SkyController_AxisMappingsStateAvailableAxisMappingsCallback
 .text.ARCONTROLLER_SkyController_NewCmdElementAxisFiltersStateCurrentAxisFilters
                0x0010e83c      0x848 /home/ncs/CAPSTONE/out/arsdk-native/build/libARController/obj/gen/Sources/ARCONTROLLER_Feature.c.o
                0x0010e83c                ARCONTROLLER_SkyController_NewCmdElementAxisFiltersStateCurrentAxisFilters
 .text.ARCONTROLLER_FEATURE_SkyController_AxisFiltersStateCurrentAxisFiltersCallback
                0x0010f084      0x408 /home/ncs/CAPSTONE/out/arsdk-native/build/libARController/obj/gen/Sources/ARCONTROLLER_Feature.c.o
                0x0010f084                ARCONTROLLER_FEATURE_SkyController_AxisFiltersStateCurrentAxisFiltersCallback
 .text.ARCONTROLLER_SkyController_NewCmdElementAxisFiltersStatePresetAxisFilters
                0x0010f48c      0x81c /home/ncs/CAPSTONE/out/arsdk-native/build/libARController/obj/gen/Sources/ARCONTROLLER_Feature.c.o
                0x0010f48c                ARCONTROLLER_SkyController_NewCmdElementAxisFiltersStatePresetAxisFilters
 .text.ARCONTROLLER_FEATURE_SkyController_AxisFiltersStatePresetAxisFiltersCallback
                0x0010fca8      0x408 /home/ncs/CAPSTONE/out/arsdk-native/build/libARController/obj/gen/Sources/ARCONTROLLER_Feature.c.o
                0x0010fca8                ARCONTROLLER_FEATURE_SkyController_AxisFiltersStatePresetAxisFiltersCallback
 .text.ARCONTROLLER_SkyController_NewCmdElementCoPilotingStatePilotingSource
                0x001100b0      0x424 /home/ncs/CAPSTONE/out/arsdk-native/build/libARController/obj/gen/Sources/ARCONTROLLER_Feature.c.o
                0x001100b0                ARCONTROLLER_SkyController_NewCmdElementCoPilotingStatePilotingSource
 .text.ARCONTROLLER_FEATURE_SkyController_CoPilotingStatePilotingSourceCallback
                0x001104d4      0x3fc /home/ncs/CAPSTONE/out/arsdk-native/build/libARController/obj/gen/Sources/ARCONTROLLER_Feature.c.o
                0x001104d4                ARCONTROLLER_FEATURE_SkyController_CoPilotingStatePilotingSourceCallback
 .text.ARCONTROLLER_SkyController_NewCmdElementCalibrationStateMagnetoCalibrationState
                0x001108d0      0xf08 /home/ncs/CAPSTONE/out/arsdk-native/build/libARController/obj/gen/Sources/ARCONTROLLER_Feature.c.o
                0x001108d0                ARCONTROLLER_SkyController_NewCmdElementCalibrationStateMagnetoCalibrationState
 .text.ARCONTROLLER_FEATURE_SkyController_CalibrationStateMagnetoCalibrationStateCallback
                0x001117d8      0x40c /home/ncs/CAPSTONE/out/arsdk-native/build/libARController/obj/gen/Sources/ARCONTROLLER_Feature.c.o
                0x001117d8                ARCONTROLLER_FEATURE_SkyController_CalibrationStateMagnetoCalibrationStateCallback
 .text.ARCONTROLLER_SkyController_NewCmdElementCalibrationStateMagnetoCalibrationQualityUpdatesState
                0x00111be4      0x424 /home/ncs/CAPSTONE/out/arsdk-native/build/libARController/obj/gen/Sources/ARCONTROLLER_Feature.c.o
                0x00111be4                ARCONTROLLER_SkyController_NewCmdElementCalibrationStateMagnetoCalibrationQualityUpdatesState
 .text.ARCONTROLLER_FEATURE_SkyController_CalibrationStateMagnetoCalibrationQualityUpdatesStateCallback
                0x00112008      0x3fc /home/ncs/CAPSTONE/out/arsdk-native/build/libARController/obj/gen/Sources/ARCONTROLLER_Feature.c.o
                0x00112008                ARCONTROLLER_FEATURE_SkyController_CalibrationStateMagnetoCalibrationQualityUpdatesStateCallback
 .text.ARCONTROLLER_SkyController_NewCmdElementButtonEventsSettings
                0x00112404       0x78 /home/ncs/CAPSTONE/out/arsdk-native/build/libARController/obj/gen/Sources/ARCONTROLLER_Feature.c.o
                0x00112404                ARCONTROLLER_SkyController_NewCmdElementButtonEventsSettings
 .text.ARCONTROLLER_SkyController_NewCmdElementAxisFiltersStateAllPresetFiltersSent
                0x0011247c        0x4 /home/ncs/CAPSTONE/out/arsdk-native/build/libARController/obj/gen/Sources/ARCONTROLLER_Feature.c.o
                0x0011247c                ARCONTROLLER_SkyController_NewCmdElementAxisFiltersStateAllPresetFiltersSent
 .text.ARCONTROLLER_FEATURE_SkyController_AxisFiltersStateAllPresetFiltersSentCallback
                0x00112480      0x3f4 /home/ncs/CAPSTONE/out/arsdk-native/build/libARController/obj/gen/Sources/ARCONTROLLER_Feature.c.o
                0x00112480                ARCONTROLLER_FEATURE_SkyController_AxisFiltersStateAllPresetFiltersSentCallback
 .text.ARCONTROLLER_SkyController_NewCmdElementAxisFiltersStateAllCurrentFiltersSent
                0x00112874        0x4 /home/ncs/CAPSTONE/out/arsdk-native/build/libARController/obj/gen/Sources/ARCONTROLLER_Feature.c.o
                0x00112874                ARCONTROLLER_SkyController_NewCmdElementAxisFiltersStateAllCurrentFiltersSent
 .text.ARCONTROLLER_FEATURE_SkyController_AxisFiltersStateAllCurrentFiltersSentCallback
                0x00112878      0x3f4 /home/ncs/CAPSTONE/out/arsdk-native/build/libARController/obj/gen/Sources/ARCONTROLLER_Feature.c.o
                0x00112878                ARCONTROLLER_FEATURE_SkyController_AxisFiltersStateAllCurrentFiltersSentCallback
 .text.ARCONTROLLER_SkyController_NewCmdElementAxisMappingsStateAllAvailableAxisMappingsSent
                0x00112c6c        0x4 /home/ncs/CAPSTONE/out/arsdk-native/build/libARController/obj/gen/Sources/ARCONTROLLER_Feature.c.o
                0x00112c6c                ARCONTROLLER_SkyController_NewCmdElementAxisMappingsStateAllAvailableAxisMappingsSent
 .text.ARCONTROLLER_FEATURE_SkyController_AxisMappingsStateAllAvailableAxisMappingsSentCallback
                0x00112c70      0x3f4 /home/ncs/CAPSTONE/out/arsdk-native/build/libARController/obj/gen/Sources/ARCONTROLLER_Feature.c.o
                0x00112c70                ARCONTROLLER_FEATURE_SkyController_AxisMappingsStateAllAvailableAxisMappingsSentCallback
 .text.ARCONTROLLER_SkyController_NewCmdElementAxisMappingsStateAllCurrentAxisMappingsSent
                0x00113064        0x4 /home/ncs/CAPSTONE/out/arsdk-native/build/libARController/obj/gen/Sources/ARCONTROLLER_Feature.c.o
                0x00113064                ARCONTROLLER_SkyController_NewCmdElementAxisMappingsStateAllCurrentAxisMappingsSent
 .text.ARCONTROLLER_FEATURE_SkyController_AxisMappingsStateAllCurrentAxisMappingsSentCallback
                0x00113068      0x3f4 /home/ncs/CAPSTONE/out/arsdk-native/build/libARController/obj/gen/Sources/ARCONTROLLER_Feature.c.o
                0x00113068                ARCONTROLLER_FEATURE_SkyController_AxisMappingsStateAllCurrentAxisMappingsSentCallback
 .text.ARCONTROLLER_SkyController_NewCmdElementButtonMappingsStateAllAvailableButtonsMappingsSent
                0x0011345c        0x4 /home/ncs/CAPSTONE/out/arsdk-native/build/libARController/obj/gen/Sources/ARCONTROLLER_Feature.c.o
                0x0011345c                ARCONTROLLER_SkyController_NewCmdElementButtonMappingsStateAllAvailableButtonsMappingsSent
 .text.ARCONTROLLER_FEATURE_SkyController_ButtonMappingsStateAllAvailableButtonsMappingsSentCallback
                0x00113460      0x3f4 /home/ncs/CAPSTONE/out/arsdk-native/build/libARController/obj/gen/Sources/ARCONTROLLER_Feature.c.o
                0x00113460                ARCONTROLLER_FEATURE_SkyController_ButtonMappingsStateAllAvailableButtonsMappingsSentCallback
 .text.ARCONTROLLER_SkyController_NewCmdElementButtonMappingsStateAllCurrentButtonMappingsSent
                0x00113854        0x4 /home/ncs/CAPSTONE/out/arsdk-native/build/libARController/obj/gen/Sources/ARCONTROLLER_Feature.c.o
                0x00113854                ARCONTROLLER_SkyController_NewCmdElementButtonMappingsStateAllCurrentButtonMappingsSent
 .text.ARCONTROLLER_FEATURE_SkyController_ButtonMappingsStateAllCurrentButtonMappingsSentCallback
                0x00113858      0x3f4 /home/ncs/CAPSTONE/out/arsdk-native/build/libARController/obj/gen/Sources/ARCONTROLLER_Feature.c.o
                0x00113858                ARCONTROLLER_FEATURE_SkyController_ButtonMappingsStateAllCurrentButtonMappingsSentCallback
 .text.ARCONTROLLER_SkyController_NewCmdElementGamepadInfosStateAllGamepadControlsSent
                0x00113c4c        0x4 /home/ncs/CAPSTONE/out/arsdk-native/build/libARController/obj/gen/Sources/ARCONTROLLER_Feature.c.o
                0x00113c4c                ARCONTROLLER_SkyController_NewCmdElementGamepadInfosStateAllGamepadControlsSent
 .text.ARCONTROLLER_FEATURE_SkyController_GamepadInfosStateAllGamepadControlsSentCallback
                0x00113c50      0x3f4 /home/ncs/CAPSTONE/out/arsdk-native/build/libARController/obj/gen/Sources/ARCONTROLLER_Feature.c.o
                0x00113c50                ARCONTROLLER_FEATURE_SkyController_GamepadInfosStateAllGamepadControlsSentCallback
 .text.ARCONTROLLER_SkyController_NewCmdElementCommonStateAllStatesChanged
                0x00114044        0x4 /home/ncs/CAPSTONE/out/arsdk-native/build/libARController/obj/gen/Sources/ARCONTROLLER_Feature.c.o
                0x00114044                ARCONTROLLER_SkyController_NewCmdElementCommonStateAllStatesChanged
 .text.ARCONTROLLER_FEATURE_SkyController_CommonStateAllStatesChangedCallback
                0x00114048      0x3f4 /home/ncs/CAPSTONE/out/arsdk-native/build/libARController/obj/gen/Sources/ARCONTROLLER_Feature.c.o
                0x00114048                ARCONTROLLER_FEATURE_SkyController_CommonStateAllStatesChangedCallback
 .text.ARCONTROLLER_SkyController_NewCmdElementSettingsStateResetChanged
                0x0011443c        0x4 /home/ncs/CAPSTONE/out/arsdk-native/build/libARController/obj/gen/Sources/ARCONTROLLER_Feature.c.o
                0x0011443c                ARCONTROLLER_SkyController_NewCmdElementSettingsStateResetChanged
 .text.ARCONTROLLER_FEATURE_SkyController_SettingsStateResetChangedCallback
                0x00114440      0x3f0 /home/ncs/CAPSTONE/out/arsdk-native/build/libARController/obj/gen/Sources/ARCONTROLLER_Feature.c.o
                0x00114440                ARCONTROLLER_FEATURE_SkyController_SettingsStateResetChangedCallback
 .text.ARCONTROLLER_SkyController_NewCmdElementSettingsStateAllSettingsChanged
                0x00114830        0x4 /home/ncs/CAPSTONE/out/arsdk-native/build/libARController/obj/gen/Sources/ARCONTROLLER_Feature.c.o
                0x00114830                ARCONTROLLER_SkyController_NewCmdElementSettingsStateAllSettingsChanged
 .text.ARCONTROLLER_FEATURE_SkyController_SettingsStateAllSettingsChangedCallback
                0x00114834      0x3f0 /home/ncs/CAPSTONE/out/arsdk-native/build/libARController/obj/gen/Sources/ARCONTROLLER_Feature.c.o
                0x00114834                ARCONTROLLER_FEATURE_SkyController_SettingsStateAllSettingsChangedCallback
 .text.ARCONTROLLER_SkyController_NewCmdElementWifiStateAllWifiAuthChannelChanged
                0x00114c24        0x4 /home/ncs/CAPSTONE/out/arsdk-native/build/libARController/obj/gen/Sources/ARCONTROLLER_Feature.c.o
                0x00114c24                ARCONTROLLER_SkyController_NewCmdElementWifiStateAllWifiAuthChannelChanged
 .text.ARCONTROLLER_FEATURE_SkyController_WifiStateAllWifiAuthChannelChangedCallback
                0x00114c28      0x3f0 /home/ncs/CAPSTONE/out/arsdk-native/build/libARController/obj/gen/Sources/ARCONTROLLER_Feature.c.o
                0x00114c28                ARCONTROLLER_FEATURE_SkyController_WifiStateAllWifiAuthChannelChangedCallback
 .text.ARCONTROLLER_FEATURE_SkyController_ButtonEventsSettingsCallback
                0x00115018      0x3f4 /home/ncs/CAPSTONE/out/arsdk-native/build/libARController/obj/gen/Sources/ARCONTROLLER_Feature.c.o
                0x00115018                ARCONTROLLER_FEATURE_SkyController_ButtonEventsSettingsCallback
 .text.ARCONTROLLER_FEATURE_SkyController_SetNetworkController
                0x0011540c       0x12 /home/ncs/CAPSTONE/out/arsdk-native/build/libARController/obj/gen/Sources/ARCONTROLLER_Feature.c.o
                0x0011540c                ARCONTROLLER_FEATURE_SkyController_SetNetworkController
 *fill*         0x0011541e        0x2 
 .text.ARCONTROLLER_SkyController_GetCommandElements
                0x00115420       0xfc /home/ncs/CAPSTONE/out/arsdk-native/build/libARController/obj/gen/Sources/ARCONTROLLER_Feature.c.o
                0x00115420                ARCONTROLLER_SkyController_GetCommandElements
 .text.ARCONTROLLER_FEATURE_UnknownFeature1_Delete
                0x0011551c       0x4a /home/ncs/CAPSTONE/out/arsdk-native/build/libARController/obj/gen/Sources/ARCONTROLLER_Feature.c.o
                0x0011551c                ARCONTROLLER_FEATURE_UnknownFeature1_Delete
 *fill*         0x00115566        0x2 
 .text.ARCONTROLLER_FEATURE_UnknownFeature1_New
                0x00115568       0xf0 /home/ncs/CAPSTONE/out/arsdk-native/build/libARController/obj/gen/Sources/ARCONTROLLER_Feature.c.o
                0x00115568                ARCONTROLLER_FEATURE_UnknownFeature1_New
 .text.ARCONTROLLER_FEATURE_UnknownFeature1_GetDictionary
                0x00115658       0x18 /home/ncs/CAPSTONE/out/arsdk-native/build/libARController/obj/gen/Sources/ARCONTROLLER_Feature.c.o
                0x00115658                ARCONTROLLER_FEATURE_UnknownFeature1_GetDictionary
 .text.ARCONTROLLER_FEATURE_UnknownFeature1_AddCallback
                0x00115670       0x12 /home/ncs/CAPSTONE/out/arsdk-native/build/libARController/obj/gen/Sources/ARCONTROLLER_Feature.c.o
                0x00115670                ARCONTROLLER_FEATURE_UnknownFeature1_AddCallback
 .text.ARCONTROLLER_FEATURE_UnknownFeature1_RemoveCallback
                0x00115682       0x12 /home/ncs/CAPSTONE/out/arsdk-native/build/libARController/obj/gen/Sources/ARCONTROLLER_Feature.c.o
                0x00115682                ARCONTROLLER_FEATURE_UnknownFeature1_RemoveCallback
 .text.ARCONTROLLER_FEATURE_UnknownFeature1_RegisterARCommands
                0x00115694      0x128 /home/ncs/CAPSTONE/out/arsdk-native/build/libARController/obj/gen/Sources/ARCONTROLLER_Feature.c.o
                0x00115694                ARCONTROLLER_FEATURE_UnknownFeature1_RegisterARCommands
 .text.ARCONTROLLER_FEATURE_UnknownFeature1_UnregisterARCommands
                0x001157bc       0xb0 /home/ncs/CAPSTONE/out/arsdk-native/build/libARController/obj/gen/Sources/ARCONTROLLER_Feature.c.o
                0x001157bc                ARCONTROLLER_FEATURE_UnknownFeature1_UnregisterARCommands
 .text.ARCONTROLLER_UnknownFeature1_NewCmdElementAvailability
                0x0011586c      0x424 /home/ncs/CAPSTONE/out/arsdk-native/build/libARController/obj/gen/Sources/ARCONTROLLER_Feature.c.o
                0x0011586c                ARCONTROLLER_UnknownFeature1_NewCmdElementAvailability
 .text.ARCONTROLLER_FEATURE_UnknownFeature1_AvailabilityCallback
                0x00115c90      0x3fc /home/ncs/CAPSTONE/out/arsdk-native/build/libARController/obj/gen/Sources/ARCONTROLLER_Feature.c.o
                0x00115c90                ARCONTROLLER_FEATURE_UnknownFeature1_AvailabilityCallback
 .text.ARCONTROLLER_UnknownFeature1_NewCmdElementRun
                0x0011608c      0x424 /home/ncs/CAPSTONE/out/arsdk-native/build/libARController/obj/gen/Sources/ARCONTROLLER_Feature.c.o
                0x0011608c                ARCONTROLLER_UnknownFeature1_NewCmdElementRun
 .text.ARCONTROLLER_FEATURE_UnknownFeature1_RunCallback
                0x001164b0      0x3fc /home/ncs/CAPSTONE/out/arsdk-native/build/libARController/obj/gen/Sources/ARCONTROLLER_Feature.c.o
                0x001164b0                ARCONTROLLER_FEATURE_UnknownFeature1_RunCallback
 .text.ARCONTROLLER_UnknownFeature1_NewCmdElementGeographicConfigChanged
                0x001168ac     0x167c /home/ncs/CAPSTONE/out/arsdk-native/build/libARController/obj/gen/Sources/ARCONTROLLER_Feature.c.o
                0x001168ac                ARCONTROLLER_UnknownFeature1_NewCmdElementGeographicConfigChanged
 .text.ARCONTROLLER_FEATURE_UnknownFeature1_GeographicConfigChangedCallback
                0x00117f28      0x430 /home/ncs/CAPSTONE/out/arsdk-native/build/libARController/obj/gen/Sources/ARCONTROLLER_Feature.c.o
                0x00117f28                ARCONTROLLER_FEATURE_UnknownFeature1_GeographicConfigChangedCallback
 .text.ARCONTROLLER_UnknownFeature1_NewCmdElementRelativeConfigChanged
                0x00118358     0x167c /home/ncs/CAPSTONE/out/arsdk-native/build/libARController/obj/gen/Sources/ARCONTROLLER_Feature.c.o
                0x00118358                ARCONTROLLER_UnknownFeature1_NewCmdElementRelativeConfigChanged
 .text.ARCONTROLLER_FEATURE_UnknownFeature1_RelativeConfigChangedCallback
                0x001199d4      0x430 /home/ncs/CAPSTONE/out/arsdk-native/build/libARController/obj/gen/Sources/ARCONTROLLER_Feature.c.o
                0x001199d4                ARCONTROLLER_FEATURE_UnknownFeature1_RelativeConfigChangedCallback
 .text.ARCONTROLLER_UnknownFeature1_NewCmdElementAnimRun
                0x00119e04      0x424 /home/ncs/CAPSTONE/out/arsdk-native/build/libARController/obj/gen/Sources/ARCONTROLLER_Feature.c.o
                0x00119e04                ARCONTROLLER_UnknownFeature1_NewCmdElementAnimRun
 .text.ARCONTROLLER_FEATURE_UnknownFeature1_AnimRunCallback
                0x0011a228      0x3fc /home/ncs/CAPSTONE/out/arsdk-native/build/libARController/obj/gen/Sources/ARCONTROLLER_Feature.c.o
                0x0011a228                ARCONTROLLER_FEATURE_UnknownFeature1_AnimRunCallback
 .text.ARCONTROLLER_UnknownFeature1_NewCmdElementSpiralAnimConfigChanged
                0x0011a624     0x167c /home/ncs/CAPSTONE/out/arsdk-native/build/libARController/obj/gen/Sources/ARCONTROLLER_Feature.c.o
                0x0011a624                ARCONTROLLER_UnknownFeature1_NewCmdElementSpiralAnimConfigChanged
 .text.ARCONTROLLER_FEATURE_UnknownFeature1_SpiralAnimConfigChangedCallback
                0x0011bca0      0x430 /home/ncs/CAPSTONE/out/arsdk-native/build/libARController/obj/gen/Sources/ARCONTROLLER_Feature.c.o
                0x0011bca0                ARCONTROLLER_FEATURE_UnknownFeature1_SpiralAnimConfigChangedCallback
 .text.ARCONTROLLER_UnknownFeature1_NewCmdElementSwingAnimConfigChanged
                0x0011c0d0      0xf10 /home/ncs/CAPSTONE/out/arsdk-native/build/libARController/obj/gen/Sources/ARCONTROLLER_Feature.c.o
                0x0011c0d0                ARCONTROLLER_UnknownFeature1_NewCmdElementSwingAnimConfigChanged
 .text.ARCONTROLLER_FEATURE_UnknownFeature1_SwingAnimConfigChangedCallback
                0x0011cfe0      0x420 /home/ncs/CAPSTONE/out/arsdk-native/build/libARController/obj/gen/Sources/ARCONTROLLER_Feature.c.o
                0x0011cfe0                ARCONTROLLER_FEATURE_UnknownFeature1_SwingAnimConfigChangedCallback
 .text.ARCONTROLLER_UnknownFeature1_NewCmdElementBoomerangAnimConfigChanged
                0x0011d400      0xf10 /home/ncs/CAPSTONE/out/arsdk-native/build/libARController/obj/gen/Sources/ARCONTROLLER_Feature.c.o
                0x0011d400                ARCONTROLLER_UnknownFeature1_NewCmdElementBoomerangAnimConfigChanged
 .text.ARCONTROLLER_FEATURE_UnknownFeature1_BoomerangAnimConfigChangedCallback
                0x0011e310      0x420 /home/ncs/CAPSTONE/out/arsdk-native/build/libARController/obj/gen/Sources/ARCONTROLLER_Feature.c.o
                0x0011e310                ARCONTROLLER_FEATURE_UnknownFeature1_BoomerangAnimConfigChangedCallback
 .text.ARCONTROLLER_UnknownFeature1_NewCmdElementCandleAnimConfigChanged
                0x0011e730      0xf10 /home/ncs/CAPSTONE/out/arsdk-native/build/libARController/obj/gen/Sources/ARCONTROLLER_Feature.c.o
                0x0011e730                ARCONTROLLER_UnknownFeature1_NewCmdElementCandleAnimConfigChanged
 .text.ARCONTROLLER_FEATURE_UnknownFeature1_CandleAnimConfigChangedCallback
                0x0011f640      0x420 /home/ncs/CAPSTONE/out/arsdk-native/build/libARController/obj/gen/Sources/ARCONTROLLER_Feature.c.o
                0x0011f640                ARCONTROLLER_FEATURE_UnknownFeature1_CandleAnimConfigChangedCallback
 .text.ARCONTROLLER_UnknownFeature1_NewCmdElementDollySlideAnimConfigChanged
                0x0011fa60     0x167c /home/ncs/CAPSTONE/out/arsdk-native/build/libARController/obj/gen/Sources/ARCONTROLLER_Feature.c.o
                0x0011fa60                ARCONTROLLER_UnknownFeature1_NewCmdElementDollySlideAnimConfigChanged
 .text.ARCONTROLLER_FEATURE_UnknownFeature1_DollySlideAnimConfigChangedCallback
                0x001210dc      0x430 /home/ncs/CAPSTONE/out/arsdk-native/build/libARController/obj/gen/Sources/ARCONTROLLER_Feature.c.o
                0x001210dc                ARCONTROLLER_FEATURE_UnknownFeature1_DollySlideAnimConfigChangedCallback
 .text.ARCONTROLLER_UnknownFeature1_NewCmdElementUserFramingPositionChanged
                0x0012150c      0x7c8 /home/ncs/CAPSTONE/out/arsdk-native/build/libARController/obj/gen/Sources/ARCONTROLLER_Feature.c.o
                0x0012150c                ARCONTROLLER_UnknownFeature1_NewCmdElementUserFramingPositionChanged
 .text.ARCONTROLLER_FEATURE_UnknownFeature1_UserFramingPositionChangedCallback
                0x00121cd4      0x408 /home/ncs/CAPSTONE/out/arsdk-native/build/libARController/obj/gen/Sources/ARCONTROLLER_Feature.c.o
                0x00121cd4                ARCONTROLLER_FEATURE_UnknownFeature1_UserFramingPositionChangedCallback
 .text.ARCONTROLLER_FEATURE_UnknownFeature1_SetNetworkController
                0x001220dc       0x12 /home/ncs/CAPSTONE/out/arsdk-native/build/libARController/obj/gen/Sources/ARCONTROLLER_Feature.c.o
                0x001220dc                ARCONTROLLER_FEATURE_UnknownFeature1_SetNetworkController
 *fill*         0x001220ee        0x2 
 .text.ARCONTROLLER_UnknownFeature1_GetCommandElements
                0x001220f0       0xfc /home/ncs/CAPSTONE/out/arsdk-native/build/libARController/obj/gen/Sources/ARCONTROLLER_Feature.c.o
                0x001220f0                ARCONTROLLER_UnknownFeature1_GetCommandElements
 .text.ARCONTROLLER_FEATURE_Wifi_Delete
                0x001221ec       0x4a /home/ncs/CAPSTONE/out/arsdk-native/build/libARController/obj/gen/Sources/ARCONTROLLER_Feature.c.o
                0x001221ec                ARCONTROLLER_FEATURE_Wifi_Delete
 *fill*         0x00122236        0x2 
 .text.ARCONTROLLER_FEATURE_Wifi_New
                0x00122238       0xb4 /home/ncs/CAPSTONE/out/arsdk-native/build/libARController/obj/gen/Sources/ARCONTROLLER_Feature.c.o
                0x00122238                ARCONTROLLER_FEATURE_Wifi_New
 .text.ARCONTROLLER_FEATURE_Wifi_GetDictionary
                0x001222ec       0x18 /home/ncs/CAPSTONE/out/arsdk-native/build/libARController/obj/gen/Sources/ARCONTROLLER_Feature.c.o
                0x001222ec                ARCONTROLLER_FEATURE_Wifi_GetDictionary
 .text.ARCONTROLLER_FEATURE_Wifi_AddCallback
                0x00122304       0x12 /home/ncs/CAPSTONE/out/arsdk-native/build/libARController/obj/gen/Sources/ARCONTROLLER_Feature.c.o
                0x00122304                ARCONTROLLER_FEATURE_Wifi_AddCallback
 .text.ARCONTROLLER_FEATURE_Wifi_RemoveCallback
                0x00122316       0x12 /home/ncs/CAPSTONE/out/arsdk-native/build/libARController/obj/gen/Sources/ARCONTROLLER_Feature.c.o
                0x00122316                ARCONTROLLER_FEATURE_Wifi_RemoveCallback
 .text.ARCONTROLLER_FEATURE_Wifi_RegisterARCommands
                0x00122328       0xc8 /home/ncs/CAPSTONE/out/arsdk-native/build/libARController/obj/gen/Sources/ARCONTROLLER_Feature.c.o
                0x00122328                ARCONTROLLER_FEATURE_Wifi_RegisterARCommands
 .text.ARCONTROLLER_FEATURE_Wifi_UnregisterARCommands
                0x001223f0       0x78 /home/ncs/CAPSTONE/out/arsdk-native/build/libARController/obj/gen/Sources/ARCONTROLLER_Feature.c.o
                0x001223f0                ARCONTROLLER_FEATURE_Wifi_UnregisterARCommands
 .text.ARCONTROLLER_Wifi_NewCmdElementScannedItem
                0x00122468      0xf3c /home/ncs/CAPSTONE/out/arsdk-native/build/libARController/obj/gen/Sources/ARCONTROLLER_Feature.c.o
                0x00122468                ARCONTROLLER_Wifi_NewCmdElementScannedItem
 .text.ARCONTROLLER_FEATURE_Wifi_ScannedItemCallback
                0x001233a4      0x80c /home/ncs/CAPSTONE/out/arsdk-native/build/libARController/obj/gen/Sources/ARCONTROLLER_Feature.c.o
                0x001233a4                ARCONTROLLER_FEATURE_Wifi_ScannedItemCallback
 .text.ARCONTROLLER_Wifi_NewCmdElementAuthorizedChannel
                0x00123bb0      0xbe8 /home/ncs/CAPSTONE/out/arsdk-native/build/libARController/obj/gen/Sources/ARCONTROLLER_Feature.c.o
                0x00123bb0                ARCONTROLLER_Wifi_NewCmdElementAuthorizedChannel
 .text.ARCONTROLLER_FEATURE_Wifi_AuthorizedChannelCallback
                0x00124798      0x514 /home/ncs/CAPSTONE/out/arsdk-native/build/libARController/obj/gen/Sources/ARCONTROLLER_Feature.c.o
                0x00124798                ARCONTROLLER_FEATURE_Wifi_AuthorizedChannelCallback
 .text.ARCONTROLLER_Wifi_NewCmdElementApChannelChanged
                0x00124cac      0xb60 /home/ncs/CAPSTONE/out/arsdk-native/build/libARController/obj/gen/Sources/ARCONTROLLER_Feature.c.o
                0x00124cac                ARCONTROLLER_Wifi_NewCmdElementApChannelChanged
 .text.ARCONTROLLER_FEATURE_Wifi_ApChannelChangedCallback
                0x0012580c      0x410 /home/ncs/CAPSTONE/out/arsdk-native/build/libARController/obj/gen/Sources/ARCONTROLLER_Feature.c.o
                0x0012580c                ARCONTROLLER_FEATURE_Wifi_ApChannelChangedCallback
 .text.ARCONTROLLER_Wifi_NewCmdElementSecurityChanged
                0x00125c1c      0x800 /home/ncs/CAPSTONE/out/arsdk-native/build/libARController/obj/gen/Sources/ARCONTROLLER_Feature.c.o
                0x00125c1c                ARCONTROLLER_Wifi_NewCmdElementSecurityChanged
 .text.ARCONTROLLER_FEATURE_Wifi_SecurityChangedCallback
                0x0012641c      0x408 /home/ncs/CAPSTONE/out/arsdk-native/build/libARController/obj/gen/Sources/ARCONTROLLER_Feature.c.o
                0x0012641c                ARCONTROLLER_FEATURE_Wifi_SecurityChangedCallback
 .text.ARCONTROLLER_Wifi_NewCmdElementCountryChanged
                0x00126824      0x800 /home/ncs/CAPSTONE/out/arsdk-native/build/libARController/obj/gen/Sources/ARCONTROLLER_Feature.c.o
                0x00126824                ARCONTROLLER_Wifi_NewCmdElementCountryChanged
 .text.ARCONTROLLER_FEATURE_Wifi_CountryChangedCallback
                0x00127024      0x408 /home/ncs/CAPSTONE/out/arsdk-native/build/libARController/obj/gen/Sources/ARCONTROLLER_Feature.c.o
                0x00127024                ARCONTROLLER_FEATURE_Wifi_CountryChangedCallback
 .text.ARCONTROLLER_Wifi_NewCmdElementEnvironmentChanged
                0x0012742c      0x424 /home/ncs/CAPSTONE/out/arsdk-native/build/libARController/obj/gen/Sources/ARCONTROLLER_Feature.c.o
                0x0012742c                ARCONTROLLER_Wifi_NewCmdElementEnvironmentChanged
 .text.ARCONTROLLER_FEATURE_Wifi_EnvironmentChangedCallback
                0x00127850      0x3fc /home/ncs/CAPSTONE/out/arsdk-native/build/libARController/obj/gen/Sources/ARCONTROLLER_Feature.c.o
                0x00127850                ARCONTROLLER_FEATURE_Wifi_EnvironmentChangedCallback
 .text.ARCONTROLLER_Wifi_NewCmdElementRssiChanged
                0x00127c4c      0x424 /home/ncs/CAPSTONE/out/arsdk-native/build/libARController/obj/gen/Sources/ARCONTROLLER_Feature.c.o
                0x00127c4c                ARCONTROLLER_Wifi_NewCmdElementRssiChanged
 .text.ARCONTROLLER_FEATURE_Wifi_RssiChangedCallback
                0x00128070      0x3fc /home/ncs/CAPSTONE/out/arsdk-native/build/libARController/obj/gen/Sources/ARCONTROLLER_Feature.c.o
                0x00128070                ARCONTROLLER_FEATURE_Wifi_RssiChangedCallback
 .text.ARCONTROLLER_FEATURE_Wifi_SetNetworkController
                0x0012846c       0x12 /home/ncs/CAPSTONE/out/arsdk-native/build/libARController/obj/gen/Sources/ARCONTROLLER_Feature.c.o
                0x0012846c                ARCONTROLLER_FEATURE_Wifi_SetNetworkController
 *fill*         0x0012847e        0x2 
 .text.ARCONTROLLER_Wifi_GetCommandElements
                0x00128480       0xfc /home/ncs/CAPSTONE/out/arsdk-native/build/libARController/obj/gen/Sources/ARCONTROLLER_Feature.c.o
                0x00128480                ARCONTROLLER_Wifi_GetCommandElements
 *(.gnu.warning)
 *(.glue_7t)
 .glue_7t       0x0012857c        0x0 linker stubs
 *(.glue_7)
 .glue_7        0x0012857c        0x0 linker stubs
 *(.vfp11_veneer)
 .vfp11_veneer  0x0012857c        0x0 linker stubs
 *(.v4_bx)
 .v4_bx         0x0012857c        0x0 linker stubs

.fini           0x0012857c        0x8
 *(SORT(.fini))
 .fini          0x0012857c        0x4 /usr/lib/gcc/arm-linux-gnueabihf/5/../../../arm-linux-gnueabihf/crti.o
                0x0012857c                _fini
 .fini          0x00128580        0x4 /usr/lib/gcc/arm-linux-gnueabihf/5/../../../arm-linux-gnueabihf/crtn.o
                [!provide]                PROVIDE (__etext, .)
                [!provide]                PROVIDE (_etext, .)
                [!provide]                PROVIDE (etext, .)

.rodata         0x00128584     0xe162
 *(.rodata .rodata.* .gnu.linkonce.r.*)
 .rodata        0x00128584       0x5a /home/ncs/CAPSTONE/out/arsdk-native/build/libARController/obj/Sources/ARCONTROLLER_Dictionary.c.o
 .rodata.str1.1
                0x001285de       0x6f /home/ncs/CAPSTONE/out/arsdk-native/build/libARController/obj/Sources/ARCONTROLLER_Dictionary.c.o
 .rodata        0x0012864d      0x131 /home/ncs/CAPSTONE/out/arsdk-native/build/libARController/obj/Sources/ARCONTROLLER_Network.c.o
 .rodata.str1.1
                0x0012877e      0x373 /home/ncs/CAPSTONE/out/arsdk-native/build/libARController/obj/Sources/ARCONTROLLER_Network.c.o
 .rodata        0x00128af1       0x4b /home/ncs/CAPSTONE/out/arsdk-native/build/libARController/obj/Sources/ARCONTROLLER_StreamQueue.c.o
 .rodata.str1.1
                0x00128b3c       0xb7 /home/ncs/CAPSTONE/out/arsdk-native/build/libARController/obj/Sources/ARCONTROLLER_StreamQueue.c.o
                                 0xc0 (size before relaxing)
 .rodata        0x00128bf3       0xda /home/ncs/CAPSTONE/out/arsdk-native/build/libARController/obj/Sources/ARCONTROLLER_Stream1.c.o
 .rodata.str1.1
                0x00128ccd      0x25a /home/ncs/CAPSTONE/out/arsdk-native/build/libARController/obj/Sources/ARCONTROLLER_Stream1.c.o
                                0x298 (size before relaxing)
 .rodata        0x00128f27       0x90 /home/ncs/CAPSTONE/out/arsdk-native/build/libARController/obj/Sources/ARCONTROLLER_Stream2.c.o
 .rodata.str1.1
                0x00128fb7      0x30d /home/ncs/CAPSTONE/out/arsdk-native/build/libARController/obj/Sources/ARCONTROLLER_Stream2.c.o
                                0x3db (size before relaxing)
 .rodata        0x001292c4       0x49 /home/ncs/CAPSTONE/out/arsdk-native/build/libARController/obj/Sources/ARCONTROLLER_StreamSender.c.o
 .rodata.str1.1
                0x0012930d       0xa6 /home/ncs/CAPSTONE/out/arsdk-native/build/libARController/obj/Sources/ARCONTROLLER_StreamSender.c.o
                                0x166 (size before relaxing)
 .rodata        0x001293b3      0x332 /home/ncs/CAPSTONE/out/arsdk-native/build/libARController/obj/gen/Sources/ARCONTROLLER_Device.c.o
 .rodata.str1.1
                0x001296e5     0x1d2d /home/ncs/CAPSTONE/out/arsdk-native/build/libARController/obj/gen/Sources/ARCONTROLLER_Device.c.o
                               0x1d36 (size before relaxing)
 .rodata.str1.1
                0x0012b412      0x557 /home/ncs/CAPSTONE/out/arsdk-native/build/libARController/obj/gen/Sources/ARCONTROLLER_Error.c.o
 .rodata        0x0012b969       0xe9 /home/ncs/CAPSTONE/out/arsdk-native/build/libARController/obj/gen/Sources/ARCONTROLLER_Feature.c.o
 .rodata.str1.1
                0x0012ba52     0xac94 /home/ncs/CAPSTONE/out/arsdk-native/build/libARController/obj/gen/Sources/ARCONTROLLER_Feature.c.o
                               0xacc3 (size before relaxing)

.rodata1
 *(.rodata1)

.ARM.extab
 *(.ARM.extab* .gnu.linkonce.armextab.*)
                [!provide]                PROVIDE (__exidx_start, .)

.ARM.exidx
 *(.ARM.exidx* .gnu.linkonce.armexidx.*)
                [!provide]                PROVIDE (__exidx_end, .)

.eh_frame_hdr
 *(.eh_frame_hdr)
 *(.eh_frame_entry .eh_frame_entry.*)

.eh_frame       0x001366e8        0x4
 *(.eh_frame)
 .eh_frame      0x001366e8        0x4 /usr/lib/gcc/arm-linux-gnueabihf/5/crtendS.o
 *(.eh_frame.*)

.gcc_except_table
 *(.gcc_except_table .gcc_except_table.*)

.gnu_extab
 *(.gnu_extab*)

.exception_ranges
 *(.exception_ranges .exception_ranges*)
                0x00146eac                . = DATA_SEGMENT_ALIGN (0x10000, 0x1000)

.eh_frame
 *(.eh_frame)
 *(.eh_frame.*)

.gnu_extab
 *(.gnu_extab)

.gcc_except_table
 *(.gcc_except_table .gcc_except_table.*)

.exception_ranges
 *(.exception_ranges .exception_ranges*)

.tdata
 *(.tdata .tdata.* .gnu.linkonce.td.*)

.tbss
 *(.tbss .tbss.* .gnu.linkonce.tb.*)
 *(.tcommon)

.preinit_array
 *(.preinit_array)

.init_array     0x00146eac        0x4
 *(SORT(.init_array.*) SORT(.ctors.*))
 *(.init_array EXCLUDE_FILE(*crtend?.o *crtend.o *crtbegin?.o *crtbegin.o) .ctors)
 .init_array    0x00146eac        0x4 /usr/lib/gcc/arm-linux-gnueabihf/5/crtbeginS.o

.fini_array     0x00146eb0        0x4
 *(SORT(.fini_array.*) SORT(.dtors.*))
 *(.fini_array EXCLUDE_FILE(*crtend?.o *crtend.o *crtbegin?.o *crtbegin.o) .dtors)
 .fini_array    0x00146eb0        0x4 /usr/lib/gcc/arm-linux-gnueabihf/5/crtbeginS.o

.ctors
 *crtbegin.o(.ctors)
 *crtbegin?.o(.ctors)
 *(EXCLUDE_FILE(*crtend?.o *crtend.o) .ctors)
 *(SORT(.ctors.*))
 *(.ctors)

.dtors
 *crtbegin.o(.dtors)
 *crtbegin?.o(.dtors)
 *(EXCLUDE_FILE(*crtend?.o *crtend.o) .dtors)
 *(SORT(.dtors.*))
 *(.dtors)

.jcr            0x00146eb4        0x4
 *(.jcr)
 .jcr           0x00146eb4        0x0 /usr/lib/gcc/arm-linux-gnueabihf/5/crtbeginS.o
 .jcr           0x00146eb4        0x4 /usr/lib/gcc/arm-linux-gnueabihf/5/crtendS.o

.data.rel.ro
 *(.data.rel.ro.local* .gnu.linkonce.d.rel.ro.local.*)
 *(.data.rel.ro .data.rel.ro.* .gnu.linkonce.d.rel.ro.*)

.dynamic        0x00146eb8      0x148
 *(.dynamic)
 .dynamic       0x00146eb8      0x148 /usr/lib/gcc/arm-linux-gnueabihf/5/../../../arm-linux-gnueabihf/crti.o
                0x00146eb8                _DYNAMIC
                0x00147000                . = DATA_SEGMENT_RELRO_END (., 0x0)

.got            0x00147000     0x2358
 *(.got.plt)
 .got.plt       0x00147000     0x11b8 /usr/lib/gcc/arm-linux-gnueabihf/5/../../../arm-linux-gnueabihf/crti.o
                0x00147000                _GLOBAL_OFFSET_TABLE_
 *(.igot.plt)
 .igot.plt      0x001481b8        0x0 /usr/lib/gcc/arm-linux-gnueabihf/5/../../../arm-linux-gnueabihf/crti.o
 *(.got)
 .got           0x001481b8     0x11a0 /usr/lib/gcc/arm-linux-gnueabihf/5/../../../arm-linux-gnueabihf/crti.o
 *(.igot)

.data           0x00149358      0x8c4
                [!provide]                PROVIDE (__data_start, .)
 *(.data .data.* .gnu.linkonce.d.*)
 .data.rel.local
                0x00149358        0x4 /usr/lib/gcc/arm-linux-gnueabihf/5/crtbeginS.o
                0x00149358                __dso_handle
 .data.rel.local
                0x0014935c      0x8c0 /home/ncs/CAPSTONE/out/arsdk-native/build/libARController/obj/gen/Sources/ARCONTROLLER_Feature.c.o
                0x0014935c                ARCONTROLLER_DICTIONARY_KEY_WIFI_RSSICHANGED_RSSI
                0x00149360                ARCONTROLLER_DICTIONARY_KEY_WIFI_ENVIRONMENTCHANGED_ENVIRONMENT
                0x00149364                ARCONTROLLER_DICTIONARY_KEY_WIFI_COUNTRYCHANGED_CODE
                0x00149368                ARCONTROLLER_DICTIONARY_KEY_WIFI_COUNTRYCHANGED_SELECTION_MODE
                0x0014936c                ARCONTROLLER_DICTIONARY_KEY_WIFI_SECURITYCHANGED_KEY_TYPE
                0x00149370                ARCONTROLLER_DICTIONARY_KEY_WIFI_SECURITYCHANGED_KEY
                0x00149374                ARCONTROLLER_DICTIONARY_KEY_WIFI_APCHANNELCHANGED_CHANNEL
                0x00149378                ARCONTROLLER_DICTIONARY_KEY_WIFI_APCHANNELCHANGED_BAND
                0x0014937c                ARCONTROLLER_DICTIONARY_KEY_WIFI_APCHANNELCHANGED_TYPE
                0x00149380                ARCONTROLLER_DICTIONARY_KEY_WIFI_AUTHORIZEDCHANNEL_ENVIRONMENT
                0x00149384                ARCONTROLLER_DICTIONARY_KEY_WIFI_AUTHORIZEDCHANNEL_CHANNEL
                0x00149388                ARCONTROLLER_DICTIONARY_KEY_WIFI_AUTHORIZEDCHANNEL_BAND
                0x0014938c                ARCONTROLLER_DICTIONARY_KEY_WIFI_SCANNEDITEM_CHANNEL
                0x00149390                ARCONTROLLER_DICTIONARY_KEY_WIFI_SCANNEDITEM_BAND
                0x00149394                ARCONTROLLER_DICTIONARY_KEY_WIFI_SCANNEDITEM_RSSI
                0x00149398                ARCONTROLLER_DICTIONARY_KEY_WIFI_SCANNEDITEM_SSID
                0x0014939c                ARCONTROLLER_DICTIONARY_KEY_UNKNOWN_FEATURE_1_USERFRAMINGPOSITIONCHANGED_VERTICAL
                0x001493a0                ARCONTROLLER_DICTIONARY_KEY_UNKNOWN_FEATURE_1_USERFRAMINGPOSITIONCHANGED_HORIZONTAL
                0x001493a4                ARCONTROLLER_DICTIONARY_KEY_UNKNOWN_FEATURE_1_DOLLYSLIDEANIMCONFIGCHANGED_HORIZONTAL_DISTANCE
                0x001493a8                ARCONTROLLER_DICTIONARY_KEY_UNKNOWN_FEATURE_1_DOLLYSLIDEANIMCONFIGCHANGED_HORIZONTAL_DISTANCE_IS_DEFAULT
                0x001493ac                ARCONTROLLER_DICTIONARY_KEY_UNKNOWN_FEATURE_1_DOLLYSLIDEANIMCONFIGCHANGED_ANGLE
                0x001493b0                ARCONTROLLER_DICTIONARY_KEY_UNKNOWN_FEATURE_1_DOLLYSLIDEANIMCONFIGCHANGED_ANGLE_IS_DEFAULT
                0x001493b4                ARCONTROLLER_DICTIONARY_KEY_UNKNOWN_FEATURE_1_DOLLYSLIDEANIMCONFIGCHANGED_SPEED
                0x001493b8                ARCONTROLLER_DICTIONARY_KEY_UNKNOWN_FEATURE_1_DOLLYSLIDEANIMCONFIGCHANGED_SPEED_IS_DEFAULT
                0x001493bc                ARCONTROLLER_DICTIONARY_KEY_UNKNOWN_FEATURE_1_CANDLEANIMCONFIGCHANGED_VERTICAL_DISTANCE
                0x001493c0                ARCONTROLLER_DICTIONARY_KEY_UNKNOWN_FEATURE_1_CANDLEANIMCONFIGCHANGED_VERTICAL_DISTANCE_IS_DEFAULT
                0x001493c4                ARCONTROLLER_DICTIONARY_KEY_UNKNOWN_FEATURE_1_CANDLEANIMCONFIGCHANGED_SPEED
                0x001493c8                ARCONTROLLER_DICTIONARY_KEY_UNKNOWN_FEATURE_1_CANDLEANIMCONFIGCHANGED_SPEED_IS_DEFAULT
                0x001493cc                ARCONTROLLER_DICTIONARY_KEY_UNKNOWN_FEATURE_1_BOOMERANGANIMCONFIGCHANGED_DISTANCE
                0x001493d0                ARCONTROLLER_DICTIONARY_KEY_UNKNOWN_FEATURE_1_BOOMERANGANIMCONFIGCHANGED_DISTANCE_IS_DEFAULT
                0x001493d4                ARCONTROLLER_DICTIONARY_KEY_UNKNOWN_FEATURE_1_BOOMERANGANIMCONFIGCHANGED_SPEED
                0x001493d8                ARCONTROLLER_DICTIONARY_KEY_UNKNOWN_FEATURE_1_BOOMERANGANIMCONFIGCHANGED_SPEED_IS_DEFAULT
                0x001493dc                ARCONTROLLER_DICTIONARY_KEY_UNKNOWN_FEATURE_1_SWINGANIMCONFIGCHANGED_VERTICAL_DISTANCE
                0x001493e0                ARCONTROLLER_DICTIONARY_KEY_UNKNOWN_FEATURE_1_SWINGANIMCONFIGCHANGED_VERTICAL_DISTANCE_IS_DEFAULT
                0x001493e4                ARCONTROLLER_DICTIONARY_KEY_UNKNOWN_FEATURE_1_SWINGANIMCONFIGCHANGED_SPEED
                0x001493e8                ARCONTROLLER_DICTIONARY_KEY_UNKNOWN_FEATURE_1_SWINGANIMCONFIGCHANGED_SPEED_IS_DEFAULT
                0x001493ec                ARCONTROLLER_DICTIONARY_KEY_UNKNOWN_FEATURE_1_SPIRALANIMCONFIGCHANGED_VERTICAL_DISTANCE
                0x001493f0                ARCONTROLLER_DICTIONARY_KEY_UNKNOWN_FEATURE_1_SPIRALANIMCONFIGCHANGED_VERTICAL_DISTANCE_IS_DEFAULT
                0x001493f4                ARCONTROLLER_DICTIONARY_KEY_UNKNOWN_FEATURE_1_SPIRALANIMCONFIGCHANGED_REVOLUTION_NB
                0x001493f8                ARCONTROLLER_DICTIONARY_KEY_UNKNOWN_FEATURE_1_SPIRALANIMCONFIGCHANGED_REVOLUTION_NB_IS_DEFAULT
                0x001493fc                ARCONTROLLER_DICTIONARY_KEY_UNKNOWN_FEATURE_1_SPIRALANIMCONFIGCHANGED_SPEED
                0x00149400                ARCONTROLLER_DICTIONARY_KEY_UNKNOWN_FEATURE_1_SPIRALANIMCONFIGCHANGED_SPEED_IS_DEFAULT
                0x00149404                ARCONTROLLER_DICTIONARY_KEY_UNKNOWN_FEATURE_1_ANIMRUN_TYPE
                0x00149408                ARCONTROLLER_DICTIONARY_KEY_UNKNOWN_FEATURE_1_RELATIVECONFIGCHANGED_AZIMUTH
                0x0014940c                ARCONTROLLER_DICTIONARY_KEY_UNKNOWN_FEATURE_1_RELATIVECONFIGCHANGED_AZIMUTH_IS_DEFAULT
                0x00149410                ARCONTROLLER_DICTIONARY_KEY_UNKNOWN_FEATURE_1_RELATIVECONFIGCHANGED_ELEVATION
                0x00149414                ARCONTROLLER_DICTIONARY_KEY_UNKNOWN_FEATURE_1_RELATIVECONFIGCHANGED_ELEVATION_IS_DEFAULT
                0x00149418                ARCONTROLLER_DICTIONARY_KEY_UNKNOWN_FEATURE_1_RELATIVECONFIGCHANGED_DISTANCE
                0x0014941c                ARCONTROLLER_DICTIONARY_KEY_UNKNOWN_FEATURE_1_RELATIVECONFIGCHANGED_DISTANCE_IS_DEFAULT
                0x00149420                ARCONTROLLER_DICTIONARY_KEY_UNKNOWN_FEATURE_1_GEOGRAPHICCONFIGCHANGED_AZIMUTH
                0x00149424                ARCONTROLLER_DICTIONARY_KEY_UNKNOWN_FEATURE_1_GEOGRAPHICCONFIGCHANGED_AZIMUTH_IS_DEFAULT
                0x00149428                ARCONTROLLER_DICTIONARY_KEY_UNKNOWN_FEATURE_1_GEOGRAPHICCONFIGCHANGED_ELEVATION
                0x0014942c                ARCONTROLLER_DICTIONARY_KEY_UNKNOWN_FEATURE_1_GEOGRAPHICCONFIGCHANGED_ELEVATION_IS_DEFAULT
                0x00149430                ARCONTROLLER_DICTIONARY_KEY_UNKNOWN_FEATURE_1_GEOGRAPHICCONFIGCHANGED_DISTANCE
                0x00149434                ARCONTROLLER_DICTIONARY_KEY_UNKNOWN_FEATURE_1_GEOGRAPHICCONFIGCHANGED_DISTANCE_IS_DEFAULT
                0x00149438                ARCONTROLLER_DICTIONARY_KEY_UNKNOWN_FEATURE_1_RUN_TYPE
                0x0014943c                ARCONTROLLER_DICTIONARY_KEY_UNKNOWN_FEATURE_1_AVAILABILITY_TYPE
                0x00149440                ARCONTROLLER_DICTIONARY_KEY_SKYCONTROLLER_CALIBRATIONSTATE_MAGNETOCALIBRATIONQUALITYUPDATESSTATE_ENABLED
                0x00149444                ARCONTROLLER_DICTIONARY_KEY_SKYCONTROLLER_CALIBRATIONSTATE_MAGNETOCALIBRATIONSTATE_Z_QUALITY
                0x00149448                ARCONTROLLER_DICTIONARY_KEY_SKYCONTROLLER_CALIBRATIONSTATE_MAGNETOCALIBRATIONSTATE_Y_QUALITY
                0x0014944c                ARCONTROLLER_DICTIONARY_KEY_SKYCONTROLLER_CALIBRATIONSTATE_MAGNETOCALIBRATIONSTATE_X_QUALITY
                0x00149450                ARCONTROLLER_DICTIONARY_KEY_SKYCONTROLLER_CALIBRATIONSTATE_MAGNETOCALIBRATIONSTATE_STATUS
                0x00149454                ARCONTROLLER_DICTIONARY_KEY_SKYCONTROLLER_COPILOTINGSTATE_PILOTINGSOURCE_SOURCE
                0x00149458                ARCONTROLLER_DICTIONARY_KEY_SKYCONTROLLER_AXISFILTERSSTATE_PRESETAXISFILTERS_NAME
                0x0014945c                ARCONTROLLER_DICTIONARY_KEY_SKYCONTROLLER_AXISFILTERSSTATE_PRESETAXISFILTERS_FILTER_UID
                0x00149460                ARCONTROLLER_DICTIONARY_KEY_SKYCONTROLLER_AXISFILTERSSTATE_CURRENTAXISFILTERS_FILTER_UID_OR_BUILDER
                0x00149464                ARCONTROLLER_DICTIONARY_KEY_SKYCONTROLLER_AXISFILTERSSTATE_CURRENTAXISFILTERS_AXIS_ID
                0x00149468                ARCONTROLLER_DICTIONARY_KEY_SKYCONTROLLER_AXISMAPPINGSSTATE_AVAILABLEAXISMAPPINGS_NAME
                0x0014946c                ARCONTROLLER_DICTIONARY_KEY_SKYCONTROLLER_AXISMAPPINGSSTATE_AVAILABLEAXISMAPPINGS_MAPPING_UID
                0x00149470                ARCONTROLLER_DICTIONARY_KEY_SKYCONTROLLER_AXISMAPPINGSSTATE_CURRENTAXISMAPPINGS_MAPPING_UID
                0x00149474                ARCONTROLLER_DICTIONARY_KEY_SKYCONTROLLER_AXISMAPPINGSSTATE_CURRENTAXISMAPPINGS_AXIS_ID
                0x00149478                ARCONTROLLER_DICTIONARY_KEY_SKYCONTROLLER_BUTTONMAPPINGSSTATE_AVAILABLEBUTTONMAPPINGS_NAME
                0x0014947c                ARCONTROLLER_DICTIONARY_KEY_SKYCONTROLLER_BUTTONMAPPINGSSTATE_AVAILABLEBUTTONMAPPINGS_MAPPING_UID
                0x00149480                ARCONTROLLER_DICTIONARY_KEY_SKYCONTROLLER_BUTTONMAPPINGSSTATE_CURRENTBUTTONMAPPINGS_MAPPING_UID
                0x00149484                ARCONTROLLER_DICTIONARY_KEY_SKYCONTROLLER_BUTTONMAPPINGSSTATE_CURRENTBUTTONMAPPINGS_KEY_ID
                0x00149488                ARCONTROLLER_DICTIONARY_KEY_SKYCONTROLLER_GAMEPADINFOSSTATE_GAMEPADCONTROL_NAME
                0x0014948c                ARCONTROLLER_DICTIONARY_KEY_SKYCONTROLLER_GAMEPADINFOSSTATE_GAMEPADCONTROL_ID
                0x00149490                ARCONTROLLER_DICTIONARY_KEY_SKYCONTROLLER_GAMEPADINFOSSTATE_GAMEPADCONTROL_TYPE
                0x00149494                ARCONTROLLER_DICTIONARY_KEY_SKYCONTROLLER_ACCESSPOINTSETTINGSSTATE_WIFISELECTIONCHANGED_CHANNEL
                0x00149498                ARCONTROLLER_DICTIONARY_KEY_SKYCONTROLLER_ACCESSPOINTSETTINGSSTATE_WIFISELECTIONCHANGED_BAND
                0x0014949c                ARCONTROLLER_DICTIONARY_KEY_SKYCONTROLLER_ACCESSPOINTSETTINGSSTATE_WIFISELECTIONCHANGED_TYPE
                0x001494a0                ARCONTROLLER_DICTIONARY_KEY_SKYCONTROLLER_ACCESSPOINTSETTINGSSTATE_ACCESSPOINTCHANNELCHANGED_CHANNEL
                0x001494a4                ARCONTROLLER_DICTIONARY_KEY_SKYCONTROLLER_ACCESSPOINTSETTINGSSTATE_ACCESSPOINTSSIDCHANGED_SSID
                0x001494a8                ARCONTROLLER_DICTIONARY_KEY_SKYCONTROLLER_SKYCONTROLLERSTATE_ATTITUDECHANGED_Q3
                0x001494ac                ARCONTROLLER_DICTIONARY_KEY_SKYCONTROLLER_SKYCONTROLLERSTATE_ATTITUDECHANGED_Q2
                0x001494b0                ARCONTROLLER_DICTIONARY_KEY_SKYCONTROLLER_SKYCONTROLLERSTATE_ATTITUDECHANGED_Q1
                0x001494b4                ARCONTROLLER_DICTIONARY_KEY_SKYCONTROLLER_SKYCONTROLLERSTATE_ATTITUDECHANGED_Q0
                0x001494b8                ARCONTROLLER_DICTIONARY_KEY_SKYCONTROLLER_SKYCONTROLLERSTATE_BATTERYSTATE_STATE
                0x001494bc                ARCONTROLLER_DICTIONARY_KEY_SKYCONTROLLER_SKYCONTROLLERSTATE_GPSPOSITIONCHANGED_HEADING
                0x001494c0                ARCONTROLLER_DICTIONARY_KEY_SKYCONTROLLER_SKYCONTROLLERSTATE_GPSPOSITIONCHANGED_ALTITUDE
                0x001494c4                ARCONTROLLER_DICTIONARY_KEY_SKYCONTROLLER_SKYCONTROLLERSTATE_GPSPOSITIONCHANGED_LONGITUDE
                0x001494c8                ARCONTROLLER_DICTIONARY_KEY_SKYCONTROLLER_SKYCONTROLLERSTATE_GPSPOSITIONCHANGED_LATITUDE
                0x001494cc                ARCONTROLLER_DICTIONARY_KEY_SKYCONTROLLER_SKYCONTROLLERSTATE_GPSFIXCHANGED_FIXED
                0x001494d0                ARCONTROLLER_DICTIONARY_KEY_SKYCONTROLLER_SKYCONTROLLERSTATE_BATTERYCHANGED_PERCENT
                0x001494d4                ARCONTROLLER_DICTIONARY_KEY_SKYCONTROLLER_SETTINGSSTATE_PRODUCTVERSIONCHANGED_HARDWARE
                0x001494d8                ARCONTROLLER_DICTIONARY_KEY_SKYCONTROLLER_SETTINGSSTATE_PRODUCTVERSIONCHANGED_SOFTWARE
                0x001494dc                ARCONTROLLER_DICTIONARY_KEY_SKYCONTROLLER_SETTINGSSTATE_PRODUCTVARIANTCHANGED_VARIANT
                0x001494e0                ARCONTROLLER_DICTIONARY_KEY_SKYCONTROLLER_SETTINGSSTATE_PRODUCTSERIALCHANGED_SERIALNUMBER
                0x001494e4                ARCONTROLLER_DICTIONARY_KEY_SKYCONTROLLER_DEVICESTATE_CONNEXIONCHANGED_DEVICEPRODUCTID
                0x001494e8                ARCONTROLLER_DICTIONARY_KEY_SKYCONTROLLER_DEVICESTATE_CONNEXIONCHANGED_DEVICENAME
                0x001494ec                ARCONTROLLER_DICTIONARY_KEY_SKYCONTROLLER_DEVICESTATE_CONNEXIONCHANGED_STATUS
                0x001494f0                ARCONTROLLER_DICTIONARY_KEY_SKYCONTROLLER_DEVICESTATE_DEVICELIST_NAME
                0x001494f4                ARCONTROLLER_DICTIONARY_KEY_SKYCONTROLLER_WIFISTATE_WIFISIGNALCHANGED_LEVEL
                0x001494f8                ARCONTROLLER_DICTIONARY_KEY_SKYCONTROLLER_WIFISTATE_WIFIAUTHCHANNELLISTCHANGED_IN_OR_OUT
                0x001494fc                ARCONTROLLER_DICTIONARY_KEY_SKYCONTROLLER_WIFISTATE_WIFIAUTHCHANNELLISTCHANGED_CHANNEL
                0x00149500                ARCONTROLLER_DICTIONARY_KEY_SKYCONTROLLER_WIFISTATE_WIFIAUTHCHANNELLISTCHANGED_BAND
                0x00149504                ARCONTROLLER_DICTIONARY_KEY_SKYCONTROLLER_WIFISTATE_CONNEXIONCHANGED_STATUS
                0x00149508                ARCONTROLLER_DICTIONARY_KEY_SKYCONTROLLER_WIFISTATE_CONNEXIONCHANGED_SSID
                0x0014950c                ARCONTROLLER_DICTIONARY_KEY_SKYCONTROLLER_WIFISTATE_WIFILIST_FREQUENCY
                0x00149510                ARCONTROLLER_DICTIONARY_KEY_SKYCONTROLLER_WIFISTATE_WIFILIST_RSSI
                0x00149514                ARCONTROLLER_DICTIONARY_KEY_SKYCONTROLLER_WIFISTATE_WIFILIST_SAVED
                0x00149518                ARCONTROLLER_DICTIONARY_KEY_SKYCONTROLLER_WIFISTATE_WIFILIST_SECURED
                0x0014951c                ARCONTROLLER_DICTIONARY_KEY_SKYCONTROLLER_WIFISTATE_WIFILIST_SSID
                0x00149520                ARCONTROLLER_DICTIONARY_KEY_SKYCONTROLLER_WIFISTATE_WIFILIST_BSSID
                0x00149524                ARCONTROLLER_DICTIONARY_KEY_RC_RECEIVERQUALITY_LEVEL
                0x00149528                ARCONTROLLER_DICTIONARY_KEY_RC_CALIBRATIONSTATE_INVERTED
                0x0014952c                ARCONTROLLER_DICTIONARY_KEY_RC_CALIBRATIONSTATE_NEUTRAL_CALIBRATED
                0x00149530                ARCONTROLLER_DICTIONARY_KEY_RC_CALIBRATIONSTATE_CALIBRATED
                0x00149534                ARCONTROLLER_DICTIONARY_KEY_RC_CALIBRATIONSTATE_REQUIRED
                0x00149538                ARCONTROLLER_DICTIONARY_KEY_RC_CALIBRATIONSTATE_SUPPORTED
                0x0014953c                ARCONTROLLER_DICTIONARY_KEY_RC_CALIBRATIONSTATE_CHANNEL
                0x00149540                ARCONTROLLER_DICTIONARY_KEY_RC_CALIBRATIONSTATE_TYPE
                0x00149544                ARCONTROLLER_DICTIONARY_KEY_RC_CHANNELVALUE_VALUE
                0x00149548                ARCONTROLLER_DICTIONARY_KEY_RC_CHANNELVALUE_TYPE
                0x0014954c                ARCONTROLLER_DICTIONARY_KEY_RC_CHANNELVALUE_ID
                0x00149550                ARCONTROLLER_DICTIONARY_KEY_RC_CHANNELSMONITORSTATE_STATE
                0x00149554                ARCONTROLLER_DICTIONARY_KEY_RC_RECEIVERSTATE_PROTOCOL
                0x00149558                ARCONTROLLER_DICTIONARY_KEY_RC_RECEIVERSTATE_STATE
                0x0014955c                ARCONTROLLER_DICTIONARY_KEY_PRO_PROEVENT_CHALLENGEEVENT_CHALLENGE
                0x00149560                ARCONTROLLER_DICTIONARY_KEY_PRO_PROSTATE_FEATURESACTIVATED_FEATURES
                0x00149564                ARCONTROLLER_DICTIONARY_KEY_PRO_PROSTATE_SUPPORTEDFEATURES_FEATURES
                0x00149568                ARCONTROLLER_DICTIONARY_KEY_PRO_PROSTATE_SUPPORTEDFEATURES_STATUS
                0x0014956c                ARCONTROLLER_DICTIONARY_KEY_POWERUP_SOUNDSSTATE_BUZZCHANGED_ENABLED
                0x00149570                ARCONTROLLER_DICTIONARY_KEY_POWERUP_VIDEOSETTINGSSTATE_VIDEOMODECHANGED_MODE
                0x00149574                ARCONTROLLER_DICTIONARY_KEY_POWERUP_VIDEOSETTINGSSTATE_AUTORECORDCHANGED_ENABLED
                0x00149578                ARCONTROLLER_DICTIONARY_KEY_POWERUP_MEDIASTREAMINGSTATE_VIDEOENABLECHANGED_ENABLED
                0x0014957c                ARCONTROLLER_DICTIONARY_KEY_POWERUP_NETWORKSTATE_LINKQUALITYCHANGED_QUALITY
                0x00149580                ARCONTROLLER_DICTIONARY_KEY_POWERUP_NETWORKSTATE_WIFIAUTHCHANNELLISTCHANGED_IN_OR_OUT
                0x00149584                ARCONTROLLER_DICTIONARY_KEY_POWERUP_NETWORKSTATE_WIFIAUTHCHANNELLISTCHANGED_CHANNEL
                0x00149588                ARCONTROLLER_DICTIONARY_KEY_POWERUP_NETWORKSTATE_WIFIAUTHCHANNELLISTCHANGED_BAND
                0x0014958c                ARCONTROLLER_DICTIONARY_KEY_POWERUP_NETWORKSTATE_WIFISCANLISTCHANGED_CHANNEL
                0x00149590                ARCONTROLLER_DICTIONARY_KEY_POWERUP_NETWORKSTATE_WIFISCANLISTCHANGED_BAND
                0x00149594                ARCONTROLLER_DICTIONARY_KEY_POWERUP_NETWORKSTATE_WIFISCANLISTCHANGED_RSSI
                0x00149598                ARCONTROLLER_DICTIONARY_KEY_POWERUP_NETWORKSTATE_WIFISCANLISTCHANGED_SSID
                0x0014959c                ARCONTROLLER_DICTIONARY_KEY_POWERUP_NETWORKSETTINGSSTATE_WIFISELECTIONCHANGED_CHANNEL
                0x001495a0                ARCONTROLLER_DICTIONARY_KEY_POWERUP_NETWORKSETTINGSSTATE_WIFISELECTIONCHANGED_BAND
                0x001495a4                ARCONTROLLER_DICTIONARY_KEY_POWERUP_NETWORKSETTINGSSTATE_WIFISELECTIONCHANGED_TYPE
                0x001495a8                ARCONTROLLER_DICTIONARY_KEY_POWERUP_MEDIARECORDEVENT_VIDEOEVENTCHANGED_ERROR
                0x001495ac                ARCONTROLLER_DICTIONARY_KEY_POWERUP_MEDIARECORDEVENT_VIDEOEVENTCHANGED_EVENT
                0x001495b0                ARCONTROLLER_DICTIONARY_KEY_POWERUP_MEDIARECORDEVENT_PICTUREEVENTCHANGED_ERROR
                0x001495b4                ARCONTROLLER_DICTIONARY_KEY_POWERUP_MEDIARECORDEVENT_PICTUREEVENTCHANGED_EVENT
                0x001495b8                ARCONTROLLER_DICTIONARY_KEY_POWERUP_MEDIARECORDSTATE_VIDEOSTATECHANGEDV2_ERROR
                0x001495bc                ARCONTROLLER_DICTIONARY_KEY_POWERUP_MEDIARECORDSTATE_VIDEOSTATECHANGEDV2_STATE
                0x001495c0                ARCONTROLLER_DICTIONARY_KEY_POWERUP_MEDIARECORDSTATE_PICTURESTATECHANGEDV2_ERROR
                0x001495c4                ARCONTROLLER_DICTIONARY_KEY_POWERUP_MEDIARECORDSTATE_PICTURESTATECHANGEDV2_STATE
                0x001495c8                ARCONTROLLER_DICTIONARY_KEY_POWERUP_PILOTINGSETTINGSSTATE_SETTINGCHANGED_MAX
                0x001495cc                ARCONTROLLER_DICTIONARY_KEY_POWERUP_PILOTINGSETTINGSSTATE_SETTINGCHANGED_MIN
                0x001495d0                ARCONTROLLER_DICTIONARY_KEY_POWERUP_PILOTINGSETTINGSSTATE_SETTINGCHANGED_CURRENT
                0x001495d4                ARCONTROLLER_DICTIONARY_KEY_POWERUP_PILOTINGSETTINGSSTATE_SETTINGCHANGED_SETTING
                0x001495d8                ARCONTROLLER_DICTIONARY_KEY_POWERUP_PILOTINGSTATE_ALTITUDECHANGED_ALTITUDE
                0x001495dc                ARCONTROLLER_DICTIONARY_KEY_POWERUP_PILOTINGSTATE_ATTITUDECHANGED_YAW
                0x001495e0                ARCONTROLLER_DICTIONARY_KEY_POWERUP_PILOTINGSTATE_ATTITUDECHANGED_PITCH
                0x001495e4                ARCONTROLLER_DICTIONARY_KEY_POWERUP_PILOTINGSTATE_ATTITUDECHANGED_ROLL
                0x001495e8                ARCONTROLLER_DICTIONARY_KEY_POWERUP_PILOTINGSTATE_MOTORMODECHANGED_MODE
                0x001495ec                ARCONTROLLER_DICTIONARY_KEY_POWERUP_PILOTINGSTATE_FLYINGSTATECHANGED_STATE
                0x001495f0                ARCONTROLLER_DICTIONARY_KEY_POWERUP_PILOTINGSTATE_ALERTSTATECHANGED_STATE
                0x001495f4                ARCONTROLLER_DICTIONARY_KEY_MINIDRONE_NAVIGATIONDATASTATE_DRONEPOSITION_TS
                0x001495f8                ARCONTROLLER_DICTIONARY_KEY_MINIDRONE_NAVIGATIONDATASTATE_DRONEPOSITION_PSI
                0x001495fc                ARCONTROLLER_DICTIONARY_KEY_MINIDRONE_NAVIGATIONDATASTATE_DRONEPOSITION_POSZ
                0x00149600                ARCONTROLLER_DICTIONARY_KEY_MINIDRONE_NAVIGATIONDATASTATE_DRONEPOSITION_POSY
                0x00149604                ARCONTROLLER_DICTIONARY_KEY_MINIDRONE_NAVIGATIONDATASTATE_DRONEPOSITION_POSX
                0x00149608                ARCONTROLLER_DICTIONARY_KEY_MINIDRONE_USBACCESSORYSTATE_GUNSTATE_STATE
                0x0014960c                ARCONTROLLER_DICTIONARY_KEY_MINIDRONE_USBACCESSORYSTATE_GUNSTATE_ID
                0x00149610                ARCONTROLLER_DICTIONARY_KEY_MINIDRONE_USBACCESSORYSTATE_CLAWSTATE_STATE
                0x00149614                ARCONTROLLER_DICTIONARY_KEY_MINIDRONE_USBACCESSORYSTATE_CLAWSTATE_ID
                0x00149618                ARCONTROLLER_DICTIONARY_KEY_MINIDRONE_USBACCESSORYSTATE_LIGHTSTATE_INTENSITY
                0x0014961c                ARCONTROLLER_DICTIONARY_KEY_MINIDRONE_USBACCESSORYSTATE_LIGHTSTATE_STATE
                0x00149620                ARCONTROLLER_DICTIONARY_KEY_MINIDRONE_USBACCESSORYSTATE_LIGHTSTATE_ID
                0x00149624                ARCONTROLLER_DICTIONARY_KEY_MINIDRONE_FLOODCONTROLSTATE_FLOODCONTROLCHANGED_DELAY
                0x00149628                ARCONTROLLER_DICTIONARY_KEY_MINIDRONE_SETTINGSSTATE_CUTOUTMODECHANGED_ENABLE
                0x0014962c                ARCONTROLLER_DICTIONARY_KEY_MINIDRONE_SETTINGSSTATE_PRODUCTINERTIALVERSIONCHANGED_HARDWARE
                0x00149630                ARCONTROLLER_DICTIONARY_KEY_MINIDRONE_SETTINGSSTATE_PRODUCTINERTIALVERSIONCHANGED_SOFTWARE
                0x00149634                ARCONTROLLER_DICTIONARY_KEY_MINIDRONE_SETTINGSSTATE_PRODUCTMOTORSVERSIONCHANGED_HARDWARE
                0x00149638                ARCONTROLLER_DICTIONARY_KEY_MINIDRONE_SETTINGSSTATE_PRODUCTMOTORSVERSIONCHANGED_SOFTWARE
                0x0014963c                ARCONTROLLER_DICTIONARY_KEY_MINIDRONE_SETTINGSSTATE_PRODUCTMOTORSVERSIONCHANGED_TYPE
                0x00149640                ARCONTROLLER_DICTIONARY_KEY_MINIDRONE_SETTINGSSTATE_PRODUCTMOTORSVERSIONCHANGED_MOTOR
                0x00149644                ARCONTROLLER_DICTIONARY_KEY_MINIDRONE_SPEEDSETTINGSSTATE_MAXPLANEMODEROTATIONSPEEDCHANGED_MAX
                0x00149648                ARCONTROLLER_DICTIONARY_KEY_MINIDRONE_SPEEDSETTINGSSTATE_MAXPLANEMODEROTATIONSPEEDCHANGED_MIN
                0x0014964c                ARCONTROLLER_DICTIONARY_KEY_MINIDRONE_SPEEDSETTINGSSTATE_MAXPLANEMODEROTATIONSPEEDCHANGED_CURRENT
                0x00149650                ARCONTROLLER_DICTIONARY_KEY_MINIDRONE_SPEEDSETTINGSSTATE_MAXHORIZONTALSPEEDCHANGED_MAX
                0x00149654                ARCONTROLLER_DICTIONARY_KEY_MINIDRONE_SPEEDSETTINGSSTATE_MAXHORIZONTALSPEEDCHANGED_MIN
                0x00149658                ARCONTROLLER_DICTIONARY_KEY_MINIDRONE_SPEEDSETTINGSSTATE_MAXHORIZONTALSPEEDCHANGED_CURRENT
                0x0014965c                ARCONTROLLER_DICTIONARY_KEY_MINIDRONE_SPEEDSETTINGSSTATE_WHEELSCHANGED_PRESENT
                0x00149660                ARCONTROLLER_DICTIONARY_KEY_MINIDRONE_SPEEDSETTINGSSTATE_MAXROTATIONSPEEDCHANGED_MAX
                0x00149664                ARCONTROLLER_DICTIONARY_KEY_MINIDRONE_SPEEDSETTINGSSTATE_MAXROTATIONSPEEDCHANGED_MIN
                0x00149668                ARCONTROLLER_DICTIONARY_KEY_MINIDRONE_SPEEDSETTINGSSTATE_MAXROTATIONSPEEDCHANGED_CURRENT
                0x0014966c                ARCONTROLLER_DICTIONARY_KEY_MINIDRONE_SPEEDSETTINGSSTATE_MAXVERTICALSPEEDCHANGED_MAX
                0x00149670                ARCONTROLLER_DICTIONARY_KEY_MINIDRONE_SPEEDSETTINGSSTATE_MAXVERTICALSPEEDCHANGED_MIN
                0x00149674                ARCONTROLLER_DICTIONARY_KEY_MINIDRONE_SPEEDSETTINGSSTATE_MAXVERTICALSPEEDCHANGED_CURRENT
                0x00149678                ARCONTROLLER_DICTIONARY_KEY_MINIDRONE_PILOTINGSETTINGSSTATE_PLANEMODEPITCHCHANGED_MAX
                0x0014967c                ARCONTROLLER_DICTIONARY_KEY_MINIDRONE_PILOTINGSETTINGSSTATE_PLANEMODEPITCHCHANGED_MIN
                0x00149680                ARCONTROLLER_DICTIONARY_KEY_MINIDRONE_PILOTINGSETTINGSSTATE_PLANEMODEPITCHCHANGED_CURRENT
                0x00149684                ARCONTROLLER_DICTIONARY_KEY_MINIDRONE_PILOTINGSETTINGSSTATE_MAXTILTCHANGED_MAX
                0x00149688                ARCONTROLLER_DICTIONARY_KEY_MINIDRONE_PILOTINGSETTINGSSTATE_MAXTILTCHANGED_MIN
                0x0014968c                ARCONTROLLER_DICTIONARY_KEY_MINIDRONE_PILOTINGSETTINGSSTATE_MAXTILTCHANGED_CURRENT
                0x00149690                ARCONTROLLER_DICTIONARY_KEY_MINIDRONE_PILOTINGSETTINGSSTATE_MAXALTITUDECHANGED_MAX
                0x00149694                ARCONTROLLER_DICTIONARY_KEY_MINIDRONE_PILOTINGSETTINGSSTATE_MAXALTITUDECHANGED_MIN
                0x00149698                ARCONTROLLER_DICTIONARY_KEY_MINIDRONE_PILOTINGSETTINGSSTATE_MAXALTITUDECHANGED_CURRENT
                0x0014969c                ARCONTROLLER_DICTIONARY_KEY_MINIDRONE_MEDIARECORDEVENT_PICTUREEVENTCHANGED_ERROR
                0x001496a0                ARCONTROLLER_DICTIONARY_KEY_MINIDRONE_MEDIARECORDEVENT_PICTUREEVENTCHANGED_EVENT
                0x001496a4                ARCONTROLLER_DICTIONARY_KEY_MINIDRONE_MEDIARECORDSTATE_PICTURESTATECHANGEDV2_ERROR
                0x001496a8                ARCONTROLLER_DICTIONARY_KEY_MINIDRONE_MEDIARECORDSTATE_PICTURESTATECHANGEDV2_STATE
                0x001496ac                ARCONTROLLER_DICTIONARY_KEY_MINIDRONE_MEDIARECORDSTATE_PICTURESTATECHANGED_MASS_STORAGE_ID
                0x001496b0                ARCONTROLLER_DICTIONARY_KEY_MINIDRONE_MEDIARECORDSTATE_PICTURESTATECHANGED_STATE
                0x001496b4                ARCONTROLLER_DICTIONARY_KEY_MINIDRONE_PILOTINGSTATE_PLANEGEARBOXCHANGED_STATE
                0x001496b8                ARCONTROLLER_DICTIONARY_KEY_MINIDRONE_PILOTINGSTATE_FLYINGMODECHANGED_MODE
                0x001496bc                ARCONTROLLER_DICTIONARY_KEY_MINIDRONE_PILOTINGSTATE_AUTOTAKEOFFMODECHANGED_STATE
                0x001496c0                ARCONTROLLER_DICTIONARY_KEY_MINIDRONE_PILOTINGSTATE_ALERTSTATECHANGED_STATE
                0x001496c4                ARCONTROLLER_DICTIONARY_KEY_MINIDRONE_PILOTINGSTATE_FLYINGSTATECHANGED_STATE
                0x001496c8                ARCONTROLLER_DICTIONARY_KEY_MAPPER_INVERTEDMAPITEM_INVERTED
                0x001496cc                ARCONTROLLER_DICTIONARY_KEY_MAPPER_INVERTEDMAPITEM_AXIS
                0x001496d0                ARCONTROLLER_DICTIONARY_KEY_MAPPER_INVERTEDMAPITEM_PRODUCT
                0x001496d4                ARCONTROLLER_DICTIONARY_KEY_MAPPER_INVERTEDMAPITEM_UID
                0x001496d8                ARCONTROLLER_DICTIONARY_KEY_MAPPER_EXPOMAPITEM_EXPO
                0x001496dc                ARCONTROLLER_DICTIONARY_KEY_MAPPER_EXPOMAPITEM_AXIS
                0x001496e0                ARCONTROLLER_DICTIONARY_KEY_MAPPER_EXPOMAPITEM_PRODUCT
                0x001496e4                ARCONTROLLER_DICTIONARY_KEY_MAPPER_EXPOMAPITEM_UID
                0x001496e8                ARCONTROLLER_DICTIONARY_KEY_MAPPER_APPLICATIONBUTTONEVENT_ACTION
                0x001496ec                ARCONTROLLER_DICTIONARY_KEY_MAPPER_APPLICATIONAXISEVENT_VALUE
                0x001496f0                ARCONTROLLER_DICTIONARY_KEY_MAPPER_APPLICATIONAXISEVENT_ACTION
                0x001496f4                ARCONTROLLER_DICTIONARY_KEY_MAPPER_AXISMAPPINGITEM_BUTTONS
                0x001496f8                ARCONTROLLER_DICTIONARY_KEY_MAPPER_AXISMAPPINGITEM_AXIS
                0x001496fc                ARCONTROLLER_DICTIONARY_KEY_MAPPER_AXISMAPPINGITEM_ACTION
                0x00149700                ARCONTROLLER_DICTIONARY_KEY_MAPPER_AXISMAPPINGITEM_PRODUCT
                0x00149704                ARCONTROLLER_DICTIONARY_KEY_MAPPER_AXISMAPPINGITEM_UID
                0x00149708                ARCONTROLLER_DICTIONARY_KEY_MAPPER_BUTTONMAPPINGITEM_BUTTONS
                0x0014970c                ARCONTROLLER_DICTIONARY_KEY_MAPPER_BUTTONMAPPINGITEM_ACTION
                0x00149710                ARCONTROLLER_DICTIONARY_KEY_MAPPER_BUTTONMAPPINGITEM_PRODUCT
                0x00149714                ARCONTROLLER_DICTIONARY_KEY_MAPPER_BUTTONMAPPINGITEM_UID
                0x00149718                ARCONTROLLER_DICTIONARY_KEY_MAPPER_GRABAXISEVENT_VALUE
                0x0014971c                ARCONTROLLER_DICTIONARY_KEY_MAPPER_GRABAXISEVENT_AXIS
                0x00149720                ARCONTROLLER_DICTIONARY_KEY_MAPPER_GRABBUTTONEVENT_EVENT
                0x00149724                ARCONTROLLER_DICTIONARY_KEY_MAPPER_GRABBUTTONEVENT_BUTTON
                0x00149728                ARCONTROLLER_DICTIONARY_KEY_MAPPER_GRABSTATE_BUTTONS_STATE
                0x0014972c                ARCONTROLLER_DICTIONARY_KEY_MAPPER_GRABSTATE_AXES
                0x00149730                ARCONTROLLER_DICTIONARY_KEY_MAPPER_GRABSTATE_BUTTONS
                0x00149734                ARCONTROLLER_DICTIONARY_KEY_JUMPINGSUMO_VIDEOSETTINGSSTATE_AUTORECORDCHANGED_ENABLED
                0x00149738                ARCONTROLLER_DICTIONARY_KEY_JUMPINGSUMO_MEDIASTREAMINGSTATE_VIDEOENABLECHANGED_ENABLED
                0x0014973c                ARCONTROLLER_DICTIONARY_KEY_JUMPINGSUMO_SPEEDSETTINGSSTATE_OUTDOORCHANGED_OUTDOOR
                0x00149740                ARCONTROLLER_DICTIONARY_KEY_JUMPINGSUMO_ROADPLANSTATE_PLAYSCRIPTCHANGED_RESULTCODE
                0x00149744                ARCONTROLLER_DICTIONARY_KEY_JUMPINGSUMO_ROADPLANSTATE_SCRIPTDELETECHANGED_RESULTCODE
                0x00149748                ARCONTROLLER_DICTIONARY_KEY_JUMPINGSUMO_ROADPLANSTATE_SCRIPTUPLOADCHANGED_RESULTCODE
                0x0014974c                ARCONTROLLER_DICTIONARY_KEY_JUMPINGSUMO_ROADPLANSTATE_SCRIPTMETADATALISTCHANGED_LASTMODIFIED
                0x00149750                ARCONTROLLER_DICTIONARY_KEY_JUMPINGSUMO_ROADPLANSTATE_SCRIPTMETADATALISTCHANGED_NAME
                0x00149754                ARCONTROLLER_DICTIONARY_KEY_JUMPINGSUMO_ROADPLANSTATE_SCRIPTMETADATALISTCHANGED_PRODUCT
                0x00149758                ARCONTROLLER_DICTIONARY_KEY_JUMPINGSUMO_ROADPLANSTATE_SCRIPTMETADATALISTCHANGED_VERSION
                0x0014975c                ARCONTROLLER_DICTIONARY_KEY_JUMPINGSUMO_ROADPLANSTATE_SCRIPTMETADATALISTCHANGED_UUID
                0x00149760                ARCONTROLLER_DICTIONARY_KEY_JUMPINGSUMO_AUDIOSETTINGSSTATE_THEMECHANGED_THEME
                0x00149764                ARCONTROLLER_DICTIONARY_KEY_JUMPINGSUMO_AUDIOSETTINGSSTATE_MASTERVOLUMECHANGED_VOLUME
                0x00149768                ARCONTROLLER_DICTIONARY_KEY_JUMPINGSUMO_NETWORKSTATE_LINKQUALITYCHANGED_QUALITY
                0x0014976c                ARCONTROLLER_DICTIONARY_KEY_JUMPINGSUMO_NETWORKSTATE_WIFIAUTHCHANNELLISTCHANGED_IN_OR_OUT
                0x00149770                ARCONTROLLER_DICTIONARY_KEY_JUMPINGSUMO_NETWORKSTATE_WIFIAUTHCHANNELLISTCHANGED_CHANNEL
                0x00149774                ARCONTROLLER_DICTIONARY_KEY_JUMPINGSUMO_NETWORKSTATE_WIFIAUTHCHANNELLISTCHANGED_BAND
                0x00149778                ARCONTROLLER_DICTIONARY_KEY_JUMPINGSUMO_NETWORKSTATE_WIFISCANLISTCHANGED_CHANNEL
                0x0014977c                ARCONTROLLER_DICTIONARY_KEY_JUMPINGSUMO_NETWORKSTATE_WIFISCANLISTCHANGED_BAND
                0x00149780                ARCONTROLLER_DICTIONARY_KEY_JUMPINGSUMO_NETWORKSTATE_WIFISCANLISTCHANGED_RSSI
                0x00149784                ARCONTROLLER_DICTIONARY_KEY_JUMPINGSUMO_NETWORKSTATE_WIFISCANLISTCHANGED_SSID
                0x00149788                ARCONTROLLER_DICTIONARY_KEY_JUMPINGSUMO_NETWORKSETTINGSSTATE_WIFISELECTIONCHANGED_CHANNEL
                0x0014978c                ARCONTROLLER_DICTIONARY_KEY_JUMPINGSUMO_NETWORKSETTINGSSTATE_WIFISELECTIONCHANGED_BAND
                0x00149790                ARCONTROLLER_DICTIONARY_KEY_JUMPINGSUMO_NETWORKSETTINGSSTATE_WIFISELECTIONCHANGED_TYPE
                0x00149794                ARCONTROLLER_DICTIONARY_KEY_JUMPINGSUMO_MEDIARECORDEVENT_VIDEOEVENTCHANGED_ERROR
                0x00149798                ARCONTROLLER_DICTIONARY_KEY_JUMPINGSUMO_MEDIARECORDEVENT_VIDEOEVENTCHANGED_EVENT
                0x0014979c                ARCONTROLLER_DICTIONARY_KEY_JUMPINGSUMO_MEDIARECORDEVENT_PICTUREEVENTCHANGED_ERROR
                0x001497a0                ARCONTROLLER_DICTIONARY_KEY_JUMPINGSUMO_MEDIARECORDEVENT_PICTUREEVENTCHANGED_EVENT
                0x001497a4                ARCONTROLLER_DICTIONARY_KEY_JUMPINGSUMO_MEDIARECORDSTATE_VIDEOSTATECHANGEDV2_ERROR
                0x001497a8                ARCONTROLLER_DICTIONARY_KEY_JUMPINGSUMO_MEDIARECORDSTATE_VIDEOSTATECHANGEDV2_STATE
                0x001497ac                ARCONTROLLER_DICTIONARY_KEY_JUMPINGSUMO_MEDIARECORDSTATE_PICTURESTATECHANGEDV2_ERROR
                0x001497b0                ARCONTROLLER_DICTIONARY_KEY_JUMPINGSUMO_MEDIARECORDSTATE_PICTURESTATECHANGEDV2_STATE
                0x001497b4                ARCONTROLLER_DICTIONARY_KEY_JUMPINGSUMO_MEDIARECORDSTATE_VIDEOSTATECHANGED_MASS_STORAGE_ID
                0x001497b8                ARCONTROLLER_DICTIONARY_KEY_JUMPINGSUMO_MEDIARECORDSTATE_VIDEOSTATECHANGED_STATE
                0x001497bc                ARCONTROLLER_DICTIONARY_KEY_JUMPINGSUMO_MEDIARECORDSTATE_PICTURESTATECHANGED_MASS_STORAGE_ID
                0x001497c0                ARCONTROLLER_DICTIONARY_KEY_JUMPINGSUMO_MEDIARECORDSTATE_PICTURESTATECHANGED_STATE
                0x001497c4                ARCONTROLLER_DICTIONARY_KEY_JUMPINGSUMO_SETTINGSSTATE_PRODUCTGPSVERSIONCHANGED_HARDWARE
                0x001497c8                ARCONTROLLER_DICTIONARY_KEY_JUMPINGSUMO_SETTINGSSTATE_PRODUCTGPSVERSIONCHANGED_SOFTWARE
                0x001497cc                ARCONTROLLER_DICTIONARY_KEY_JUMPINGSUMO_ANIMATIONSSTATE_JUMPMOTORPROBLEMCHANGED_ERROR
                0x001497d0                ARCONTROLLER_DICTIONARY_KEY_JUMPINGSUMO_ANIMATIONSSTATE_JUMPTYPECHANGED_STATE
                0x001497d4                ARCONTROLLER_DICTIONARY_KEY_JUMPINGSUMO_ANIMATIONSSTATE_JUMPLOADCHANGED_STATE
                0x001497d8                ARCONTROLLER_DICTIONARY_KEY_JUMPINGSUMO_PILOTINGSTATE_SPEEDCHANGED_REALSPEED
                0x001497dc                ARCONTROLLER_DICTIONARY_KEY_JUMPINGSUMO_PILOTINGSTATE_SPEEDCHANGED_SPEED
                0x001497e0                ARCONTROLLER_DICTIONARY_KEY_JUMPINGSUMO_PILOTINGSTATE_ALERTSTATECHANGED_STATE
                0x001497e4                ARCONTROLLER_DICTIONARY_KEY_JUMPINGSUMO_PILOTINGSTATE_POSTURECHANGED_STATE
                0x001497e8                ARCONTROLLER_DICTIONARY_KEY_DRONE_MANAGER_CONNECTIONREFUSED_NAME
                0x001497ec                ARCONTROLLER_DICTIONARY_KEY_DRONE_MANAGER_CONNECTIONREFUSED_MODEL
                0x001497f0                ARCONTROLLER_DICTIONARY_KEY_DRONE_MANAGER_CONNECTIONREFUSED_SERIAL
                0x001497f4                ARCONTROLLER_DICTIONARY_KEY_DRONE_MANAGER_AUTHENTICATIONFAILED_NAME
                0x001497f8                ARCONTROLLER_DICTIONARY_KEY_DRONE_MANAGER_AUTHENTICATIONFAILED_MODEL
                0x001497fc                ARCONTROLLER_DICTIONARY_KEY_DRONE_MANAGER_AUTHENTICATIONFAILED_SERIAL
                0x00149800                ARCONTROLLER_DICTIONARY_KEY_DRONE_MANAGER_CONNECTIONSTATE_NAME
                0x00149804                ARCONTROLLER_DICTIONARY_KEY_DRONE_MANAGER_CONNECTIONSTATE_MODEL
                0x00149808                ARCONTROLLER_DICTIONARY_KEY_DRONE_MANAGER_CONNECTIONSTATE_SERIAL
                0x0014980c                ARCONTROLLER_DICTIONARY_KEY_DRONE_MANAGER_CONNECTIONSTATE_STATE
                0x00149810                ARCONTROLLER_DICTIONARY_KEY_DRONE_MANAGER_DRONELISTITEM_RSSI
                0x00149814                ARCONTROLLER_DICTIONARY_KEY_DRONE_MANAGER_DRONELISTITEM_HAS_SAVED_KEY
                0x00149818                ARCONTROLLER_DICTIONARY_KEY_DRONE_MANAGER_DRONELISTITEM_SECURITY
                0x0014981c                ARCONTROLLER_DICTIONARY_KEY_DRONE_MANAGER_DRONELISTITEM_VISIBLE
                0x00149820                ARCONTROLLER_DICTIONARY_KEY_DRONE_MANAGER_DRONELISTITEM_ACTIVE
                0x00149824                ARCONTROLLER_DICTIONARY_KEY_DRONE_MANAGER_DRONELISTITEM_CONNECTION_ORDER
                0x00149828                ARCONTROLLER_DICTIONARY_KEY_DRONE_MANAGER_DRONELISTITEM_NAME
                0x0014982c                ARCONTROLLER_DICTIONARY_KEY_DRONE_MANAGER_DRONELISTITEM_MODEL
                0x00149830                ARCONTROLLER_DICTIONARY_KEY_DRONE_MANAGER_DRONELISTITEM_SERIAL
                0x00149834                ARCONTROLLER_DICTIONARY_KEY_DEBUG_SETTINGSLIST_VALUE
                0x00149838                ARCONTROLLER_DICTIONARY_KEY_DEBUG_SETTINGSLIST_ID
                0x0014983c                ARCONTROLLER_DICTIONARY_KEY_DEBUG_SETTINGSINFO_VALUE
                0x00149840                ARCONTROLLER_DICTIONARY_KEY_DEBUG_SETTINGSINFO_RANGE_STEP
                0x00149844                ARCONTROLLER_DICTIONARY_KEY_DEBUG_SETTINGSINFO_RANGE_MAX
                0x00149848                ARCONTROLLER_DICTIONARY_KEY_DEBUG_SETTINGSINFO_RANGE_MIN
                0x0014984c                ARCONTROLLER_DICTIONARY_KEY_DEBUG_SETTINGSINFO_MODE
                0x00149850                ARCONTROLLER_DICTIONARY_KEY_DEBUG_SETTINGSINFO_TYPE
                0x00149854                ARCONTROLLER_DICTIONARY_KEY_DEBUG_SETTINGSINFO_LABEL
                0x00149858                ARCONTROLLER_DICTIONARY_KEY_DEBUG_SETTINGSINFO_ID
                0x0014985c                ARCONTROLLER_DICTIONARY_KEY_DEBUG_SETTINGSINFO_LISTFLAGS
                0x00149860                ARCONTROLLER_DICTIONARY_KEY_COMMON_RUNSTATE_RUNIDCHANGED_RUNID
                0x00149864                ARCONTROLLER_DICTIONARY_KEY_COMMON_CHARGERSTATE_CHARGINGINFO_FULLCHARGINGTIME
                0x00149868                ARCONTROLLER_DICTIONARY_KEY_COMMON_CHARGERSTATE_CHARGINGINFO_INTENSITY
                0x0014986c                ARCONTROLLER_DICTIONARY_KEY_COMMON_CHARGERSTATE_CHARGINGINFO_RATE
                0x00149870                ARCONTROLLER_DICTIONARY_KEY_COMMON_CHARGERSTATE_CHARGINGINFO_PHASE
                0x00149874                ARCONTROLLER_DICTIONARY_KEY_COMMON_CHARGERSTATE_LASTCHARGERATECHANGED_RATE
                0x00149878                ARCONTROLLER_DICTIONARY_KEY_COMMON_CHARGERSTATE_CURRENTCHARGESTATECHANGED_PHASE
                0x0014987c                ARCONTROLLER_DICTIONARY_KEY_COMMON_CHARGERSTATE_CURRENTCHARGESTATECHANGED_STATUS
                0x00149880                ARCONTROLLER_DICTIONARY_KEY_COMMON_CHARGERSTATE_MAXCHARGERATECHANGED_RATE
                0x00149884                ARCONTROLLER_DICTIONARY_KEY_COMMON_ACCESSORYSTATE_ACCESSORYCONFIGMODIFICATIONENABLED_ENABLED
                0x00149888                ARCONTROLLER_DICTIONARY_KEY_COMMON_ACCESSORYSTATE_ACCESSORYCONFIGCHANGED_ERROR
                0x0014988c                ARCONTROLLER_DICTIONARY_KEY_COMMON_ACCESSORYSTATE_ACCESSORYCONFIGCHANGED_NEWACCESSORY
                0x00149890                ARCONTROLLER_DICTIONARY_KEY_COMMON_ACCESSORYSTATE_SUPPORTEDACCESSORIESLISTCHANGED_ACCESSORY
                0x00149894                ARCONTROLLER_DICTIONARY_KEY_COMMON_ANIMATIONSSTATE_LIST_ERROR
                0x00149898                ARCONTROLLER_DICTIONARY_KEY_COMMON_ANIMATIONSSTATE_LIST_STATE
                0x0014989c                ARCONTROLLER_DICTIONARY_KEY_COMMON_ANIMATIONSSTATE_LIST_ANIM
                0x001498a0                ARCONTROLLER_DICTIONARY_KEY_COMMON_HEADLIGHTSSTATE_INTENSITYCHANGED_RIGHT
                0x001498a4                ARCONTROLLER_DICTIONARY_KEY_COMMON_HEADLIGHTSSTATE_INTENSITYCHANGED_LEFT
                0x001498a8                ARCONTROLLER_DICTIONARY_KEY_COMMON_AUDIOSTATE_AUDIOSTREAMINGRUNNING_RUNNING
                0x001498ac                ARCONTROLLER_DICTIONARY_KEY_COMMON_ARLIBSVERSIONSSTATE_DEVICELIBARCOMMANDSVERSION_VERSION
                0x001498b0                ARCONTROLLER_DICTIONARY_KEY_COMMON_ARLIBSVERSIONSSTATE_SKYCONTROLLERLIBARCOMMANDSVERSION_VERSION
                0x001498b4                ARCONTROLLER_DICTIONARY_KEY_COMMON_ARLIBSVERSIONSSTATE_CONTROLLERLIBARCOMMANDSVERSION_VERSION
                0x001498b8                ARCONTROLLER_DICTIONARY_KEY_COMMON_FLIGHTPLANSTATE_LOCKSTATECHANGED_LOCKSTATE
                0x001498bc                ARCONTROLLER_DICTIONARY_KEY_COMMON_FLIGHTPLANSTATE_COMPONENTSTATELISTCHANGED_STATE
                0x001498c0                ARCONTROLLER_DICTIONARY_KEY_COMMON_FLIGHTPLANSTATE_COMPONENTSTATELISTCHANGED_COMPONENT
                0x001498c4                ARCONTROLLER_DICTIONARY_KEY_COMMON_FLIGHTPLANSTATE_AVAILABILITYSTATECHANGED_AVAILABILITYSTATE
                0x001498c8                ARCONTROLLER_DICTIONARY_KEY_COMMON_CAMERASETTINGSSTATE_CAMERASETTINGSCHANGED_TILTMIN
                0x001498cc                ARCONTROLLER_DICTIONARY_KEY_COMMON_CAMERASETTINGSSTATE_CAMERASETTINGSCHANGED_TILTMAX
                0x001498d0                ARCONTROLLER_DICTIONARY_KEY_COMMON_CAMERASETTINGSSTATE_CAMERASETTINGSCHANGED_PANMIN
                0x001498d4                ARCONTROLLER_DICTIONARY_KEY_COMMON_CAMERASETTINGSSTATE_CAMERASETTINGSCHANGED_PANMAX
                0x001498d8                ARCONTROLLER_DICTIONARY_KEY_COMMON_CAMERASETTINGSSTATE_CAMERASETTINGSCHANGED_FOV
                0x001498dc                ARCONTROLLER_DICTIONARY_KEY_COMMON_CALIBRATIONSTATE_PITOTCALIBRATIONSTATECHANGED_LASTERROR
                0x001498e0                ARCONTROLLER_DICTIONARY_KEY_COMMON_CALIBRATIONSTATE_PITOTCALIBRATIONSTATECHANGED_STATE
                0x001498e4                ARCONTROLLER_DICTIONARY_KEY_COMMON_CALIBRATIONSTATE_MAGNETOCALIBRATIONSTARTEDCHANGED_STARTED
                0x001498e8                ARCONTROLLER_DICTIONARY_KEY_COMMON_CALIBRATIONSTATE_MAGNETOCALIBRATIONAXISTOCALIBRATECHANGED_AXIS
                0x001498ec                ARCONTROLLER_DICTIONARY_KEY_COMMON_CALIBRATIONSTATE_MAGNETOCALIBRATIONREQUIREDSTATE_REQUIRED
                0x001498f0                ARCONTROLLER_DICTIONARY_KEY_COMMON_CALIBRATIONSTATE_MAGNETOCALIBRATIONSTATECHANGED_CALIBRATIONFAILED
                0x001498f4                ARCONTROLLER_DICTIONARY_KEY_COMMON_CALIBRATIONSTATE_MAGNETOCALIBRATIONSTATECHANGED_ZAXISCALIBRATION
                0x001498f8                ARCONTROLLER_DICTIONARY_KEY_COMMON_CALIBRATIONSTATE_MAGNETOCALIBRATIONSTATECHANGED_YAXISCALIBRATION
                0x001498fc                ARCONTROLLER_DICTIONARY_KEY_COMMON_CALIBRATIONSTATE_MAGNETOCALIBRATIONSTATECHANGED_XAXISCALIBRATION
                0x00149900                ARCONTROLLER_DICTIONARY_KEY_COMMON_MAVLINKSTATE_MAVLINKPLAYERRORSTATECHANGED_ERROR
                0x00149904                ARCONTROLLER_DICTIONARY_KEY_COMMON_MAVLINKSTATE_MAVLINKFILEPLAYINGSTATECHANGED_TYPE
                0x00149908                ARCONTROLLER_DICTIONARY_KEY_COMMON_MAVLINKSTATE_MAVLINKFILEPLAYINGSTATECHANGED_FILEPATH
                0x0014990c                ARCONTROLLER_DICTIONARY_KEY_COMMON_MAVLINKSTATE_MAVLINKFILEPLAYINGSTATECHANGED_STATE
                0x00149910                ARCONTROLLER_DICTIONARY_KEY_COMMON_WIFISETTINGSSTATE_OUTDOORSETTINGSCHANGED_OUTDOOR
                0x00149914                ARCONTROLLER_DICTIONARY_KEY_COMMON_OVERHEATSTATE_OVERHEATREGULATIONCHANGED_REGULATIONTYPE
                0x00149918                ARCONTROLLER_DICTIONARY_KEY_COMMON_COMMONSTATE_MASSSTORAGECONTENTFORCURRENTRUN_NBRAWPHOTOS
                0x0014991c                ARCONTROLLER_DICTIONARY_KEY_COMMON_COMMONSTATE_MASSSTORAGECONTENTFORCURRENTRUN_NBVIDEOS
                0x00149920                ARCONTROLLER_DICTIONARY_KEY_COMMON_COMMONSTATE_MASSSTORAGECONTENTFORCURRENTRUN_NBPHOTOS
                0x00149924                ARCONTROLLER_DICTIONARY_KEY_COMMON_COMMONSTATE_MASSSTORAGECONTENTFORCURRENTRUN_MASS_STORAGE_ID
                0x00149928                ARCONTROLLER_DICTIONARY_KEY_COMMON_COMMONSTATE_MASSSTORAGECONTENT_NBRAWPHOTOS
                0x0014992c                ARCONTROLLER_DICTIONARY_KEY_COMMON_COMMONSTATE_MASSSTORAGECONTENT_NBCRASHLOGS
                0x00149930                ARCONTROLLER_DICTIONARY_KEY_COMMON_COMMONSTATE_MASSSTORAGECONTENT_NBPUDS
                0x00149934                ARCONTROLLER_DICTIONARY_KEY_COMMON_COMMONSTATE_MASSSTORAGECONTENT_NBVIDEOS
                0x00149938                ARCONTROLLER_DICTIONARY_KEY_COMMON_COMMONSTATE_MASSSTORAGECONTENT_NBPHOTOS
                0x0014993c                ARCONTROLLER_DICTIONARY_KEY_COMMON_COMMONSTATE_MASSSTORAGECONTENT_MASS_STORAGE_ID
                0x00149940                ARCONTROLLER_DICTIONARY_KEY_COMMON_COMMONSTATE_DEPRECATEDMASSSTORAGECONTENTCHANGED_NBCRASHLOGS
                0x00149944                ARCONTROLLER_DICTIONARY_KEY_COMMON_COMMONSTATE_DEPRECATEDMASSSTORAGECONTENTCHANGED_NBPUDS
                0x00149948                ARCONTROLLER_DICTIONARY_KEY_COMMON_COMMONSTATE_DEPRECATEDMASSSTORAGECONTENTCHANGED_NBVIDEOS
                0x0014994c                ARCONTROLLER_DICTIONARY_KEY_COMMON_COMMONSTATE_DEPRECATEDMASSSTORAGECONTENTCHANGED_NBPHOTOS
                0x00149950                ARCONTROLLER_DICTIONARY_KEY_COMMON_COMMONSTATE_DEPRECATEDMASSSTORAGECONTENTCHANGED_MASS_STORAGE_ID
                0x00149954                ARCONTROLLER_DICTIONARY_KEY_COMMON_COMMONSTATE_COUNTRYLISTKNOWN_COUNTRYCODES
                0x00149958                ARCONTROLLER_DICTIONARY_KEY_COMMON_COMMONSTATE_COUNTRYLISTKNOWN_LISTFLAGS
                0x0014995c                ARCONTROLLER_DICTIONARY_KEY_COMMON_COMMONSTATE_PRODUCTMODEL_MODEL
                0x00149960                ARCONTROLLER_DICTIONARY_KEY_COMMON_COMMONSTATE_SENSORSSTATESLISTCHANGED_SENSORSTATE
                0x00149964                ARCONTROLLER_DICTIONARY_KEY_COMMON_COMMONSTATE_SENSORSSTATESLISTCHANGED_SENSORNAME
                0x00149968                ARCONTROLLER_DICTIONARY_KEY_COMMON_COMMONSTATE_WIFISIGNALCHANGED_RSSI
                0x0014996c                ARCONTROLLER_DICTIONARY_KEY_COMMON_COMMONSTATE_MASSSTORAGEINFOREMAININGLISTCHANGED_PHOTO_REMAINING
                0x00149970                ARCONTROLLER_DICTIONARY_KEY_COMMON_COMMONSTATE_MASSSTORAGEINFOREMAININGLISTCHANGED_REC_TIME
                0x00149974                ARCONTROLLER_DICTIONARY_KEY_COMMON_COMMONSTATE_MASSSTORAGEINFOREMAININGLISTCHANGED_FREE_SPACE
                0x00149978                ARCONTROLLER_DICTIONARY_KEY_COMMON_COMMONSTATE_CURRENTTIMECHANGED_TIME
                0x0014997c                ARCONTROLLER_DICTIONARY_KEY_COMMON_COMMONSTATE_CURRENTDATECHANGED_DATE
                0x00149980                ARCONTROLLER_DICTIONARY_KEY_COMMON_COMMONSTATE_MASSSTORAGEINFOSTATELISTCHANGED_INTERNAL
                0x00149984                ARCONTROLLER_DICTIONARY_KEY_COMMON_COMMONSTATE_MASSSTORAGEINFOSTATELISTCHANGED_FULL
                0x00149988                ARCONTROLLER_DICTIONARY_KEY_COMMON_COMMONSTATE_MASSSTORAGEINFOSTATELISTCHANGED_PLUGGED
                0x0014998c                ARCONTROLLER_DICTIONARY_KEY_COMMON_COMMONSTATE_MASSSTORAGEINFOSTATELISTCHANGED_USED_SIZE
                0x00149990                ARCONTROLLER_DICTIONARY_KEY_COMMON_COMMONSTATE_MASSSTORAGEINFOSTATELISTCHANGED_SIZE
                0x00149994                ARCONTROLLER_DICTIONARY_KEY_COMMON_COMMONSTATE_MASSSTORAGEINFOSTATELISTCHANGED_MASS_STORAGE_ID
                0x00149998                ARCONTROLLER_DICTIONARY_KEY_COMMON_COMMONSTATE_MASSSTORAGESTATELISTCHANGED_NAME
                0x0014999c                ARCONTROLLER_DICTIONARY_KEY_COMMON_COMMONSTATE_MASSSTORAGESTATELISTCHANGED_MASS_STORAGE_ID
                0x001499a0                ARCONTROLLER_DICTIONARY_KEY_COMMON_COMMONSTATE_BATTERYSTATECHANGED_PERCENT
                0x001499a4                ARCONTROLLER_DICTIONARY_KEY_COMMON_SETTINGSSTATE_AUTOCOUNTRYCHANGED_AUTOMATIC
                0x001499a8                ARCONTROLLER_DICTIONARY_KEY_COMMON_SETTINGSSTATE_COUNTRYCHANGED_CODE
                0x001499ac                ARCONTROLLER_DICTIONARY_KEY_COMMON_SETTINGSSTATE_PRODUCTSERIALLOWCHANGED_LOW
                0x001499b0                ARCONTROLLER_DICTIONARY_KEY_COMMON_SETTINGSSTATE_PRODUCTSERIALHIGHCHANGED_HIGH
                0x001499b4                ARCONTROLLER_DICTIONARY_KEY_COMMON_SETTINGSSTATE_PRODUCTVERSIONCHANGED_HARDWARE
                0x001499b8                ARCONTROLLER_DICTIONARY_KEY_COMMON_SETTINGSSTATE_PRODUCTVERSIONCHANGED_SOFTWARE
                0x001499bc                ARCONTROLLER_DICTIONARY_KEY_COMMON_SETTINGSSTATE_PRODUCTNAMECHANGED_NAME
                0x001499c0                ARCONTROLLER_DICTIONARY_KEY_COMMON_NETWORKEVENT_DISCONNECTION_CAUSE
                0x001499c4                ARCONTROLLER_DICTIONARY_KEY_ARDRONE3_PROSTATE_FEATURES_FEATURES
                0x001499c8                ARCONTROLLER_DICTIONARY_KEY_ARDRONE3_GPSSTATE_HOMETYPECHOSENCHANGED_TYPE
                0x001499cc                ARCONTROLLER_DICTIONARY_KEY_ARDRONE3_GPSSTATE_HOMETYPEAVAILABILITYCHANGED_AVAILABLE
                0x001499d0                ARCONTROLLER_DICTIONARY_KEY_ARDRONE3_GPSSTATE_HOMETYPEAVAILABILITYCHANGED_TYPE
                0x001499d4                ARCONTROLLER_DICTIONARY_KEY_ARDRONE3_GPSSTATE_NUMBEROFSATELLITECHANGED_NUMBEROFSATELLITE
                0x001499d8                ARCONTROLLER_DICTIONARY_KEY_ARDRONE3_ANTIFLICKERINGSTATE_MODECHANGED_MODE
                0x001499dc                ARCONTROLLER_DICTIONARY_KEY_ARDRONE3_ANTIFLICKERINGSTATE_ELECTRICFREQUENCYCHANGED_FREQUENCY
                0x001499e0                ARCONTROLLER_DICTIONARY_KEY_ARDRONE3_CAMERASTATE_DEFAULTCAMERAORIENTATION_PAN
                0x001499e4                ARCONTROLLER_DICTIONARY_KEY_ARDRONE3_CAMERASTATE_DEFAULTCAMERAORIENTATION_TILT
                0x001499e8                ARCONTROLLER_DICTIONARY_KEY_ARDRONE3_CAMERASTATE_ORIENTATION_PAN
                0x001499ec                ARCONTROLLER_DICTIONARY_KEY_ARDRONE3_CAMERASTATE_ORIENTATION_TILT
                0x001499f0                ARCONTROLLER_DICTIONARY_KEY_ARDRONE3_GPSSETTINGSSTATE_RETURNHOMEDELAYCHANGED_DELAY
                0x001499f4                ARCONTROLLER_DICTIONARY_KEY_ARDRONE3_GPSSETTINGSSTATE_HOMETYPECHANGED_TYPE
                0x001499f8                ARCONTROLLER_DICTIONARY_KEY_ARDRONE3_GPSSETTINGSSTATE_GPSUPDATESTATECHANGED_STATE
                0x001499fc                ARCONTROLLER_DICTIONARY_KEY_ARDRONE3_GPSSETTINGSSTATE_GPSFIXSTATECHANGED_FIXED
                0x00149a00                ARCONTROLLER_DICTIONARY_KEY_ARDRONE3_GPSSETTINGSSTATE_RESETHOMECHANGED_ALTITUDE
                0x00149a04                ARCONTROLLER_DICTIONARY_KEY_ARDRONE3_GPSSETTINGSSTATE_RESETHOMECHANGED_LONGITUDE
                0x00149a08                ARCONTROLLER_DICTIONARY_KEY_ARDRONE3_GPSSETTINGSSTATE_RESETHOMECHANGED_LATITUDE
                0x00149a0c                ARCONTROLLER_DICTIONARY_KEY_ARDRONE3_GPSSETTINGSSTATE_HOMECHANGED_ALTITUDE
                0x00149a10                ARCONTROLLER_DICTIONARY_KEY_ARDRONE3_GPSSETTINGSSTATE_HOMECHANGED_LONGITUDE
                0x00149a14                ARCONTROLLER_DICTIONARY_KEY_ARDRONE3_GPSSETTINGSSTATE_HOMECHANGED_LATITUDE
                0x00149a18                ARCONTROLLER_DICTIONARY_KEY_ARDRONE3_MEDIASTREAMINGSTATE_VIDEOSTREAMMODECHANGED_MODE
                0x00149a1c                ARCONTROLLER_DICTIONARY_KEY_ARDRONE3_MEDIASTREAMINGSTATE_VIDEOENABLECHANGED_ENABLED
                0x00149a20                ARCONTROLLER_DICTIONARY_KEY_ARDRONE3_PICTURESETTINGSSTATE_VIDEORESOLUTIONSCHANGED_TYPE
                0x00149a24                ARCONTROLLER_DICTIONARY_KEY_ARDRONE3_PICTURESETTINGSSTATE_VIDEOFRAMERATECHANGED_FRAMERATE
                0x00149a28                ARCONTROLLER_DICTIONARY_KEY_ARDRONE3_PICTURESETTINGSSTATE_VIDEORECORDINGMODECHANGED_MODE
                0x00149a2c                ARCONTROLLER_DICTIONARY_KEY_ARDRONE3_PICTURESETTINGSSTATE_VIDEOSTABILIZATIONMODECHANGED_MODE
                0x00149a30                ARCONTROLLER_DICTIONARY_KEY_ARDRONE3_PICTURESETTINGSSTATE_VIDEOAUTORECORDCHANGED_MASS_STORAGE_ID
                0x00149a34                ARCONTROLLER_DICTIONARY_KEY_ARDRONE3_PICTURESETTINGSSTATE_VIDEOAUTORECORDCHANGED_ENABLED
                0x00149a38                ARCONTROLLER_DICTIONARY_KEY_ARDRONE3_PICTURESETTINGSSTATE_TIMELAPSECHANGED_MAXINTERVAL
                0x00149a3c                ARCONTROLLER_DICTIONARY_KEY_ARDRONE3_PICTURESETTINGSSTATE_TIMELAPSECHANGED_MININTERVAL
                0x00149a40                ARCONTROLLER_DICTIONARY_KEY_ARDRONE3_PICTURESETTINGSSTATE_TIMELAPSECHANGED_INTERVAL
                0x00149a44                ARCONTROLLER_DICTIONARY_KEY_ARDRONE3_PICTURESETTINGSSTATE_TIMELAPSECHANGED_ENABLED
                0x00149a48                ARCONTROLLER_DICTIONARY_KEY_ARDRONE3_PICTURESETTINGSSTATE_SATURATIONCHANGED_MAX
                0x00149a4c                ARCONTROLLER_DICTIONARY_KEY_ARDRONE3_PICTURESETTINGSSTATE_SATURATIONCHANGED_MIN
                0x00149a50                ARCONTROLLER_DICTIONARY_KEY_ARDRONE3_PICTURESETTINGSSTATE_SATURATIONCHANGED_VALUE
                0x00149a54                ARCONTROLLER_DICTIONARY_KEY_ARDRONE3_PICTURESETTINGSSTATE_EXPOSITIONCHANGED_MAX
                0x00149a58                ARCONTROLLER_DICTIONARY_KEY_ARDRONE3_PICTURESETTINGSSTATE_EXPOSITIONCHANGED_MIN
                0x00149a5c                ARCONTROLLER_DICTIONARY_KEY_ARDRONE3_PICTURESETTINGSSTATE_EXPOSITIONCHANGED_VALUE
                0x00149a60                ARCONTROLLER_DICTIONARY_KEY_ARDRONE3_PICTURESETTINGSSTATE_AUTOWHITEBALANCECHANGED_TYPE
                0x00149a64                ARCONTROLLER_DICTIONARY_KEY_ARDRONE3_PICTURESETTINGSSTATE_PICTUREFORMATCHANGED_TYPE
                0x00149a68                ARCONTROLLER_DICTIONARY_KEY_ARDRONE3_SETTINGSSTATE_CPUID_ID
                0x00149a6c                ARCONTROLLER_DICTIONARY_KEY_ARDRONE3_SETTINGSSTATE_P7ID_SERIALID
                0x00149a70                ARCONTROLLER_DICTIONARY_KEY_ARDRONE3_SETTINGSSTATE_MOTORERRORLASTERRORCHANGED_MOTORERROR
                0x00149a74                ARCONTROLLER_DICTIONARY_KEY_ARDRONE3_SETTINGSSTATE_MOTORFLIGHTSSTATUSCHANGED_TOTALFLIGHTDURATION
                0x00149a78                ARCONTROLLER_DICTIONARY_KEY_ARDRONE3_SETTINGSSTATE_MOTORFLIGHTSSTATUSCHANGED_LASTFLIGHTDURATION
                0x00149a7c                ARCONTROLLER_DICTIONARY_KEY_ARDRONE3_SETTINGSSTATE_MOTORFLIGHTSSTATUSCHANGED_NBFLIGHTS
                0x00149a80                ARCONTROLLER_DICTIONARY_KEY_ARDRONE3_SETTINGSSTATE_MOTORSOFTWAREVERSIONCHANGED_VERSION
                0x00149a84                ARCONTROLLER_DICTIONARY_KEY_ARDRONE3_SETTINGSSTATE_MOTORERRORSTATECHANGED_MOTORERROR
                0x00149a88                ARCONTROLLER_DICTIONARY_KEY_ARDRONE3_SETTINGSSTATE_MOTORERRORSTATECHANGED_MOTORIDS
                0x00149a8c                ARCONTROLLER_DICTIONARY_KEY_ARDRONE3_SETTINGSSTATE_PRODUCTGPSVERSIONCHANGED_HARDWARE
                0x00149a90                ARCONTROLLER_DICTIONARY_KEY_ARDRONE3_SETTINGSSTATE_PRODUCTGPSVERSIONCHANGED_SOFTWARE
                0x00149a94                ARCONTROLLER_DICTIONARY_KEY_ARDRONE3_SETTINGSSTATE_PRODUCTMOTORVERSIONLISTCHANGED_HARDWARE
                0x00149a98                ARCONTROLLER_DICTIONARY_KEY_ARDRONE3_SETTINGSSTATE_PRODUCTMOTORVERSIONLISTCHANGED_SOFTWARE
                0x00149a9c                ARCONTROLLER_DICTIONARY_KEY_ARDRONE3_SETTINGSSTATE_PRODUCTMOTORVERSIONLISTCHANGED_TYPE
                0x00149aa0                ARCONTROLLER_DICTIONARY_KEY_ARDRONE3_SETTINGSSTATE_PRODUCTMOTORVERSIONLISTCHANGED_MOTOR_NUMBER
                0x00149aa4                ARCONTROLLER_DICTIONARY_KEY_ARDRONE3_NETWORKSETTINGSSTATE_WIFISECURITY_KEYTYPE
                0x00149aa8                ARCONTROLLER_DICTIONARY_KEY_ARDRONE3_NETWORKSETTINGSSTATE_WIFISECURITY_KEY
                0x00149aac                ARCONTROLLER_DICTIONARY_KEY_ARDRONE3_NETWORKSETTINGSSTATE_WIFISECURITY_TYPE
                0x00149ab0                ARCONTROLLER_DICTIONARY_KEY_ARDRONE3_NETWORKSETTINGSSTATE_WIFISECURITYCHANGED_TYPE
                0x00149ab4                ARCONTROLLER_DICTIONARY_KEY_ARDRONE3_NETWORKSETTINGSSTATE_WIFISELECTIONCHANGED_CHANNEL
                0x00149ab8                ARCONTROLLER_DICTIONARY_KEY_ARDRONE3_NETWORKSETTINGSSTATE_WIFISELECTIONCHANGED_BAND
                0x00149abc                ARCONTROLLER_DICTIONARY_KEY_ARDRONE3_NETWORKSETTINGSSTATE_WIFISELECTIONCHANGED_TYPE
                0x00149ac0                ARCONTROLLER_DICTIONARY_KEY_ARDRONE3_SPEEDSETTINGSSTATE_MAXPITCHROLLROTATIONSPEEDCHANGED_MAX
                0x00149ac4                ARCONTROLLER_DICTIONARY_KEY_ARDRONE3_SPEEDSETTINGSSTATE_MAXPITCHROLLROTATIONSPEEDCHANGED_MIN
                0x00149ac8                ARCONTROLLER_DICTIONARY_KEY_ARDRONE3_SPEEDSETTINGSSTATE_MAXPITCHROLLROTATIONSPEEDCHANGED_CURRENT
                0x00149acc                ARCONTROLLER_DICTIONARY_KEY_ARDRONE3_SPEEDSETTINGSSTATE_OUTDOORCHANGED_OUTDOOR
                0x00149ad0                ARCONTROLLER_DICTIONARY_KEY_ARDRONE3_SPEEDSETTINGSSTATE_HULLPROTECTIONCHANGED_PRESENT
                0x00149ad4                ARCONTROLLER_DICTIONARY_KEY_ARDRONE3_SPEEDSETTINGSSTATE_MAXROTATIONSPEEDCHANGED_MAX
                0x00149ad8                ARCONTROLLER_DICTIONARY_KEY_ARDRONE3_SPEEDSETTINGSSTATE_MAXROTATIONSPEEDCHANGED_MIN
                0x00149adc                ARCONTROLLER_DICTIONARY_KEY_ARDRONE3_SPEEDSETTINGSSTATE_MAXROTATIONSPEEDCHANGED_CURRENT
                0x00149ae0                ARCONTROLLER_DICTIONARY_KEY_ARDRONE3_SPEEDSETTINGSSTATE_MAXVERTICALSPEEDCHANGED_MAX
                0x00149ae4                ARCONTROLLER_DICTIONARY_KEY_ARDRONE3_SPEEDSETTINGSSTATE_MAXVERTICALSPEEDCHANGED_MIN
                0x00149ae8                ARCONTROLLER_DICTIONARY_KEY_ARDRONE3_SPEEDSETTINGSSTATE_MAXVERTICALSPEEDCHANGED_CURRENT
                0x00149aec                ARCONTROLLER_DICTIONARY_KEY_ARDRONE3_PILOTINGSETTINGSSTATE_PITCHMODECHANGED_VALUE
                0x00149af0                ARCONTROLLER_DICTIONARY_KEY_ARDRONE3_PILOTINGSETTINGSSTATE_CIRCLINGALTITUDECHANGED_MAX
                0x00149af4                ARCONTROLLER_DICTIONARY_KEY_ARDRONE3_PILOTINGSETTINGSSTATE_CIRCLINGALTITUDECHANGED_MIN
                0x00149af8                ARCONTROLLER_DICTIONARY_KEY_ARDRONE3_PILOTINGSETTINGSSTATE_CIRCLINGALTITUDECHANGED_CURRENT
                0x00149afc                ARCONTROLLER_DICTIONARY_KEY_ARDRONE3_PILOTINGSETTINGSSTATE_CIRCLINGRADIUSCHANGED_MAX
                0x00149b00                ARCONTROLLER_DICTIONARY_KEY_ARDRONE3_PILOTINGSETTINGSSTATE_CIRCLINGRADIUSCHANGED_MIN
                0x00149b04                ARCONTROLLER_DICTIONARY_KEY_ARDRONE3_PILOTINGSETTINGSSTATE_CIRCLINGRADIUSCHANGED_CURRENT
                0x00149b08                ARCONTROLLER_DICTIONARY_KEY_ARDRONE3_PILOTINGSETTINGSSTATE_CIRCLINGDIRECTIONCHANGED_VALUE
                0x00149b0c                ARCONTROLLER_DICTIONARY_KEY_ARDRONE3_PILOTINGSETTINGSSTATE_MINALTITUDECHANGED_MAX
                0x00149b10                ARCONTROLLER_DICTIONARY_KEY_ARDRONE3_PILOTINGSETTINGSSTATE_MINALTITUDECHANGED_MIN
                0x00149b14                ARCONTROLLER_DICTIONARY_KEY_ARDRONE3_PILOTINGSETTINGSSTATE_MINALTITUDECHANGED_CURRENT
                0x00149b18                ARCONTROLLER_DICTIONARY_KEY_ARDRONE3_PILOTINGSETTINGSSTATE_BANKEDTURNCHANGED_STATE
                0x00149b1c                ARCONTROLLER_DICTIONARY_KEY_ARDRONE3_PILOTINGSETTINGSSTATE_AUTONOMOUSFLIGHTMAXROTATIONSPEED_VALUE
                0x00149b20                ARCONTROLLER_DICTIONARY_KEY_ARDRONE3_PILOTINGSETTINGSSTATE_AUTONOMOUSFLIGHTMAXVERTICALACCELERATION_VALUE
                0x00149b24                ARCONTROLLER_DICTIONARY_KEY_ARDRONE3_PILOTINGSETTINGSSTATE_AUTONOMOUSFLIGHTMAXHORIZONTALACCELERATION_VALUE
                0x00149b28                ARCONTROLLER_DICTIONARY_KEY_ARDRONE3_PILOTINGSETTINGSSTATE_AUTONOMOUSFLIGHTMAXVERTICALSPEED_VALUE
                0x00149b2c                ARCONTROLLER_DICTIONARY_KEY_ARDRONE3_PILOTINGSETTINGSSTATE_AUTONOMOUSFLIGHTMAXHORIZONTALSPEED_VALUE
                0x00149b30                ARCONTROLLER_DICTIONARY_KEY_ARDRONE3_PILOTINGSETTINGSSTATE_NOFLYOVERMAXDISTANCECHANGED_SHOULDNOTFLYOVER
                0x00149b34                ARCONTROLLER_DICTIONARY_KEY_ARDRONE3_PILOTINGSETTINGSSTATE_MAXDISTANCECHANGED_MAX
                0x00149b38                ARCONTROLLER_DICTIONARY_KEY_ARDRONE3_PILOTINGSETTINGSSTATE_MAXDISTANCECHANGED_MIN
                0x00149b3c                ARCONTROLLER_DICTIONARY_KEY_ARDRONE3_PILOTINGSETTINGSSTATE_MAXDISTANCECHANGED_CURRENT
                0x00149b40                ARCONTROLLER_DICTIONARY_KEY_ARDRONE3_PILOTINGSETTINGSSTATE_ABSOLUTCONTROLCHANGED_ON
                0x00149b44                ARCONTROLLER_DICTIONARY_KEY_ARDRONE3_PILOTINGSETTINGSSTATE_MAXTILTCHANGED_MAX
                0x00149b48                ARCONTROLLER_DICTIONARY_KEY_ARDRONE3_PILOTINGSETTINGSSTATE_MAXTILTCHANGED_MIN
                0x00149b4c                ARCONTROLLER_DICTIONARY_KEY_ARDRONE3_PILOTINGSETTINGSSTATE_MAXTILTCHANGED_CURRENT
                0x00149b50                ARCONTROLLER_DICTIONARY_KEY_ARDRONE3_PILOTINGSETTINGSSTATE_MAXALTITUDECHANGED_MAX
                0x00149b54                ARCONTROLLER_DICTIONARY_KEY_ARDRONE3_PILOTINGSETTINGSSTATE_MAXALTITUDECHANGED_MIN
                0x00149b58                ARCONTROLLER_DICTIONARY_KEY_ARDRONE3_PILOTINGSETTINGSSTATE_MAXALTITUDECHANGED_CURRENT
                0x00149b5c                ARCONTROLLER_DICTIONARY_KEY_ARDRONE3_NETWORKSTATE_WIFIAUTHCHANNELLISTCHANGED_IN_OR_OUT
                0x00149b60                ARCONTROLLER_DICTIONARY_KEY_ARDRONE3_NETWORKSTATE_WIFIAUTHCHANNELLISTCHANGED_CHANNEL
                0x00149b64                ARCONTROLLER_DICTIONARY_KEY_ARDRONE3_NETWORKSTATE_WIFIAUTHCHANNELLISTCHANGED_BAND
                0x00149b68                ARCONTROLLER_DICTIONARY_KEY_ARDRONE3_NETWORKSTATE_WIFISCANLISTCHANGED_CHANNEL
                0x00149b6c                ARCONTROLLER_DICTIONARY_KEY_ARDRONE3_NETWORKSTATE_WIFISCANLISTCHANGED_BAND
                0x00149b70                ARCONTROLLER_DICTIONARY_KEY_ARDRONE3_NETWORKSTATE_WIFISCANLISTCHANGED_RSSI
                0x00149b74                ARCONTROLLER_DICTIONARY_KEY_ARDRONE3_NETWORKSTATE_WIFISCANLISTCHANGED_SSID
                0x00149b78                ARCONTROLLER_DICTIONARY_KEY_ARDRONE3_PILOTINGEVENT_MOVEBYEND_ERROR
                0x00149b7c                ARCONTROLLER_DICTIONARY_KEY_ARDRONE3_PILOTINGEVENT_MOVEBYEND_DPSI
                0x00149b80                ARCONTROLLER_DICTIONARY_KEY_ARDRONE3_PILOTINGEVENT_MOVEBYEND_DZ
                0x00149b84                ARCONTROLLER_DICTIONARY_KEY_ARDRONE3_PILOTINGEVENT_MOVEBYEND_DY
                0x00149b88                ARCONTROLLER_DICTIONARY_KEY_ARDRONE3_PILOTINGEVENT_MOVEBYEND_DX
                0x00149b8c                ARCONTROLLER_DICTIONARY_KEY_ARDRONE3_PILOTINGSTATE_LANDINGSTATECHANGED_STATE
                0x00149b90                ARCONTROLLER_DICTIONARY_KEY_ARDRONE3_PILOTINGSTATE_GPSLOCATIONCHANGED_ALTITUDE_ACCURACY
                0x00149b94                ARCONTROLLER_DICTIONARY_KEY_ARDRONE3_PILOTINGSTATE_GPSLOCATIONCHANGED_LONGITUDE_ACCURACY
                0x00149b98                ARCONTROLLER_DICTIONARY_KEY_ARDRONE3_PILOTINGSTATE_GPSLOCATIONCHANGED_LATITUDE_ACCURACY
                0x00149b9c                ARCONTROLLER_DICTIONARY_KEY_ARDRONE3_PILOTINGSTATE_GPSLOCATIONCHANGED_ALTITUDE
                0x00149ba0                ARCONTROLLER_DICTIONARY_KEY_ARDRONE3_PILOTINGSTATE_GPSLOCATIONCHANGED_LONGITUDE
                0x00149ba4                ARCONTROLLER_DICTIONARY_KEY_ARDRONE3_PILOTINGSTATE_GPSLOCATIONCHANGED_LATITUDE
                0x00149ba8                ARCONTROLLER_DICTIONARY_KEY_ARDRONE3_PILOTINGSTATE_ALTITUDECHANGED_ALTITUDE
                0x00149bac                ARCONTROLLER_DICTIONARY_KEY_ARDRONE3_PILOTINGSTATE_AUTOTAKEOFFMODECHANGED_STATE
                0x00149bb0                ARCONTROLLER_DICTIONARY_KEY_ARDRONE3_PILOTINGSTATE_ATTITUDECHANGED_YAW
                0x00149bb4                ARCONTROLLER_DICTIONARY_KEY_ARDRONE3_PILOTINGSTATE_ATTITUDECHANGED_PITCH
                0x00149bb8                ARCONTROLLER_DICTIONARY_KEY_ARDRONE3_PILOTINGSTATE_ATTITUDECHANGED_ROLL
                0x00149bbc                ARCONTROLLER_DICTIONARY_KEY_ARDRONE3_PILOTINGSTATE_SPEEDCHANGED_SPEEDZ
                0x00149bc0                ARCONTROLLER_DICTIONARY_KEY_ARDRONE3_PILOTINGSTATE_SPEEDCHANGED_SPEEDY
                0x00149bc4                ARCONTROLLER_DICTIONARY_KEY_ARDRONE3_PILOTINGSTATE_SPEEDCHANGED_SPEEDX
                0x00149bc8                ARCONTROLLER_DICTIONARY_KEY_ARDRONE3_PILOTINGSTATE_POSITIONCHANGED_ALTITUDE
                0x00149bcc                ARCONTROLLER_DICTIONARY_KEY_ARDRONE3_PILOTINGSTATE_POSITIONCHANGED_LONGITUDE
                0x00149bd0                ARCONTROLLER_DICTIONARY_KEY_ARDRONE3_PILOTINGSTATE_POSITIONCHANGED_LATITUDE
                0x00149bd4                ARCONTROLLER_DICTIONARY_KEY_ARDRONE3_PILOTINGSTATE_NAVIGATEHOMESTATECHANGED_REASON
                0x00149bd8                ARCONTROLLER_DICTIONARY_KEY_ARDRONE3_PILOTINGSTATE_NAVIGATEHOMESTATECHANGED_STATE
                0x00149bdc                ARCONTROLLER_DICTIONARY_KEY_ARDRONE3_PILOTINGSTATE_ALERTSTATECHANGED_STATE
                0x00149be0                ARCONTROLLER_DICTIONARY_KEY_ARDRONE3_PILOTINGSTATE_FLYINGSTATECHANGED_STATE
                0x00149be4                ARCONTROLLER_DICTIONARY_KEY_ARDRONE3_MEDIARECORDEVENT_VIDEOEVENTCHANGED_ERROR
                0x00149be8                ARCONTROLLER_DICTIONARY_KEY_ARDRONE3_MEDIARECORDEVENT_VIDEOEVENTCHANGED_EVENT
                0x00149bec                ARCONTROLLER_DICTIONARY_KEY_ARDRONE3_MEDIARECORDEVENT_PICTUREEVENTCHANGED_ERROR
                0x00149bf0                ARCONTROLLER_DICTIONARY_KEY_ARDRONE3_MEDIARECORDEVENT_PICTUREEVENTCHANGED_EVENT
                0x00149bf4                ARCONTROLLER_DICTIONARY_KEY_ARDRONE3_MEDIARECORDSTATE_VIDEORESOLUTIONSTATE_RECORDING
                0x00149bf8                ARCONTROLLER_DICTIONARY_KEY_ARDRONE3_MEDIARECORDSTATE_VIDEORESOLUTIONSTATE_STREAMING
                0x00149bfc                ARCONTROLLER_DICTIONARY_KEY_ARDRONE3_MEDIARECORDSTATE_VIDEOSTATECHANGEDV2_ERROR
                0x00149c00                ARCONTROLLER_DICTIONARY_KEY_ARDRONE3_MEDIARECORDSTATE_VIDEOSTATECHANGEDV2_STATE
                0x00149c04                ARCONTROLLER_DICTIONARY_KEY_ARDRONE3_MEDIARECORDSTATE_PICTURESTATECHANGEDV2_ERROR
                0x00149c08                ARCONTROLLER_DICTIONARY_KEY_ARDRONE3_MEDIARECORDSTATE_PICTURESTATECHANGEDV2_STATE
                0x00149c0c                ARCONTROLLER_DICTIONARY_KEY_ARDRONE3_MEDIARECORDSTATE_VIDEOSTATECHANGED_MASS_STORAGE_ID
                0x00149c10                ARCONTROLLER_DICTIONARY_KEY_ARDRONE3_MEDIARECORDSTATE_VIDEOSTATECHANGED_STATE
                0x00149c14                ARCONTROLLER_DICTIONARY_KEY_ARDRONE3_MEDIARECORDSTATE_PICTURESTATECHANGED_MASS_STORAGE_ID
                0x00149c18                ARCONTROLLER_DICTIONARY_KEY_ARDRONE3_MEDIARECORDSTATE_PICTURESTATECHANGED_STATE

.tm_clone_table
                0x00149c1c        0x0
 .tm_clone_table
                0x00149c1c        0x0 /usr/lib/gcc/arm-linux-gnueabihf/5/crtbeginS.o
 .tm_clone_table
                0x00149c1c        0x0 /usr/lib/gcc/arm-linux-gnueabihf/5/crtendS.o

.data1
 *(.data1)
                0x00149c1c                _edata = .
                [!provide]                PROVIDE (edata, .)
                0x00149c1c                . = .
                0x00149c1c                __bss_start = .
                0x00149c1c                __bss_start__ = .

.bss            0x00149c1c        0x8
 *(.dynbss)
 .dynbss        0x00149c1c        0x0 /usr/lib/gcc/arm-linux-gnueabihf/5/../../../arm-linux-gnueabihf/crti.o
 *(.bss .bss.* .gnu.linkonce.b.*)
 .bss           0x00149c1c        0x1 /usr/lib/gcc/arm-linux-gnueabihf/5/crtbeginS.o
 *fill*         0x00149c1d        0x3 
 .bss           0x00149c20        0x4 /home/ncs/CAPSTONE/out/arsdk-native/build/libARController/obj/Sources/ARCONTROLLER_Stream1.c.o
 *(COMMON)
                0x00149c24                . = ALIGN ((. != 0x0)?0x4:0x1)
                0x00149c24                _bss_end__ = .
                0x00149c24                __bss_end__ = .
                0x00149c24                . = ALIGN (0x4)
                0x00149c24                . = SEGMENT_START ("ldata-segment", .)
                0x00149c24                . = ALIGN (0x4)
                0x00149c24                __end__ = .
                0x00149c24                _end = .
                [!provide]                PROVIDE (end, .)
                0x00149c24                . = DATA_SEGMENT_END (.)

.stab
 *(.stab)

.stabstr
 *(.stabstr)

.stab.excl
 *(.stab.excl)

.stab.exclstr
 *(.stab.exclstr)

.stab.index
 *(.stab.index)

.stab.indexstr
 *(.stab.indexstr)

.comment        0x00000000       0x3b
 *(.comment)
 .comment       0x00000000       0x3b /usr/lib/gcc/arm-linux-gnueabihf/5/crtbeginS.o
                                 0x3c (size before relaxing)
 .comment       0x0000003b       0x3c /home/ncs/CAPSTONE/out/arsdk-native/build/libARController/obj/Sources/ARCONTROLLER_Dictionary.c.o
 .comment       0x0000003b       0x3c /home/ncs/CAPSTONE/out/arsdk-native/build/libARController/obj/Sources/ARCONTROLLER_Frame.c.o
 .comment       0x0000003b       0x3c /home/ncs/CAPSTONE/out/arsdk-native/build/libARController/obj/Sources/ARCONTROLLER_Network.c.o
 .comment       0x0000003b       0x3c /home/ncs/CAPSTONE/out/arsdk-native/build/libARController/obj/Sources/ARCONTROLLER_Stream.c.o
 .comment       0x0000003b       0x3c /home/ncs/CAPSTONE/out/arsdk-native/build/libARController/obj/Sources/ARCONTROLLER_StreamPool.c.o
 .comment       0x0000003b       0x3c /home/ncs/CAPSTONE/out/arsdk-native/build/libARController/obj/Sources/ARCONTROLLER_StreamQueue.c.o
 .comment       0x0000003b       0x3c /home/ncs/CAPSTONE/out/arsdk-native/build/libARController/obj/Sources/ARCONTROLLER_Stream1.c.o
 .comment       0x0000003b       0x3c /home/ncs/CAPSTONE/out/arsdk-native/build/libARController/obj/Sources/ARCONTROLLER_Stream2.c.o
 .comment       0x0000003b       0x3c /home/ncs/CAPSTONE/out/arsdk-native/build/libARController/obj/Sources/ARCONTROLLER_StreamSender.c.o
 .comment       0x0000003b       0x3c /home/ncs/CAPSTONE/out/arsdk-native/build/libARController/obj/gen/Sources/ARCONTROLLER_Device.c.o
 .comment       0x0000003b       0x3c /home/ncs/CAPSTONE/out/arsdk-native/build/libARController/obj/gen/Sources/ARCONTROLLER_DICTIONARY_Key.c.o
 .comment       0x0000003b       0x3c /home/ncs/CAPSTONE/out/arsdk-native/build/libARController/obj/gen/Sources/ARCONTROLLER_Error.c.o
 .comment       0x0000003b       0x3c /home/ncs/CAPSTONE/out/arsdk-native/build/libARController/obj/gen/Sources/ARCONTROLLER_Feature.c.o
 .comment       0x0000003b       0x3c /usr/lib/gcc/arm-linux-gnueabihf/5/crtendS.o

.ARM.attributes
                0x00000000       0x31
 .ARM.attributes
                0x00000000       0x27 /usr/lib/gcc/arm-linux-gnueabihf/5/../../../arm-linux-gnueabihf/crti.o
 .ARM.attributes
                0x00000027       0x33 /usr/lib/gcc/arm-linux-gnueabihf/5/crtbeginS.o
 .ARM.attributes
                0x0000005a       0x33 /home/ncs/CAPSTONE/out/arsdk-native/build/libARController/obj/Sources/ARCONTROLLER_Dictionary.c.o
 .ARM.attributes
                0x0000008d       0x33 /home/ncs/CAPSTONE/out/arsdk-native/build/libARController/obj/Sources/ARCONTROLLER_Frame.c.o
 .ARM.attributes
                0x000000c0       0x33 /home/ncs/CAPSTONE/out/arsdk-native/build/libARController/obj/Sources/ARCONTROLLER_Network.c.o
 .ARM.attributes
                0x000000f3       0x33 /home/ncs/CAPSTONE/out/arsdk-native/build/libARController/obj/Sources/ARCONTROLLER_Stream.c.o
 .ARM.attributes
                0x00000126       0x33 /home/ncs/CAPSTONE/out/arsdk-native/build/libARController/obj/Sources/ARCONTROLLER_StreamPool.c.o
 .ARM.attributes
                0x00000159       0x33 /home/ncs/CAPSTONE/out/arsdk-native/build/libARController/obj/Sources/ARCONTROLLER_StreamQueue.c.o
 .ARM.attributes
                0x0000018c       0x33 /home/ncs/CAPSTONE/out/arsdk-native/build/libARController/obj/Sources/ARCONTROLLER_Stream1.c.o
 .ARM.attributes
                0x000001bf       0x33 /home/ncs/CAPSTONE/out/arsdk-native/build/libARController/obj/Sources/ARCONTROLLER_Stream2.c.o
 .ARM.attributes
                0x000001f2       0x33 /home/ncs/CAPSTONE/out/arsdk-native/build/libARController/obj/Sources/ARCONTROLLER_StreamSender.c.o
 .ARM.attributes
                0x00000225       0x33 /home/ncs/CAPSTONE/out/arsdk-native/build/libARController/obj/gen/Sources/ARCONTROLLER_Device.c.o
 .ARM.attributes
                0x00000258       0x33 /home/ncs/CAPSTONE/out/arsdk-native/build/libARController/obj/gen/Sources/ARCONTROLLER_DICTIONARY_Key.c.o
 .ARM.attributes
                0x0000028b       0x33 /home/ncs/CAPSTONE/out/arsdk-native/build/libARController/obj/gen/Sources/ARCONTROLLER_Error.c.o
 .ARM.attributes
                0x000002be       0x33 /home/ncs/CAPSTONE/out/arsdk-native/build/libARController/obj/gen/Sources/ARCONTROLLER_Feature.c.o
 .ARM.attributes
                0x000002f1       0x33 /usr/lib/gcc/arm-linux-gnueabihf/5/crtendS.o
 .ARM.attributes
                0x00000324       0x27 /usr/lib/gcc/arm-linux-gnueabihf/5/../../../arm-linux-gnueabihf/crtn.o

.debug
 *(.debug)

.line
 *(.line)

.debug_srcinfo
 *(.debug_srcinfo)

.debug_sfnames
 *(.debug_sfnames)

.debug_aranges  0x00000000     0x2400
 *(.debug_aranges)
 .debug_aranges
                0x00000000       0x80 /home/ncs/CAPSTONE/out/arsdk-native/build/libARController/obj/Sources/ARCONTROLLER_Dictionary.c.o
 .debug_aranges
                0x00000080       0x40 /home/ncs/CAPSTONE/out/arsdk-native/build/libARController/obj/Sources/ARCONTROLLER_Frame.c.o
 .debug_aranges
                0x000000c0       0xc8 /home/ncs/CAPSTONE/out/arsdk-native/build/libARController/obj/Sources/ARCONTROLLER_Network.c.o
 .debug_aranges
                0x00000188       0x68 /home/ncs/CAPSTONE/out/arsdk-native/build/libARController/obj/Sources/ARCONTROLLER_Stream.c.o
 .debug_aranges
                0x000001f0       0x38 /home/ncs/CAPSTONE/out/arsdk-native/build/libARController/obj/Sources/ARCONTROLLER_StreamPool.c.o
 .debug_aranges
                0x00000228       0x68 /home/ncs/CAPSTONE/out/arsdk-native/build/libARController/obj/Sources/ARCONTROLLER_StreamQueue.c.o
 .debug_aranges
                0x00000290       0x98 /home/ncs/CAPSTONE/out/arsdk-native/build/libARController/obj/Sources/ARCONTROLLER_Stream1.c.o
 .debug_aranges
                0x00000328       0xa8 /home/ncs/CAPSTONE/out/arsdk-native/build/libARController/obj/Sources/ARCONTROLLER_Stream2.c.o
 .debug_aranges
                0x000003d0       0x50 /home/ncs/CAPSTONE/out/arsdk-native/build/libARController/obj/Sources/ARCONTROLLER_StreamSender.c.o
 .debug_aranges
                0x00000420      0x1e8 /home/ncs/CAPSTONE/out/arsdk-native/build/libARController/obj/gen/Sources/ARCONTROLLER_Device.c.o
 .debug_aranges
                0x00000608       0x20 /home/ncs/CAPSTONE/out/arsdk-native/build/libARController/obj/gen/Sources/ARCONTROLLER_DICTIONARY_Key.c.o
 .debug_aranges
                0x00000628       0x20 /home/ncs/CAPSTONE/out/arsdk-native/build/libARController/obj/gen/Sources/ARCONTROLLER_Error.c.o
 .debug_aranges
                0x00000648     0x1db8 /home/ncs/CAPSTONE/out/arsdk-native/build/libARController/obj/gen/Sources/ARCONTROLLER_Feature.c.o

.debug_pubnames
 *(.debug_pubnames)

.debug_info     0x00000000    0xf0c5e
 *(.debug_info .gnu.linkonce.wi.*)
 .debug_info    0x00000000     0x18d7 /home/ncs/CAPSTONE/out/arsdk-native/build/libARController/obj/Sources/ARCONTROLLER_Dictionary.c.o
 .debug_info    0x000018d7      0x493 /home/ncs/CAPSTONE/out/arsdk-native/build/libARController/obj/Sources/ARCONTROLLER_Frame.c.o
 .debug_info    0x00001d6a     0x3943 /home/ncs/CAPSTONE/out/arsdk-native/build/libARController/obj/Sources/ARCONTROLLER_Network.c.o
 .debug_info    0x000056ad     0x1645 /home/ncs/CAPSTONE/out/arsdk-native/build/libARController/obj/Sources/ARCONTROLLER_Stream.c.o
 .debug_info    0x00006cf2      0x532 /home/ncs/CAPSTONE/out/arsdk-native/build/libARController/obj/Sources/ARCONTROLLER_StreamPool.c.o
 .debug_info    0x00007224      0xb7a /home/ncs/CAPSTONE/out/arsdk-native/build/libARController/obj/Sources/ARCONTROLLER_StreamQueue.c.o
 .debug_info    0x00007d9e     0x2369 /home/ncs/CAPSTONE/out/arsdk-native/build/libARController/obj/Sources/ARCONTROLLER_Stream1.c.o
 .debug_info    0x0000a107     0x2d46 /home/ncs/CAPSTONE/out/arsdk-native/build/libARController/obj/Sources/ARCONTROLLER_Stream2.c.o
 .debug_info    0x0000ce4d     0x1441 /home/ncs/CAPSTONE/out/arsdk-native/build/libARController/obj/Sources/ARCONTROLLER_StreamSender.c.o
 .debug_info    0x0000e28e    0x1108c /home/ncs/CAPSTONE/out/arsdk-native/build/libARController/obj/gen/Sources/ARCONTROLLER_Device.c.o
 .debug_info    0x0001f31a      0x817 /home/ncs/CAPSTONE/out/arsdk-native/build/libARController/obj/gen/Sources/ARCONTROLLER_DICTIONARY_Key.c.o
 .debug_info    0x0001fb31      0x1a5 /home/ncs/CAPSTONE/out/arsdk-native/build/libARController/obj/gen/Sources/ARCONTROLLER_Error.c.o
 .debug_info    0x0001fcd6    0xd0f88 /home/ncs/CAPSTONE/out/arsdk-native/build/libARController/obj/gen/Sources/ARCONTROLLER_Feature.c.o

.debug_abbrev   0x00000000     0x2725
 *(.debug_abbrev)
 .debug_abbrev  0x00000000      0x392 /home/ncs/CAPSTONE/out/arsdk-native/build/libARController/obj/Sources/ARCONTROLLER_Dictionary.c.o
 .debug_abbrev  0x00000392      0x153 /home/ncs/CAPSTONE/out/arsdk-native/build/libARController/obj/Sources/ARCONTROLLER_Frame.c.o
 .debug_abbrev  0x000004e5      0x419 /home/ncs/CAPSTONE/out/arsdk-native/build/libARController/obj/Sources/ARCONTROLLER_Network.c.o
 .debug_abbrev  0x000008fe      0x2a3 /home/ncs/CAPSTONE/out/arsdk-native/build/libARController/obj/Sources/ARCONTROLLER_Stream.c.o
 .debug_abbrev  0x00000ba1      0x158 /home/ncs/CAPSTONE/out/arsdk-native/build/libARController/obj/Sources/ARCONTROLLER_StreamPool.c.o
 .debug_abbrev  0x00000cf9      0x29f /home/ncs/CAPSTONE/out/arsdk-native/build/libARController/obj/Sources/ARCONTROLLER_StreamQueue.c.o
 .debug_abbrev  0x00000f98      0x3fd /home/ncs/CAPSTONE/out/arsdk-native/build/libARController/obj/Sources/ARCONTROLLER_Stream1.c.o
 .debug_abbrev  0x00001395      0x484 /home/ncs/CAPSTONE/out/arsdk-native/build/libARController/obj/Sources/ARCONTROLLER_Stream2.c.o
 .debug_abbrev  0x00001819      0x36b /home/ncs/CAPSTONE/out/arsdk-native/build/libARController/obj/Sources/ARCONTROLLER_StreamSender.c.o
 .debug_abbrev  0x00001b84      0x4c2 /home/ncs/CAPSTONE/out/arsdk-native/build/libARController/obj/gen/Sources/ARCONTROLLER_Device.c.o
 .debug_abbrev  0x00002046       0x90 /home/ncs/CAPSTONE/out/arsdk-native/build/libARController/obj/gen/Sources/ARCONTROLLER_DICTIONARY_Key.c.o
 .debug_abbrev  0x000020d6       0x93 /home/ncs/CAPSTONE/out/arsdk-native/build/libARController/obj/gen/Sources/ARCONTROLLER_Error.c.o
 .debug_abbrev  0x00002169      0x5bc /home/ncs/CAPSTONE/out/arsdk-native/build/libARController/obj/gen/Sources/ARCONTROLLER_Feature.c.o

.debug_line     0x00000000    0x4a4ea
 *(.debug_line .debug_line.* .debug_line_end)
 .debug_line    0x00000000      0x61a /home/ncs/CAPSTONE/out/arsdk-native/build/libARController/obj/Sources/ARCONTROLLER_Dictionary.c.o
 .debug_line    0x0000061a      0x1ba /home/ncs/CAPSTONE/out/arsdk-native/build/libARController/obj/Sources/ARCONTROLLER_Frame.c.o
 .debug_line    0x000007d4      0xa80 /home/ncs/CAPSTONE/out/arsdk-native/build/libARController/obj/Sources/ARCONTROLLER_Network.c.o
 .debug_line    0x00001254      0x51e /home/ncs/CAPSTONE/out/arsdk-native/build/libARController/obj/Sources/ARCONTROLLER_Stream.c.o
 .debug_line    0x00001772      0x251 /home/ncs/CAPSTONE/out/arsdk-native/build/libARController/obj/Sources/ARCONTROLLER_StreamPool.c.o
 .debug_line    0x000019c3      0x384 /home/ncs/CAPSTONE/out/arsdk-native/build/libARController/obj/Sources/ARCONTROLLER_StreamQueue.c.o
 .debug_line    0x00001d47      0x80d /home/ncs/CAPSTONE/out/arsdk-native/build/libARController/obj/Sources/ARCONTROLLER_Stream1.c.o
 .debug_line    0x00002554      0x8b7 /home/ncs/CAPSTONE/out/arsdk-native/build/libARController/obj/Sources/ARCONTROLLER_Stream2.c.o
 .debug_line    0x00002e0b      0x5ac /home/ncs/CAPSTONE/out/arsdk-native/build/libARController/obj/Sources/ARCONTROLLER_StreamSender.c.o
 .debug_line    0x000033b7     0x1c81 /home/ncs/CAPSTONE/out/arsdk-native/build/libARController/obj/gen/Sources/ARCONTROLLER_Device.c.o
 .debug_line    0x00005038      0x102 /home/ncs/CAPSTONE/out/arsdk-native/build/libARController/obj/gen/Sources/ARCONTROLLER_DICTIONARY_Key.c.o
 .debug_line    0x0000513a      0x149 /home/ncs/CAPSTONE/out/arsdk-native/build/libARController/obj/gen/Sources/ARCONTROLLER_Error.c.o
 .debug_line    0x00005283    0x45267 /home/ncs/CAPSTONE/out/arsdk-native/build/libARController/obj/gen/Sources/ARCONTROLLER_Feature.c.o

.debug_frame    0x00000000     0xb594
 *(.debug_frame)
 .debug_frame   0x00000000      0x1ac /home/ncs/CAPSTONE/out/arsdk-native/build/libARController/obj/Sources/ARCONTROLLER_Dictionary.c.o
 .debug_frame   0x000001ac       0x90 /home/ncs/CAPSTONE/out/arsdk-native/build/libARController/obj/Sources/ARCONTROLLER_Frame.c.o
 .debug_frame   0x0000023c      0x304 /home/ncs/CAPSTONE/out/arsdk-native/build/libARController/obj/Sources/ARCONTROLLER_Network.c.o
 .debug_frame   0x00000540      0x144 /home/ncs/CAPSTONE/out/arsdk-native/build/libARController/obj/Sources/ARCONTROLLER_Stream.c.o
 .debug_frame   0x00000684       0x8c /home/ncs/CAPSTONE/out/arsdk-native/build/libARController/obj/Sources/ARCONTROLLER_StreamPool.c.o
 .debug_frame   0x00000710      0x130 /home/ncs/CAPSTONE/out/arsdk-native/build/libARController/obj/Sources/ARCONTROLLER_StreamQueue.c.o
 .debug_frame   0x00000840      0x1f8 /home/ncs/CAPSTONE/out/arsdk-native/build/libARController/obj/Sources/ARCONTROLLER_Stream1.c.o
 .debug_frame   0x00000a38      0x218 /home/ncs/CAPSTONE/out/arsdk-native/build/libARController/obj/Sources/ARCONTROLLER_Stream2.c.o
 .debug_frame   0x00000c50       0xf4 /home/ncs/CAPSTONE/out/arsdk-native/build/libARController/obj/Sources/ARCONTROLLER_StreamSender.c.o
 .debug_frame   0x00000d44      0x794 /home/ncs/CAPSTONE/out/arsdk-native/build/libARController/obj/gen/Sources/ARCONTROLLER_Device.c.o
 .debug_frame   0x000014d8       0x20 /home/ncs/CAPSTONE/out/arsdk-native/build/libARController/obj/gen/Sources/ARCONTROLLER_DICTIONARY_Key.c.o
 .debug_frame   0x000014f8       0x20 /home/ncs/CAPSTONE/out/arsdk-native/build/libARController/obj/gen/Sources/ARCONTROLLER_Error.c.o
 .debug_frame   0x00001518     0xa07c /home/ncs/CAPSTONE/out/arsdk-native/build/libARController/obj/gen/Sources/ARCONTROLLER_Feature.c.o

.debug_str      0x00000000    0x458b0
 *(.debug_str)
 .debug_str     0x00000000     0x6303 /home/ncs/CAPSTONE/out/arsdk-native/build/libARController/obj/Sources/ARCONTROLLER_Dictionary.c.o
                               0x63a5 (size before relaxing)
 .debug_str     0x00006303      0x151 /home/ncs/CAPSTONE/out/arsdk-native/build/libARController/obj/Sources/ARCONTROLLER_Frame.c.o
                                0x90f (size before relaxing)
 .debug_str     0x00006454     0x309c /home/ncs/CAPSTONE/out/arsdk-native/build/libARController/obj/Sources/ARCONTROLLER_Network.c.o
                               0x39c8 (size before relaxing)
 .debug_str     0x000094f0      0x292 /home/ncs/CAPSTONE/out/arsdk-native/build/libARController/obj/Sources/ARCONTROLLER_Stream.c.o
                               0x26bc (size before relaxing)
 .debug_str     0x00009782       0xee /home/ncs/CAPSTONE/out/arsdk-native/build/libARController/obj/Sources/ARCONTROLLER_StreamPool.c.o
                                0x96d (size before relaxing)
 .debug_str     0x00009870      0x273 /home/ncs/CAPSTONE/out/arsdk-native/build/libARController/obj/Sources/ARCONTROLLER_StreamQueue.c.o
                                0xcc9 (size before relaxing)
 .debug_str     0x00009ae3      0x5ee /home/ncs/CAPSTONE/out/arsdk-native/build/libARController/obj/Sources/ARCONTROLLER_Stream1.c.o
                               0x1f74 (size before relaxing)
 .debug_str     0x0000a0d1      0x897 /home/ncs/CAPSTONE/out/arsdk-native/build/libARController/obj/Sources/ARCONTROLLER_Stream2.c.o
                               0x30a5 (size before relaxing)
 .debug_str     0x0000a968      0x24a /home/ncs/CAPSTONE/out/arsdk-native/build/libARController/obj/Sources/ARCONTROLLER_StreamSender.c.o
                               0x195f (size before relaxing)
 .debug_str     0x0000abb2     0xcc59 /home/ncs/CAPSTONE/out/arsdk-native/build/libARController/obj/gen/Sources/ARCONTROLLER_Device.c.o
                              0x14dc7 (size before relaxing)
 .debug_str     0x0001780b       0x5c /home/ncs/CAPSTONE/out/arsdk-native/build/libARController/obj/gen/Sources/ARCONTROLLER_DICTIONARY_Key.c.o
                               0x5616 (size before relaxing)
 .debug_str     0x00017867       0x48 /home/ncs/CAPSTONE/out/arsdk-native/build/libARController/obj/gen/Sources/ARCONTROLLER_Error.c.o
                                0x718 (size before relaxing)
 .debug_str     0x000178af    0x2e001 /home/ncs/CAPSTONE/out/arsdk-native/build/libARController/obj/gen/Sources/ARCONTROLLER_Feature.c.o
                              0x421c0 (size before relaxing)

.debug_loc      0x00000000   0x15135f
 *(.debug_loc)
 .debug_loc     0x00000000     0x2021 /home/ncs/CAPSTONE/out/arsdk-native/build/libARController/obj/Sources/ARCONTROLLER_Dictionary.c.o
 .debug_loc     0x00002021      0x2c4 /home/ncs/CAPSTONE/out/arsdk-native/build/libARController/obj/Sources/ARCONTROLLER_Frame.c.o
 .debug_loc     0x000022e5     0x17a1 /home/ncs/CAPSTONE/out/arsdk-native/build/libARController/obj/Sources/ARCONTROLLER_Network.c.o
 .debug_loc     0x00003a86      0x632 /home/ncs/CAPSTONE/out/arsdk-native/build/libARController/obj/Sources/ARCONTROLLER_Stream.c.o
 .debug_loc     0x000040b8      0x29e /home/ncs/CAPSTONE/out/arsdk-native/build/libARController/obj/Sources/ARCONTROLLER_StreamPool.c.o
 .debug_loc     0x00004356      0x687 /home/ncs/CAPSTONE/out/arsdk-native/build/libARController/obj/Sources/ARCONTROLLER_StreamQueue.c.o
 .debug_loc     0x000049dd     0x12d4 /home/ncs/CAPSTONE/out/arsdk-native/build/libARController/obj/Sources/ARCONTROLLER_Stream1.c.o
 .debug_loc     0x00005cb1      0xe2f /home/ncs/CAPSTONE/out/arsdk-native/build/libARController/obj/Sources/ARCONTROLLER_Stream2.c.o
 .debug_loc     0x00006ae0      0x797 /home/ncs/CAPSTONE/out/arsdk-native/build/libARController/obj/Sources/ARCONTROLLER_StreamSender.c.o
 .debug_loc     0x00007277     0x592e /home/ncs/CAPSTONE/out/arsdk-native/build/libARController/obj/gen/Sources/ARCONTROLLER_Device.c.o
 .debug_loc     0x0000cba5      0x162 /home/ncs/CAPSTONE/out/arsdk-native/build/libARController/obj/gen/Sources/ARCONTROLLER_DICTIONARY_Key.c.o
 .debug_loc     0x0000cd07      0x43b /home/ncs/CAPSTONE/out/arsdk-native/build/libARController/obj/gen/Sources/ARCONTROLLER_Error.c.o
 .debug_loc     0x0000d142   0x14421d /home/ncs/CAPSTONE/out/arsdk-native/build/libARController/obj/gen/Sources/ARCONTROLLER_Feature.c.o

.debug_macinfo
 *(.debug_macinfo)

.debug_weaknames
 *(.debug_weaknames)

.debug_funcnames
 *(.debug_funcnames)

.debug_typenames
 *(.debug_typenames)

.debug_varnames
 *(.debug_varnames)

.debug_pubtypes
 *(.debug_pubtypes)

.debug_ranges   0x00000000     0xf058
 *(.debug_ranges)
 .debug_ranges  0x00000000       0xf0 /home/ncs/CAPSTONE/out/arsdk-native/build/libARController/obj/Sources/ARCONTROLLER_Dictionary.c.o
 .debug_ranges  0x000000f0       0x30 /home/ncs/CAPSTONE/out/arsdk-native/build/libARController/obj/Sources/ARCONTROLLER_Frame.c.o
 .debug_ranges  0x00000120      0x1d8 /home/ncs/CAPSTONE/out/arsdk-native/build/libARController/obj/Sources/ARCONTROLLER_Network.c.o
 .debug_ranges  0x000002f8       0x70 /home/ncs/CAPSTONE/out/arsdk-native/build/libARController/obj/Sources/ARCONTROLLER_Stream.c.o
 .debug_ranges  0x00000368       0x28 /home/ncs/CAPSTONE/out/arsdk-native/build/libARController/obj/Sources/ARCONTROLLER_StreamPool.c.o
 .debug_ranges  0x00000390       0x78 /home/ncs/CAPSTONE/out/arsdk-native/build/libARController/obj/Sources/ARCONTROLLER_StreamQueue.c.o
 .debug_ranges  0x00000408      0x188 /home/ncs/CAPSTONE/out/arsdk-native/build/libARController/obj/Sources/ARCONTROLLER_Stream1.c.o
 .debug_ranges  0x00000590      0x148 /home/ncs/CAPSTONE/out/arsdk-native/build/libARController/obj/Sources/ARCONTROLLER_Stream2.c.o
 .debug_ranges  0x000006d8       0xb0 /home/ncs/CAPSTONE/out/arsdk-native/build/libARController/obj/Sources/ARCONTROLLER_StreamSender.c.o
 .debug_ranges  0x00000788      0x388 /home/ncs/CAPSTONE/out/arsdk-native/build/libARController/obj/gen/Sources/ARCONTROLLER_Device.c.o
 .debug_ranges  0x00000b10       0x10 /home/ncs/CAPSTONE/out/arsdk-native/build/libARController/obj/gen/Sources/ARCONTROLLER_DICTIONARY_Key.c.o
 .debug_ranges  0x00000b20       0x10 /home/ncs/CAPSTONE/out/arsdk-native/build/libARController/obj/gen/Sources/ARCONTROLLER_Error.c.o
 .debug_ranges  0x00000b30     0xe528 /home/ncs/CAPSTONE/out/arsdk-native/build/libARController/obj/gen/Sources/ARCONTROLLER_Feature.c.o

.debug_macro
 *(.debug_macro)

.gnu.attributes
 *(.gnu.attributes)

.note.gnu.arm.ident
 *(.note.gnu.arm.ident)

/DISCARD/
 *(.note.GNU-stack)
 *(.gnu_debuglink)
 *(.gnu.lto_*)
OUTPUT(out/arsdk-native/build/libARController/libarcontroller.so elf32-littlearm)
